; Listing generated by Microsoft (R) Optimizing Compiler Version 15.00.30729.01 

	TITLE	d:\vice-players-master\Client\cmdprocs.cpp
	.686P
	.XMM
	include listing.inc
	.model	flat

INCLUDELIB LIBCMTD
INCLUDELIB OLDNAMES

PUBLIC	?dwPlayerIncrementer@@3KA			; dwPlayerIncrementer
CONST	SEGMENT
_get_car_z_angle DW 0174H
	DB	'iv', 00H
	ORG $+10
	ORG $+1
CONST	ENDS
_DATA	SEGMENT
?dwPlayerIncrementer@@3KA DD 02H			; dwPlayerIncrementer
_DATA	ENDS
PUBLIC	??_C@_05EPJHLJFF@0x?$CFX?0?$AA@			; `string'
PUBLIC	??_C@_0BA@MFAOIJKI@ClientLayer?4txt?$AA@	; `string'
PUBLIC	??_C@_01NOFIACDB@w?$AA@				; `string'
PUBLIC	?WriteCompression@@YAXPAK@Z			; WriteCompression
EXTRN	_fclose:PROC
EXTRN	_fprintf:PROC
EXTRN	_fopen:PROC
EXTRN	__RTC_CheckEsp:PROC
EXTRN	__RTC_Shutdown:PROC
EXTRN	__RTC_InitBase:PROC
;	COMDAT ??_C@_05EPJHLJFF@0x?$CFX?0?$AA@
; File d:\vice-players-master\client\cmdprocs.cpp
CONST	SEGMENT
??_C@_05EPJHLJFF@0x?$CFX?0?$AA@ DB '0x%X,', 00H		; `string'
CONST	ENDS
;	COMDAT ??_C@_0BA@MFAOIJKI@ClientLayer?4txt?$AA@
CONST	SEGMENT
??_C@_0BA@MFAOIJKI@ClientLayer?4txt?$AA@ DB 'ClientLayer.txt', 00H ; `string'
CONST	ENDS
;	COMDAT ??_C@_01NOFIACDB@w?$AA@
CONST	SEGMENT
??_C@_01NOFIACDB@w?$AA@ DB 'w', 00H			; `string'
CONST	ENDS
;	COMDAT rtc$TMZ
rtc$TMZ	SEGMENT
__RTC_Shutdown.rtc$TMZ DD FLAT:__RTC_Shutdown
rtc$TMZ	ENDS
;	COMDAT rtc$IMZ
rtc$IMZ	SEGMENT
__RTC_InitBase.rtc$IMZ DD FLAT:__RTC_InitBase
; Function compile flags: /Odtp /RTCsu /ZI
rtc$IMZ	ENDS
;	COMDAT ?WriteCompression@@YAXPAK@Z
_TEXT	SEGMENT
_x$ = -20						; size = 4
_fileComp$ = -8						; size = 4
_ulWrite$ = 8						; size = 4
?WriteCompression@@YAXPAK@Z PROC			; WriteCompression, COMDAT

; 25   : {

	push	ebp
	mov	ebp, esp
	sub	esp, 216				; 000000d8H
	push	ebx
	push	esi
	push	edi
	lea	edi, DWORD PTR [ebp-216]
	mov	ecx, 54					; 00000036H
	mov	eax, -858993460				; ccccccccH
	rep stosd

; 26   : 	FILE *fileComp=fopen("ClientLayer.txt","w");

	push	OFFSET ??_C@_01NOFIACDB@w?$AA@
	push	OFFSET ??_C@_0BA@MFAOIJKI@ClientLayer?4txt?$AA@
	call	_fopen
	add	esp, 8
	mov	DWORD PTR _fileComp$[ebp], eax

; 27   : 
; 28   : 	int x=0;

	mov	DWORD PTR _x$[ebp], 0
$LN2@WriteCompr:

; 29   : 	
; 30   : 	while(x!=256) {

	cmp	DWORD PTR _x$[ebp], 256			; 00000100H
	je	SHORT $LN1@WriteCompr

; 31   : 		fprintf(fileComp,"0x%X,",ulWrite[x]);

	mov	eax, DWORD PTR _x$[ebp]
	mov	ecx, DWORD PTR _ulWrite$[ebp]
	mov	edx, DWORD PTR [ecx+eax*4]
	push	edx
	push	OFFSET ??_C@_05EPJHLJFF@0x?$CFX?0?$AA@
	mov	eax, DWORD PTR _fileComp$[ebp]
	push	eax
	call	_fprintf
	add	esp, 12					; 0000000cH

; 32   : 		x++;

	mov	eax, DWORD PTR _x$[ebp]
	add	eax, 1
	mov	DWORD PTR _x$[ebp], eax

; 33   : 	}

	jmp	SHORT $LN2@WriteCompr
$LN1@WriteCompr:

; 34   : 
; 35   : 	fclose(fileComp);

	mov	eax, DWORD PTR _fileComp$[ebp]
	push	eax
	call	_fclose
	add	esp, 4

; 36   : }

	pop	edi
	pop	esi
	pop	ebx
	add	esp, 216				; 000000d8H
	cmp	ebp, esp
	call	__RTC_CheckEsp
	mov	esp, ebp
	pop	ebp
	ret	0
?WriteCompression@@YAXPAK@Z ENDP			; WriteCompression
_TEXT	ENDS
PUBLIC	?GetLocalPlayer@CPlayerManager@@QAEPAVCLocalPlayer@@XZ ; CPlayerManager::GetLocalPlayer
PUBLIC	?GetPlayerManager@CNetworkManager@@QAEPAVCPlayerManager@@XZ ; CNetworkManager::GetPlayerManager
PUBLIC	?cmdDefaultCmdProc@@YAXPAD@Z			; cmdDefaultCmdProc
EXTRN	?Say@CLocalPlayer@@QAEXPAD@Z:PROC		; CLocalPlayer::Say
EXTRN	?pNetowkManager@@3PAVCNetworkManager@@A:DWORD	; pNetowkManager
; Function compile flags: /Odtp /RTCsu /ZI
;	COMDAT ?cmdDefaultCmdProc@@YAXPAD@Z
_TEXT	SEGMENT
_pLocalPlayer$209266 = -8				; size = 4
_szCmd$ = 8						; size = 4
?cmdDefaultCmdProc@@YAXPAD@Z PROC			; cmdDefaultCmdProc, COMDAT

; 41   : {

	push	ebp
	mov	ebp, esp
	sub	esp, 204				; 000000ccH
	push	ebx
	push	esi
	push	edi
	lea	edi, DWORD PTR [ebp-204]
	mov	ecx, 51					; 00000033H
	mov	eax, -858993460				; ccccccccH
	rep stosd

; 42   : 	if(pNetowkManager) {

	cmp	DWORD PTR ?pNetowkManager@@3PAVCNetworkManager@@A, 0 ; pNetowkManager
	je	SHORT $LN2@cmdDefault

; 43   : 		CLocalPlayer *pLocalPlayer;
; 44   : 		pLocalPlayer = pNetowkManager->GetPlayerManager()->GetLocalPlayer();

	mov	ecx, DWORD PTR ?pNetowkManager@@3PAVCNetworkManager@@A ; pNetowkManager
	call	?GetPlayerManager@CNetworkManager@@QAEPAVCPlayerManager@@XZ ; CNetworkManager::GetPlayerManager
	mov	ecx, eax
	call	?GetLocalPlayer@CPlayerManager@@QAEPAVCLocalPlayer@@XZ ; CPlayerManager::GetLocalPlayer
	mov	DWORD PTR _pLocalPlayer$209266[ebp], eax

; 45   : 		pLocalPlayer->Say(szCmd);

	mov	eax, DWORD PTR _szCmd$[ebp]
	push	eax
	mov	ecx, DWORD PTR _pLocalPlayer$209266[ebp]
	call	?Say@CLocalPlayer@@QAEXPAD@Z		; CLocalPlayer::Say
$LN2@cmdDefault:

; 46   : 	}
; 47   : }

	pop	edi
	pop	esi
	pop	ebx
	add	esp, 204				; 000000ccH
	cmp	ebp, esp
	call	__RTC_CheckEsp
	mov	esp, ebp
	pop	ebp
	ret	0
?cmdDefaultCmdProc@@YAXPAD@Z ENDP			; cmdDefaultCmdProc
_TEXT	ENDS
PUBLIC	?cmdQuit@@YAXPAD@Z				; cmdQuit
EXTRN	__imp__ExitProcess@4:PROC
EXTRN	?Shutdown@CNetworkManager@@QAEXXZ:PROC		; CNetworkManager::Shutdown
; Function compile flags: /Odtp /RTCsu /ZI
;	COMDAT ?cmdQuit@@YAXPAD@Z
_TEXT	SEGMENT
_szCmd$ = 8						; size = 4
?cmdQuit@@YAXPAD@Z PROC					; cmdQuit, COMDAT

; 52   : {

	push	ebp
	mov	ebp, esp
	sub	esp, 192				; 000000c0H
	push	ebx
	push	esi
	push	edi
	lea	edi, DWORD PTR [ebp-192]
	mov	ecx, 48					; 00000030H
	mov	eax, -858993460				; ccccccccH
	rep stosd

; 53   : 	if(pNetowkManager) {

	cmp	DWORD PTR ?pNetowkManager@@3PAVCNetworkManager@@A, 0 ; pNetowkManager
	je	SHORT $LN1@cmdQuit

; 54   : 		pNetowkManager->Shutdown();

	mov	ecx, DWORD PTR ?pNetowkManager@@3PAVCNetworkManager@@A ; pNetowkManager
	call	?Shutdown@CNetworkManager@@QAEXXZ	; CNetworkManager::Shutdown
$LN1@cmdQuit:

; 55   : 	}
; 56   : 
; 57   : 	ExitProcess(0);

	mov	esi, esp
	push	0
	call	DWORD PTR __imp__ExitProcess@4
	cmp	esi, esp
	call	__RTC_CheckEsp
$LN3@cmdQuit:

; 58   : }

	pop	edi
	pop	esi
	pop	ebx
	add	esp, 192				; 000000c0H
	cmp	ebp, esp
	call	__RTC_CheckEsp
	mov	esp, ebp
	pop	ebp
	ret	0
?cmdQuit@@YAXPAD@Z ENDP					; cmdQuit
_TEXT	ENDS
PUBLIC	?FindPlayerPed@CGame@@QAEPAVCPlayerPed@@XZ	; CGame::FindPlayerPed
PUBLIC	__real@00000000
PUBLIC	?cmdKill@@YAXPAD@Z				; cmdKill
EXTRN	?SetHealth@CPlayerPed@@QAEXM@Z:PROC		; CPlayerPed::SetHealth
EXTRN	?pGame@@3PAVCGame@@A:DWORD			; pGame
EXTRN	__fltused:DWORD
;	COMDAT __real@00000000
CONST	SEGMENT
__real@00000000 DD 000000000r			; 0
; Function compile flags: /Odtp /RTCsu /ZI
CONST	ENDS
;	COMDAT ?cmdKill@@YAXPAD@Z
_TEXT	SEGMENT
_szCmd$ = 8						; size = 4
?cmdKill@@YAXPAD@Z PROC					; cmdKill, COMDAT

; 63   : {

	push	ebp
	mov	ebp, esp
	sub	esp, 192				; 000000c0H
	push	ebx
	push	esi
	push	edi
	lea	edi, DWORD PTR [ebp-192]
	mov	ecx, 48					; 00000030H
	mov	eax, -858993460				; ccccccccH
	rep stosd

; 64   : 	pGame->FindPlayerPed()->SetHealth(0.0f);

	push	ecx
	fldz
	fstp	DWORD PTR [esp]
	mov	ecx, DWORD PTR ?pGame@@3PAVCGame@@A	; pGame
	call	?FindPlayerPed@CGame@@QAEPAVCPlayerPed@@XZ ; CGame::FindPlayerPed
	mov	ecx, eax
	call	?SetHealth@CPlayerPed@@QAEXM@Z		; CPlayerPed::SetHealth

; 65   : }

	pop	edi
	pop	esi
	pop	ebx
	add	esp, 192				; 000000c0H
	cmp	ebp, esp
	call	__RTC_CheckEsp
	mov	esp, ebp
	pop	ebp
	ret	0
?cmdKill@@YAXPAD@Z ENDP					; cmdKill
_TEXT	ENDS
PUBLIC	??_C@_0BK@MOAKFGAC@?9?$DO?5OnFoot?5position?5saved?4?$AA@ ; `string'
PUBLIC	??_C@_0EB@OEFNDABF@addPlayerClass?$CI0?0?50?0?5?$CF?44f?0?5?$CF?44f?0@ ; `string'
PUBLIC	??0Vector3@@QAE@XZ				; Vector3::Vector3
PUBLIC	??_C@_0BN@NNHHGEJF@?9?$DO?5InVehicle?5position?5saved?4?$AA@ ; `string'
PUBLIC	??_C@_0DD@CJCABJAM@createVehicle?$CI?$CFu?0?5?$CF?44f?0?5?$CF?44f?0?5?$CF?4@ ; `string'
PUBLIC	??_C@_0DE@FMDHHILE@I?5can?8t?5open?5the?5savepositions?4t@ ; `string'
PUBLIC	??_C@_0BD@NOAGOKCK@savedpositions?4txt?$AA@	; `string'
PUBLIC	??_C@_01MCMALHOG@a?$AA@				; `string'
PUBLIC	?cmdSavePos@@YAXPAD@Z				; cmdSavePos
EXTRN	?GetRotation@CPlayerPed@@QAEMXZ:PROC		; CPlayerPed::GetRotation
EXTRN	?GetPosition@CEntity@@QAEXPAUVector3@@@Z:PROC	; CEntity::GetPosition
EXTRN	?ScriptCommand@@YAHPBUSCRIPT_COMMAND@@ZZ:PROC	; ScriptCommand
EXTRN	?GetIndexFromVehicle@CPools@@SGHPAU_VEHICLE_TYPE@@@Z:PROC ; CPools::GetIndexFromVehicle
EXTRN	?GetGtaVehicle@CPlayerPed@@QAEPAU_VEHICLE_TYPE@@XZ:PROC ; CPlayerPed::GetGtaVehicle
EXTRN	?IsInVehicle@CPlayerPed@@QAEHXZ:PROC		; CPlayerPed::IsInVehicle
EXTRN	?AddDebugMessage@CChatWindow@@QAAXPADZZ:PROC	; CChatWindow::AddDebugMessage
EXTRN	?pChatWindow@@3PAVCChatWindow@@A:DWORD		; pChatWindow
EXTRN	@_RTC_CheckStackVars@8:PROC
;	COMDAT ??_C@_0BK@MOAKFGAC@?9?$DO?5OnFoot?5position?5saved?4?$AA@
CONST	SEGMENT
??_C@_0BK@MOAKFGAC@?9?$DO?5OnFoot?5position?5saved?4?$AA@ DB '-> OnFoot p'
	DB	'osition saved.', 00H			; `string'
CONST	ENDS
;	COMDAT ??_C@_0EB@OEFNDABF@addPlayerClass?$CI0?0?50?0?5?$CF?44f?0?5?$CF?44f?0@
CONST	SEGMENT
??_C@_0EB@OEFNDABF@addPlayerClass?$CI0?0?50?0?5?$CF?44f?0?5?$CF?44f?0@ DB 'a'
	DB	'ddPlayerClass(0, 0, %.4f, %.4f, %.4f, %.4f, 0, 0, 0, 0, 0, 0)'
	DB	';', 0aH, 00H				; `string'
CONST	ENDS
;	COMDAT ??_C@_0BN@NNHHGEJF@?9?$DO?5InVehicle?5position?5saved?4?$AA@
CONST	SEGMENT
??_C@_0BN@NNHHGEJF@?9?$DO?5InVehicle?5position?5saved?4?$AA@ DB '-> InVeh'
	DB	'icle position saved.', 00H			; `string'
CONST	ENDS
;	COMDAT ??_C@_0DD@CJCABJAM@createVehicle?$CI?$CFu?0?5?$CF?44f?0?5?$CF?44f?0?5?$CF?4@
CONST	SEGMENT
??_C@_0DD@CJCABJAM@createVehicle?$CI?$CFu?0?5?$CF?44f?0?5?$CF?44f?0?5?$CF?4@ DB 'c'
	DB	'reateVehicle(%u, %.4f, %.4f, %.4f, %.4f, %u, %u)', 0aH, 00H ; `string'
CONST	ENDS
;	COMDAT ??_C@_0DE@FMDHHILE@I?5can?8t?5open?5the?5savepositions?4t@
CONST	SEGMENT
??_C@_0DE@FMDHHILE@I?5can?8t?5open?5the?5savepositions?4t@ DB 'I can''t o'
	DB	'pen the savepositions.txt file for append.', 00H ; `string'
CONST	ENDS
;	COMDAT ??_C@_0BD@NOAGOKCK@savedpositions?4txt?$AA@
CONST	SEGMENT
??_C@_0BD@NOAGOKCK@savedpositions?4txt?$AA@ DB 'savedpositions.txt', 00H ; `string'
CONST	ENDS
;	COMDAT ??_C@_01MCMALHOG@a?$AA@
CONST	SEGMENT
??_C@_01MCMALHOG@a?$AA@ DB 'a', 00H			; `string'
; Function compile flags: /Odtp /RTCsu /ZI
CONST	ENDS
;	COMDAT ?cmdSavePos@@YAXPAD@Z
_TEXT	SEGMENT
_vPos$ = -100						; size = 12
_vPos$209288 = -80					; size = 4
_wModelIndex$209287 = -68				; size = 2
_pVehicle$209286 = -56					; size = 4
_fZAngle$ = -44						; size = 4
_dwVehicleID$ = -32					; size = 4
_fileOut$ = -20						; size = 4
_pPlayer$ = -8						; size = 4
_szCmd$ = 8						; size = 4
?cmdSavePos@@YAXPAD@Z PROC				; cmdSavePos, COMDAT

; 70   : {

	push	ebp
	mov	ebp, esp
	sub	esp, 296				; 00000128H
	push	ebx
	push	esi
	push	edi
	lea	edi, DWORD PTR [ebp-296]
	mov	ecx, 74					; 0000004aH
	mov	eax, -858993460				; ccccccccH
	rep stosd

; 71   : 	CPlayerPed *pPlayer = pGame->FindPlayerPed();

	mov	ecx, DWORD PTR ?pGame@@3PAVCGame@@A	; pGame
	call	?FindPlayerPed@CGame@@QAEPAVCPlayerPed@@XZ ; CGame::FindPlayerPed
	mov	DWORD PTR _pPlayer$[ebp], eax

; 72   : 	FILE *fileOut;
; 73   : 	DWORD dwVehicleID;
; 74   : 	float fZAngle;
; 75   : 
; 76   : 	fileOut = fopen("savedpositions.txt","a");

	push	OFFSET ??_C@_01MCMALHOG@a?$AA@
	push	OFFSET ??_C@_0BD@NOAGOKCK@savedpositions?4txt?$AA@
	call	_fopen
	add	esp, 8
	mov	DWORD PTR _fileOut$[ebp], eax

; 77   : 	if(!fileOut) {

	cmp	DWORD PTR _fileOut$[ebp], 0
	jne	SHORT $LN2@cmdSavePos

; 78   : 		pChatWindow->AddDebugMessage("I can't open the savepositions.txt file for append.");

	push	OFFSET ??_C@_0DE@FMDHHILE@I?5can?8t?5open?5the?5savepositions?4t@
	mov	eax, DWORD PTR ?pChatWindow@@3PAVCChatWindow@@A ; pChatWindow
	push	eax
	call	?AddDebugMessage@CChatWindow@@QAAXPADZZ	; CChatWindow::AddDebugMessage
	add	esp, 8

; 79   : 		return;

	jmp	$LN3@cmdSavePos
$LN2@cmdSavePos:

; 80   : 	}
; 81   : 
; 82   : 	// incar savepos
; 83   : 
; 84   : 	if(pPlayer->IsInVehicle()) {

	mov	ecx, DWORD PTR _pPlayer$[ebp]
	call	?IsInVehicle@CPlayerPed@@QAEHXZ		; CPlayerPed::IsInVehicle
	test	eax, eax
	je	$LN1@cmdSavePos

; 85   : 		VEHICLE_TYPE *pVehicle = pPlayer->GetGtaVehicle();

	mov	ecx, DWORD PTR _pPlayer$[ebp]
	call	?GetGtaVehicle@CPlayerPed@@QAEPAU_VEHICLE_TYPE@@XZ ; CPlayerPed::GetGtaVehicle
	mov	DWORD PTR _pVehicle$209286[ebp], eax

; 86   : 		WORD wModelIndex = pVehicle->physical.entity.wModelIndex;

	mov	eax, DWORD PTR _pVehicle$209286[ebp]
	mov	cx, WORD PTR [eax+92]
	mov	WORD PTR _wModelIndex$209287[ebp], cx

; 87   : 		Vector3 * vPos = &pVehicle->physical.entity.placeable.matMatrix.vPos;

	mov	eax, DWORD PTR _pVehicle$209286[ebp]
	add	eax, 52					; 00000034H
	mov	DWORD PTR _vPos$209288[ebp], eax

; 88   : 		dwVehicleID = CPools::GetIndexFromVehicle(pVehicle);

	mov	eax, DWORD PTR _pVehicle$209286[ebp]
	push	eax
	call	?GetIndexFromVehicle@CPools@@SGHPAU_VEHICLE_TYPE@@@Z ; CPools::GetIndexFromVehicle
	mov	DWORD PTR _dwVehicleID$[ebp], eax

; 89   : 		ScriptCommand(&get_car_z_angle,dwVehicleID,&fZAngle);

	lea	eax, DWORD PTR _fZAngle$[ebp]
	push	eax
	mov	ecx, DWORD PTR _dwVehicleID$[ebp]
	push	ecx
	push	OFFSET _get_car_z_angle
	call	?ScriptCommand@@YAHPBUSCRIPT_COMMAND@@ZZ ; ScriptCommand
	add	esp, 12					; 0000000cH

; 90   : 
; 91   : 		fprintf(fileOut,"createVehicle(%u, %.4f, %.4f, %.4f, %.4f, %u, %u)\n", wModelIndex, vPos->X, vPos->Y, vPos->Z, 
; 92   : 			fZAngle, pVehicle->byteColors[0], pVehicle->byteColors[1]);

	mov	eax, DWORD PTR _pVehicle$209286[ebp]
	movzx	ecx, BYTE PTR [eax+417]
	push	ecx
	mov	edx, DWORD PTR _pVehicle$209286[ebp]
	movzx	eax, BYTE PTR [edx+416]
	push	eax
	fld	DWORD PTR _fZAngle$[ebp]
	sub	esp, 8
	fstp	QWORD PTR [esp]
	mov	ecx, DWORD PTR _vPos$209288[ebp]
	fld	DWORD PTR [ecx+8]
	sub	esp, 8
	fstp	QWORD PTR [esp]
	mov	edx, DWORD PTR _vPos$209288[ebp]
	fld	DWORD PTR [edx+4]
	sub	esp, 8
	fstp	QWORD PTR [esp]
	mov	eax, DWORD PTR _vPos$209288[ebp]
	fld	DWORD PTR [eax]
	sub	esp, 8
	fstp	QWORD PTR [esp]
	movzx	ecx, WORD PTR _wModelIndex$209287[ebp]
	push	ecx
	push	OFFSET ??_C@_0DD@CJCABJAM@createVehicle?$CI?$CFu?0?5?$CF?44f?0?5?$CF?44f?0?5?$CF?4@
	mov	edx, DWORD PTR _fileOut$[ebp]
	push	edx
	call	_fprintf
	add	esp, 52					; 00000034H

; 93   : 
; 94   : 		fclose(fileOut);

	mov	eax, DWORD PTR _fileOut$[ebp]
	push	eax
	call	_fclose
	add	esp, 4

; 95   : 
; 96   : 		pChatWindow->AddDebugMessage("-> InVehicle position saved.");

	push	OFFSET ??_C@_0BN@NNHHGEJF@?9?$DO?5InVehicle?5position?5saved?4?$AA@
	mov	eax, DWORD PTR ?pChatWindow@@3PAVCChatWindow@@A ; pChatWindow
	push	eax
	call	?AddDebugMessage@CChatWindow@@QAAXPADZZ	; CChatWindow::AddDebugMessage
	add	esp, 8

; 97   : 
; 98   : 		return;

	jmp	SHORT $LN3@cmdSavePos
$LN1@cmdSavePos:

; 99   : 	}
; 100  : 
; 101  : 	// onfoot savepos
; 102  : 	Vector3 vPos;

	lea	ecx, DWORD PTR _vPos$[ebp]
	call	??0Vector3@@QAE@XZ			; Vector3::Vector3

; 103  : 	pPlayer->GetPosition(&vPos);

	lea	eax, DWORD PTR _vPos$[ebp]
	push	eax
	mov	ecx, DWORD PTR _pPlayer$[ebp]
	call	?GetPosition@CEntity@@QAEXPAUVector3@@@Z ; CEntity::GetPosition

; 104  : 	fZAngle = pPlayer->GetRotation();

	mov	ecx, DWORD PTR _pPlayer$[ebp]
	call	?GetRotation@CPlayerPed@@QAEMXZ		; CPlayerPed::GetRotation
	fstp	DWORD PTR _fZAngle$[ebp]

; 105  : 
; 106  : 	fprintf(fileOut,"addPlayerClass(0, 0, %.4f, %.4f, %.4f, %.4f, 0, 0, 0, 0, 0, 0);\n", vPos.X, vPos.Y, vPos.Z, fZAngle);

	fld	DWORD PTR _fZAngle$[ebp]
	sub	esp, 8
	fstp	QWORD PTR [esp]
	fld	DWORD PTR _vPos$[ebp+8]
	sub	esp, 8
	fstp	QWORD PTR [esp]
	fld	DWORD PTR _vPos$[ebp+4]
	sub	esp, 8
	fstp	QWORD PTR [esp]
	fld	DWORD PTR _vPos$[ebp]
	sub	esp, 8
	fstp	QWORD PTR [esp]
	push	OFFSET ??_C@_0EB@OEFNDABF@addPlayerClass?$CI0?0?50?0?5?$CF?44f?0?5?$CF?44f?0@
	mov	eax, DWORD PTR _fileOut$[ebp]
	push	eax
	call	_fprintf
	add	esp, 40					; 00000028H

; 107  : 
; 108  : 	fclose(fileOut);

	mov	eax, DWORD PTR _fileOut$[ebp]
	push	eax
	call	_fclose
	add	esp, 4

; 109  : 
; 110  : 	pChatWindow->AddDebugMessage("-> OnFoot position saved.");

	push	OFFSET ??_C@_0BK@MOAKFGAC@?9?$DO?5OnFoot?5position?5saved?4?$AA@
	mov	eax, DWORD PTR ?pChatWindow@@3PAVCChatWindow@@A ; pChatWindow
	push	eax
	call	?AddDebugMessage@CChatWindow@@QAAXPADZZ	; CChatWindow::AddDebugMessage
	add	esp, 8
$LN3@cmdSavePos:

; 111  : }

	push	edx
	mov	ecx, ebp
	push	eax
	lea	edx, DWORD PTR $LN8@cmdSavePos
	call	@_RTC_CheckStackVars@8
	pop	eax
	pop	edx
	pop	edi
	pop	esi
	pop	ebx
	add	esp, 296				; 00000128H
	cmp	ebp, esp
	call	__RTC_CheckEsp
	mov	esp, ebp
	pop	ebp
	ret	0
$LN8@cmdSavePos:
	DD	2
	DD	$LN7@cmdSavePos
$LN7@cmdSavePos:
	DD	-44					; ffffffd4H
	DD	4
	DD	$LN5@cmdSavePos
	DD	-100					; ffffff9cH
	DD	12					; 0000000cH
	DD	$LN6@cmdSavePos
$LN6@cmdSavePos:
	DB	118					; 00000076H
	DB	80					; 00000050H
	DB	111					; 0000006fH
	DB	115					; 00000073H
	DB	0
$LN5@cmdSavePos:
	DB	102					; 00000066H
	DB	90					; 0000005aH
	DB	65					; 00000041H
	DB	110					; 0000006eH
	DB	103					; 00000067H
	DB	108					; 0000006cH
	DB	101					; 00000065H
	DB	0
?cmdSavePos@@YAXPAD@Z ENDP				; cmdSavePos
_TEXT	ENDS
PUBLIC	__real@4014000000000000
PUBLIC	??_C@_0BE@LEOODAAI@Invalid?5vehicle?5ID?4?$AA@	; `string'
PUBLIC	??_C@_0BO@PEECNCLG@Usage?3?5?1vehicle?5?$CIvehicle?5id?$CJ?4?$AA@ ; `string'
PUBLIC	?cmdCreateVehicle@@YAXPAD@Z			; cmdCreateVehicle
EXTRN	?NewVehicle@CGame@@QAEPAVCVehicle@@HMMMM@Z:PROC	; CGame::NewVehicle
EXTRN	__imp__Sleep@4:PROC
EXTRN	?IsModelLoaded@CGame@@QAEHH@Z:PROC		; CGame::IsModelLoaded
EXTRN	?LoadRequestedModels@CGame@@QAEXXZ:PROC		; CGame::LoadRequestedModels
EXTRN	?RequestModel@CGame@@QAEXH@Z:PROC		; CGame::RequestModel
EXTRN	_atoi:PROC
EXTRN	_strlen:PROC
EXTRN	?tSettings@@3U_GAME_SETTINGS@@A:BYTE		; tSettings
;	COMDAT __real@4014000000000000
CONST	SEGMENT
__real@4014000000000000 DQ 04014000000000000r	; 5
CONST	ENDS
;	COMDAT ??_C@_0BE@LEOODAAI@Invalid?5vehicle?5ID?4?$AA@
CONST	SEGMENT
??_C@_0BE@LEOODAAI@Invalid?5vehicle?5ID?4?$AA@ DB 'Invalid vehicle ID.', 00H ; `string'
CONST	ENDS
;	COMDAT ??_C@_0BO@PEECNCLG@Usage?3?5?1vehicle?5?$CIvehicle?5id?$CJ?4?$AA@
CONST	SEGMENT
??_C@_0BO@PEECNCLG@Usage?3?5?1vehicle?5?$CIvehicle?5id?$CJ?4?$AA@ DB 'Usa'
	DB	'ge: /vehicle (vehicle id).', 00H		; `string'
; Function compile flags: /Odtp /RTCsu /ZI
CONST	ENDS
;	COMDAT ?cmdCreateVehicle@@YAXPAD@Z
_TEXT	SEGMENT
tv157 = -256						; size = 4
tv155 = -252						; size = 4
_pTestVehicle$209310 = -52				; size = 4
_vPos$209309 = -40					; size = 12
_pPlayer$ = -20						; size = 4
_iVehicleType$ = -8					; size = 4
_szCmd$ = 8						; size = 4
?cmdCreateVehicle@@YAXPAD@Z PROC			; cmdCreateVehicle, COMDAT

; 116  : {

	push	ebp
	mov	ebp, esp
	sub	esp, 256				; 00000100H
	push	ebx
	push	esi
	push	edi
	lea	edi, DWORD PTR [ebp-256]
	mov	ecx, 64					; 00000040H
	mov	eax, -858993460				; ccccccccH
	rep stosd

; 117  : 	if(!tSettings.bDebug) return;

	cmp	DWORD PTR ?tSettings@@3U_GAME_SETTINGS@@A, 0
	jne	SHORT $LN7@cmdCreateV
	jmp	$LN8@cmdCreateV
$LN7@cmdCreateV:

; 118  : 
; 119  : 	if(!strlen(szCmd)){

	mov	eax, DWORD PTR _szCmd$[ebp]
	push	eax
	call	_strlen
	add	esp, 4
	test	eax, eax
	jne	SHORT $LN6@cmdCreateV

; 120  : 		pChatWindow->AddDebugMessage("Usage: /vehicle (vehicle id).");

	push	OFFSET ??_C@_0BO@PEECNCLG@Usage?3?5?1vehicle?5?$CIvehicle?5id?$CJ?4?$AA@
	mov	eax, DWORD PTR ?pChatWindow@@3PAVCChatWindow@@A ; pChatWindow
	push	eax
	call	?AddDebugMessage@CChatWindow@@QAAXPADZZ	; CChatWindow::AddDebugMessage
	add	esp, 8

; 121  : 		return;

	jmp	$LN8@cmdCreateV
$LN6@cmdCreateV:

; 122  : 	}	
; 123  : 	int iVehicleType = atoi(szCmd);

	mov	eax, DWORD PTR _szCmd$[ebp]
	push	eax
	call	_atoi
	add	esp, 4
	mov	DWORD PTR _iVehicleType$[ebp], eax

; 124  : 
; 125  : 	if((iVehicleType < 130) || (iVehicleType > 236))

	cmp	DWORD PTR _iVehicleType$[ebp], 130	; 00000082H
	jl	SHORT $LN4@cmdCreateV
	cmp	DWORD PTR _iVehicleType$[ebp], 236	; 000000ecH
	jle	SHORT $LN5@cmdCreateV
$LN4@cmdCreateV:

; 126  : 	{
; 127  : 		pChatWindow->AddDebugMessage("Invalid vehicle ID.");

	push	OFFSET ??_C@_0BE@LEOODAAI@Invalid?5vehicle?5ID?4?$AA@
	mov	eax, DWORD PTR ?pChatWindow@@3PAVCChatWindow@@A ; pChatWindow
	push	eax
	call	?AddDebugMessage@CChatWindow@@QAAXPADZZ	; CChatWindow::AddDebugMessage
	add	esp, 8

; 128  : 		return;

	jmp	$LN8@cmdCreateV
$LN5@cmdCreateV:

; 129  : 	}
; 130  : 
; 131  : 	pGame->RequestModel(iVehicleType);

	mov	eax, DWORD PTR _iVehicleType$[ebp]
	push	eax
	mov	ecx, DWORD PTR ?pGame@@3PAVCGame@@A	; pGame
	call	?RequestModel@CGame@@QAEXH@Z		; CGame::RequestModel

; 132  : 	pGame->LoadRequestedModels();

	mov	ecx, DWORD PTR ?pGame@@3PAVCGame@@A	; pGame
	call	?LoadRequestedModels@CGame@@QAEXXZ	; CGame::LoadRequestedModels
$LN3@cmdCreateV:

; 133  : 	while(pGame->IsModelLoaded(iVehicleType)==FALSE) Sleep(5);

	mov	eax, DWORD PTR _iVehicleType$[ebp]
	push	eax
	mov	ecx, DWORD PTR ?pGame@@3PAVCGame@@A	; pGame
	call	?IsModelLoaded@CGame@@QAEHH@Z		; CGame::IsModelLoaded
	test	eax, eax
	jne	SHORT $LN2@cmdCreateV
	mov	esi, esp
	push	5
	call	DWORD PTR __imp__Sleep@4
	cmp	esi, esp
	call	__RTC_CheckEsp
	jmp	SHORT $LN3@cmdCreateV
$LN2@cmdCreateV:

; 134  : 
; 135  : 	CPlayerPed *pPlayer = pGame->FindPlayerPed();

	mov	ecx, DWORD PTR ?pGame@@3PAVCGame@@A	; pGame
	call	?FindPlayerPed@CGame@@QAEPAVCPlayerPed@@XZ ; CGame::FindPlayerPed
	mov	DWORD PTR _pPlayer$[ebp], eax

; 136  : 
; 137  : 	if(pPlayer) 

	cmp	DWORD PTR _pPlayer$[ebp], 0
	je	SHORT $LN1@cmdCreateV

; 138  : 	{
; 139  : 		Vector3 vPos;

	lea	ecx, DWORD PTR _vPos$209309[ebp]
	call	??0Vector3@@QAE@XZ			; Vector3::Vector3

; 140  : 		pPlayer->GetPosition(&vPos);

	lea	eax, DWORD PTR _vPos$209309[ebp]
	push	eax
	mov	ecx, DWORD PTR _pPlayer$[ebp]
	call	?GetPosition@CEntity@@QAEXPAUVector3@@@Z ; CEntity::GetPosition

; 141  : 		CVehicle *pTestVehicle = pGame->NewVehicle(iVehicleType, (vPos.X - 5.0f), (vPos.Y - 5.0f), vPos.Z, 0.0f);

	push	ecx
	fldz
	fstp	DWORD PTR [esp]
	push	ecx
	fld	DWORD PTR _vPos$209309[ebp+8]
	fstp	DWORD PTR [esp]
	fld	DWORD PTR _vPos$209309[ebp+4]
	fsub	QWORD PTR __real@4014000000000000
	fstp	DWORD PTR tv155[ebp]
	fld	DWORD PTR tv155[ebp]
	push	ecx
	fstp	DWORD PTR [esp]
	fld	DWORD PTR _vPos$209309[ebp]
	fsub	QWORD PTR __real@4014000000000000
	fstp	DWORD PTR tv157[ebp]
	fld	DWORD PTR tv157[ebp]
	push	ecx
	fstp	DWORD PTR [esp]
	mov	eax, DWORD PTR _iVehicleType$[ebp]
	push	eax
	mov	ecx, DWORD PTR ?pGame@@3PAVCGame@@A	; pGame
	call	?NewVehicle@CGame@@QAEPAVCVehicle@@HMMMM@Z ; CGame::NewVehicle
	mov	DWORD PTR _pTestVehicle$209310[ebp], eax
$LN1@cmdCreateV:
$LN8@cmdCreateV:

; 142  : 	}
; 143  : }

	push	edx
	mov	ecx, ebp
	push	eax
	lea	edx, DWORD PTR $LN12@cmdCreateV
	call	@_RTC_CheckStackVars@8
	pop	eax
	pop	edx
	pop	edi
	pop	esi
	pop	ebx
	add	esp, 256				; 00000100H
	cmp	ebp, esp
	call	__RTC_CheckEsp
	mov	esp, ebp
	pop	ebp
	ret	0
	npad	1
$LN12@cmdCreateV:
	DD	1
	DD	$LN11@cmdCreateV
$LN11@cmdCreateV:
	DD	-40					; ffffffd8H
	DD	12					; 0000000cH
	DD	$LN10@cmdCreateV
$LN10@cmdCreateV:
	DB	118					; 00000076H
	DB	80					; 00000050H
	DB	111					; 0000006fH
	DB	115					; 00000073H
	DB	0
?cmdCreateVehicle@@YAXPAD@Z ENDP			; cmdCreateVehicle
_TEXT	ENDS
PUBLIC	??_C@_0CC@CIBLFHCO@Usage?3?5?1skin?5?$FLdefault?4ide?5number@ ; `string'
PUBLIC	?cmdSkin@@YAXPAD@Z				; cmdSkin
EXTRN	?SetModel@CPlayerPed@@QAEXH@Z:PROC		; CPlayerPed::SetModel
;	COMDAT ??_C@_0CC@CIBLFHCO@Usage?3?5?1skin?5?$FLdefault?4ide?5number@
CONST	SEGMENT
??_C@_0CC@CIBLFHCO@Usage?3?5?1skin?5?$FLdefault?4ide?5number@ DB 'Usage: '
	DB	'/skin [default.ide number]', 00H		; `string'
; Function compile flags: /Odtp /RTCsu /ZI
CONST	ENDS
;	COMDAT ?cmdSkin@@YAXPAD@Z
_TEXT	SEGMENT
_pPlayer$ = -20						; size = 4
_iPlayerSkin$ = -8					; size = 4
_szCmd$ = 8						; size = 4
?cmdSkin@@YAXPAD@Z PROC					; cmdSkin, COMDAT

; 148  : {

	push	ebp
	mov	ebp, esp
	sub	esp, 216				; 000000d8H
	push	ebx
	push	esi
	push	edi
	lea	edi, DWORD PTR [ebp-216]
	mov	ecx, 54					; 00000036H
	mov	eax, -858993460				; ccccccccH
	rep stosd

; 149  : 	if(!tSettings.bDebug) return;

	cmp	DWORD PTR ?tSettings@@3U_GAME_SETTINGS@@A, 0
	jne	SHORT $LN5@cmdSkin
	jmp	$LN6@cmdSkin
$LN5@cmdSkin:

; 150  : 
; 151  : 	if(!strlen(szCmd)){	

	mov	eax, DWORD PTR _szCmd$[ebp]
	push	eax
	call	_strlen
	add	esp, 4
	test	eax, eax
	jne	SHORT $LN4@cmdSkin

; 152  : 		pChatWindow->AddDebugMessage("Usage: /skin [default.ide number]");

	push	OFFSET ??_C@_0CC@CIBLFHCO@Usage?3?5?1skin?5?$FLdefault?4ide?5number@
	mov	eax, DWORD PTR ?pChatWindow@@3PAVCChatWindow@@A ; pChatWindow
	push	eax
	call	?AddDebugMessage@CChatWindow@@QAAXPADZZ	; CChatWindow::AddDebugMessage
	add	esp, 8

; 153  : 		return;

	jmp	SHORT $LN6@cmdSkin
$LN4@cmdSkin:

; 154  : 	}
; 155  : 	int iPlayerSkin = atoi(szCmd);

	mov	eax, DWORD PTR _szCmd$[ebp]
	push	eax
	call	_atoi
	add	esp, 4
	mov	DWORD PTR _iPlayerSkin$[ebp], eax

; 156  : 
; 157  : 	CPlayerPed *pPlayer = pGame->FindPlayerPed();

	mov	ecx, DWORD PTR ?pGame@@3PAVCGame@@A	; pGame
	call	?FindPlayerPed@CGame@@QAEPAVCPlayerPed@@XZ ; CGame::FindPlayerPed
	mov	DWORD PTR _pPlayer$[ebp], eax

; 158  : 
; 159  : 	if(pPlayer)

	cmp	DWORD PTR _pPlayer$[ebp], 0
	je	SHORT $LN6@cmdSkin

; 160  : 	{
; 161  : 		pGame->RequestModel(iPlayerSkin);

	mov	eax, DWORD PTR _iPlayerSkin$[ebp]
	push	eax
	mov	ecx, DWORD PTR ?pGame@@3PAVCGame@@A	; pGame
	call	?RequestModel@CGame@@QAEXH@Z		; CGame::RequestModel

; 162  : 		pGame->LoadRequestedModels();

	mov	ecx, DWORD PTR ?pGame@@3PAVCGame@@A	; pGame
	call	?LoadRequestedModels@CGame@@QAEXXZ	; CGame::LoadRequestedModels
$LN2@cmdSkin:

; 163  : 		while(pGame->IsModelLoaded(iPlayerSkin)==FALSE) Sleep(2);

	mov	eax, DWORD PTR _iPlayerSkin$[ebp]
	push	eax
	mov	ecx, DWORD PTR ?pGame@@3PAVCGame@@A	; pGame
	call	?IsModelLoaded@CGame@@QAEHH@Z		; CGame::IsModelLoaded
	test	eax, eax
	jne	SHORT $LN1@cmdSkin
	mov	esi, esp
	push	2
	call	DWORD PTR __imp__Sleep@4
	cmp	esi, esp
	call	__RTC_CheckEsp
	jmp	SHORT $LN2@cmdSkin
$LN1@cmdSkin:

; 164  : 		pPlayer->SetModel(iPlayerSkin);

	mov	eax, DWORD PTR _iPlayerSkin$[ebp]
	push	eax
	mov	ecx, DWORD PTR _pPlayer$[ebp]
	call	?SetModel@CPlayerPed@@QAEXH@Z		; CPlayerPed::SetModel
$LN6@cmdSkin:

; 165  : 	}
; 166  : }

	pop	edi
	pop	esi
	pop	ebx
	add	esp, 216				; 000000d8H
	cmp	ebp, esp
	call	__RTC_CheckEsp
	mov	esp, ebp
	pop	ebp
	ret	0
?cmdSkin@@YAXPAD@Z ENDP					; cmdSkin
_TEXT	ENDS
PUBLIC	?GetCamera@CGame@@QAEPAVCCamera@@XZ		; CGame::GetCamera
PUBLIC	?cmdBuild@@YAXPAD@Z				; cmdBuild
EXTRN	?DisplayHud@CGame@@QAEXH@Z:PROC			; CGame::DisplayHud
EXTRN	?Restore@CCamera@@QAEXXZ:PROC			; CCamera::Restore
; Function compile flags: /Odtp /RTCsu /ZI
;	COMDAT ?cmdBuild@@YAXPAD@Z
_TEXT	SEGMENT
_pGameCamera$ = -8					; size = 4
_szCmd$ = 8						; size = 4
?cmdBuild@@YAXPAD@Z PROC				; cmdBuild, COMDAT

; 171  : {

	push	ebp
	mov	ebp, esp
	sub	esp, 204				; 000000ccH
	push	ebx
	push	esi
	push	edi
	lea	edi, DWORD PTR [ebp-204]
	mov	ecx, 51					; 00000033H
	mov	eax, -858993460				; ccccccccH
	rep stosd

; 172  : 	if(!tSettings.bDebug) return;

	cmp	DWORD PTR ?tSettings@@3U_GAME_SETTINGS@@A, 0
	jne	SHORT $LN1@cmdBuild
	jmp	SHORT $LN2@cmdBuild
$LN1@cmdBuild:

; 173  : 
; 174  : 	CCamera * pGameCamera = pGame->GetCamera();

	mov	ecx, DWORD PTR ?pGame@@3PAVCGame@@A	; pGame
	call	?GetCamera@CGame@@QAEPAVCCamera@@XZ	; CGame::GetCamera
	mov	DWORD PTR _pGameCamera$[ebp], eax

; 175  : 	pGameCamera->Restore();

	mov	ecx, DWORD PTR _pGameCamera$[ebp]
	call	?Restore@CCamera@@QAEXXZ		; CCamera::Restore

; 176  : 	pGame->DisplayHud(TRUE);

	push	1
	mov	ecx, DWORD PTR ?pGame@@3PAVCGame@@A	; pGame
	call	?DisplayHud@CGame@@QAEXH@Z		; CGame::DisplayHud
$LN2@cmdBuild:

; 177  : }

	pop	edi
	pop	esi
	pop	ebx
	add	esp, 204				; 000000ccH
	cmp	ebp, esp
	call	__RTC_CheckEsp
	mov	esp, ebp
	pop	ebp
	ret	0
?cmdBuild@@YAXPAD@Z ENDP				; cmdBuild
_TEXT	ENDS
PUBLIC	?GetRPC4@CNetworkManager@@QAEPAVRPC4@RakNet@@XZ	; CNetworkManager::GetRPC4
PUBLIC	??_C@_05JDLPMPEA@Admin?$AA@			; `string'
PUBLIC	??0AddressOrGUID@RakNet@@QAE@ABUSystemAddress@1@@Z ; RakNet::AddressOrGUID::AddressOrGUID
PUBLIC	??$Write@H@BitStream@RakNet@@QAEXABH@Z		; RakNet::BitStream::Write<int>
PUBLIC	__$ArrayPad$
PUBLIC	?cmdAdmin@@YAXPAD@Z				; cmdAdmin
EXTRN	?Call@RPC4@RakNet@@QAEXPBDPAVBitStream@2@W4PacketPriority@@W4PacketReliability@@DUAddressOrGUID@2@_N@Z:PROC ; RakNet::RPC4::Call
EXTRN	?Write@BitStream@RakNet@@QAEXPBDI@Z:PROC	; RakNet::BitStream::Write
EXTRN	??1BitStream@RakNet@@QAE@XZ:PROC		; RakNet::BitStream::~BitStream
EXTRN	??0BitStream@RakNet@@QAE@XZ:PROC		; RakNet::BitStream::BitStream
EXTRN	___security_cookie:DWORD
EXTRN	___CxxFrameHandler3:PROC
EXTRN	@__security_check_cookie@4:PROC
;	COMDAT ??_C@_05JDLPMPEA@Admin?$AA@
CONST	SEGMENT
??_C@_05JDLPMPEA@Admin?$AA@ DB 'Admin', 00H		; `string'
CONST	ENDS
;	COMDAT xdata$x
xdata$x	SEGMENT
__unwindtable$?cmdAdmin@@YAXPAD@Z DD 0ffffffffH
	DD	FLAT:__unwindfunclet$?cmdAdmin@@YAXPAD@Z$0
__ehfuncinfo$?cmdAdmin@@YAXPAD@Z DD 019930522H
	DD	01H
	DD	FLAT:__unwindtable$?cmdAdmin@@YAXPAD@Z
	DD	2 DUP(00H)
	DD	2 DUP(00H)
	DD	00H
	DD	01H
; Function compile flags: /Odtp /RTCsu /ZI
xdata$x	ENDS
;	COMDAT ?cmdAdmin@@YAXPAD@Z
_TEXT	SEGMENT
$T209536 = -512						; size = 4
_bsSend$ = -308						; size = 276
_iPassLen$ = -24					; size = 4
__$ArrayPad$ = -16					; size = 4
__$EHRec$ = -12						; size = 12
_szCmd$ = 8						; size = 4
?cmdAdmin@@YAXPAD@Z PROC				; cmdAdmin, COMDAT

; 182  : {

	push	ebp
	mov	ebp, esp
	push	-1
	push	__ehhandler$?cmdAdmin@@YAXPAD@Z
	mov	eax, DWORD PTR fs:0
	push	eax
	sub	esp, 504				; 000001f8H
	push	ebx
	push	esi
	push	edi
	lea	edi, DWORD PTR [ebp-516]
	mov	ecx, 126				; 0000007eH
	mov	eax, -858993460				; ccccccccH
	rep stosd
	mov	eax, DWORD PTR ___security_cookie
	xor	eax, ebp
	mov	DWORD PTR __$ArrayPad$[ebp], eax
	push	eax
	lea	eax, DWORD PTR __$EHRec$[ebp]
	mov	DWORD PTR fs:0, eax

; 183  : 	int iPassLen=0;

	mov	DWORD PTR _iPassLen$[ebp], 0

; 184  : 	RakNet::BitStream bsSend;

	lea	ecx, DWORD PTR _bsSend$[ebp]
	call	??0BitStream@RakNet@@QAE@XZ		; RakNet::BitStream::BitStream
	mov	DWORD PTR __$EHRec$[ebp+8], 0

; 185  : 
; 186  : 	if(pNetowkManager) {

	cmp	DWORD PTR ?pNetowkManager@@3PAVCNetworkManager@@A, 0 ; pNetowkManager
	je	$LN2@cmdAdmin

; 187  : 		iPassLen = strlen(szCmd);

	mov	eax, DWORD PTR _szCmd$[ebp]
	push	eax
	call	_strlen
	add	esp, 4
	mov	DWORD PTR _iPassLen$[ebp], eax

; 188  : 		if(iPassLen > 64) return;

	cmp	DWORD PTR _iPassLen$[ebp], 64		; 00000040H
	jle	SHORT $LN1@cmdAdmin
	mov	DWORD PTR __$EHRec$[ebp+8], -1
	lea	ecx, DWORD PTR _bsSend$[ebp]
	call	??1BitStream@RakNet@@QAE@XZ		; RakNet::BitStream::~BitStream
	jmp	SHORT $LN3@cmdAdmin
$LN1@cmdAdmin:

; 189  : 		bsSend.Write(iPassLen);

	lea	eax, DWORD PTR _iPassLen$[ebp]
	push	eax
	lea	ecx, DWORD PTR _bsSend$[ebp]
	call	??$Write@H@BitStream@RakNet@@QAEXABH@Z	; RakNet::BitStream::Write<int>

; 190  : 		bsSend.Write(szCmd,iPassLen);

	mov	eax, DWORD PTR _iPassLen$[ebp]
	push	eax
	mov	ecx, DWORD PTR _szCmd$[ebp]
	push	ecx
	lea	ecx, DWORD PTR _bsSend$[ebp]
	call	?Write@BitStream@RakNet@@QAEXPBDI@Z	; RakNet::BitStream::Write

; 191  : 		pNetowkManager->GetRPC4()->Call("Admin",&bsSend,HIGH_PRIORITY,RELIABLE,0,UNASSIGNED_SYSTEM_ADDRESS,TRUE);

	push	1
	sub	esp, 24					; 00000018H
	mov	ecx, esp
	mov	DWORD PTR $T209536[ebp], esp
	push	OFFSET _UNASSIGNED_SYSTEM_ADDRESS
	call	??0AddressOrGUID@RakNet@@QAE@ABUSystemAddress@1@@Z ; RakNet::AddressOrGUID::AddressOrGUID
	push	0
	push	2
	push	1
	lea	eax, DWORD PTR _bsSend$[ebp]
	push	eax
	push	OFFSET ??_C@_05JDLPMPEA@Admin?$AA@
	mov	ecx, DWORD PTR ?pNetowkManager@@3PAVCNetworkManager@@A ; pNetowkManager
	call	?GetRPC4@CNetworkManager@@QAEPAVRPC4@RakNet@@XZ ; CNetworkManager::GetRPC4
	mov	ecx, eax
	call	?Call@RPC4@RakNet@@QAEXPBDPAVBitStream@2@W4PacketPriority@@W4PacketReliability@@DUAddressOrGUID@2@_N@Z ; RakNet::RPC4::Call
$LN2@cmdAdmin:

; 192  : 	}
; 193  : }

	mov	DWORD PTR __$EHRec$[ebp+8], -1
	lea	ecx, DWORD PTR _bsSend$[ebp]
	call	??1BitStream@RakNet@@QAE@XZ		; RakNet::BitStream::~BitStream
$LN3@cmdAdmin:
	push	edx
	mov	ecx, ebp
	push	eax
	lea	edx, DWORD PTR $LN10@cmdAdmin
	call	@_RTC_CheckStackVars@8
	pop	eax
	pop	edx
	mov	ecx, DWORD PTR __$EHRec$[ebp]
	mov	DWORD PTR fs:0, ecx
	pop	ecx
	pop	edi
	pop	esi
	pop	ebx
	mov	ecx, DWORD PTR __$ArrayPad$[ebp]
	xor	ecx, ebp
	call	@__security_check_cookie@4
	add	esp, 516				; 00000204H
	cmp	ebp, esp
	call	__RTC_CheckEsp
	mov	esp, ebp
	pop	ebp
	ret	0
$LN10@cmdAdmin:
	DD	2
	DD	$LN9@cmdAdmin
$LN9@cmdAdmin:
	DD	-24					; ffffffe8H
	DD	4
	DD	$LN6@cmdAdmin
	DD	-308					; fffffeccH
	DD	276					; 00000114H
	DD	$LN7@cmdAdmin
$LN7@cmdAdmin:
	DB	98					; 00000062H
	DB	115					; 00000073H
	DB	83					; 00000053H
	DB	101					; 00000065H
	DB	110					; 0000006eH
	DB	100					; 00000064H
	DB	0
$LN6@cmdAdmin:
	DB	105					; 00000069H
	DB	80					; 00000050H
	DB	97					; 00000061H
	DB	115					; 00000073H
	DB	115					; 00000073H
	DB	76					; 0000004cH
	DB	101					; 00000065H
	DB	110					; 0000006eH
	DB	0
_TEXT	ENDS
;	COMDAT text$x
text$x	SEGMENT
__unwindfunclet$?cmdAdmin@@YAXPAD@Z$0:
	lea	ecx, DWORD PTR _bsSend$[ebp]
	jmp	??1BitStream@RakNet@@QAE@XZ		; RakNet::BitStream::~BitStream
__ehhandler$?cmdAdmin@@YAXPAD@Z:
	mov	edx, DWORD PTR [esp+8]
	lea	eax, DWORD PTR [edx+12]
	mov	ecx, DWORD PTR [edx-520]
	xor	ecx, eax
	call	@__security_check_cookie@4
	mov	ecx, DWORD PTR [edx-4]
	xor	ecx, eax
	call	@__security_check_cookie@4
	mov	eax, OFFSET __ehfuncinfo$?cmdAdmin@@YAXPAD@Z
	jmp	___CxxFrameHandler3
text$x	ENDS
?cmdAdmin@@YAXPAD@Z ENDP				; cmdAdmin
PUBLIC	??_C@_0M@CDHNGIPM@?$CFu?4?$CFu?4?$CFu?4?$CFu?$AA@ ; `string'
PUBLIC	?IP2String@@YAXKPAD@Z				; IP2String
EXTRN	_sprintf:PROC
;	COMDAT ??_C@_0M@CDHNGIPM@?$CFu?4?$CFu?4?$CFu?4?$CFu?$AA@
CONST	SEGMENT
??_C@_0M@CDHNGIPM@?$CFu?4?$CFu?4?$CFu?4?$CFu?$AA@ DB '%u.%u.%u.%u', 00H ; `string'
; Function compile flags: /Odtp /RTCsu /ZI
CONST	ENDS
;	COMDAT ?IP2String@@YAXKPAD@Z
_TEXT	SEGMENT
_p$ = -8						; size = 4
_ip$ = 8						; size = 4
_ret$ = 12						; size = 4
?IP2String@@YAXKPAD@Z PROC				; IP2String, COMDAT

; 198  : {

	push	ebp
	mov	ebp, esp
	sub	esp, 204				; 000000ccH
	push	ebx
	push	esi
	push	edi
	lea	edi, DWORD PTR [ebp-204]
	mov	ecx, 51					; 00000033H
	mov	eax, -858993460				; ccccccccH
	rep stosd

; 199  : 	BYTE p[4];
; 200  : 
; 201  : 	p[0] = (BYTE)(ip & 0xFF); ip >>= 8;

	mov	eax, DWORD PTR _ip$[ebp]
	and	eax, 255				; 000000ffH
	mov	BYTE PTR _p$[ebp], al
	mov	eax, DWORD PTR _ip$[ebp]
	shr	eax, 8
	mov	DWORD PTR _ip$[ebp], eax

; 202  : 	p[1] = (BYTE)(ip & 0xFF); ip >>= 8;	

	mov	eax, DWORD PTR _ip$[ebp]
	and	eax, 255				; 000000ffH
	mov	BYTE PTR _p$[ebp+1], al
	mov	eax, DWORD PTR _ip$[ebp]
	shr	eax, 8
	mov	DWORD PTR _ip$[ebp], eax

; 203  : 	p[2] = (BYTE)(ip & 0xFF); ip >>= 8;

	mov	eax, DWORD PTR _ip$[ebp]
	and	eax, 255				; 000000ffH
	mov	BYTE PTR _p$[ebp+2], al
	mov	eax, DWORD PTR _ip$[ebp]
	shr	eax, 8
	mov	DWORD PTR _ip$[ebp], eax

; 204  : 	p[3] = (BYTE)(ip & 0xFF);

	mov	eax, DWORD PTR _ip$[ebp]
	and	eax, 255				; 000000ffH
	mov	BYTE PTR _p$[ebp+3], al

; 205  : 
; 206  : 	sprintf(ret,"%u.%u.%u.%u",p[0],p[1],p[2],p[3]);

	movzx	eax, BYTE PTR _p$[ebp+3]
	push	eax
	movzx	ecx, BYTE PTR _p$[ebp+2]
	push	ecx
	movzx	edx, BYTE PTR _p$[ebp+1]
	push	edx
	movzx	eax, BYTE PTR _p$[ebp]
	push	eax
	push	OFFSET ??_C@_0M@CDHNGIPM@?$CFu?4?$CFu?4?$CFu?4?$CFu?$AA@
	mov	ecx, DWORD PTR _ret$[ebp]
	push	ecx
	call	_sprintf
	add	esp, 24					; 00000018H

; 207  : }

	push	edx
	mov	ecx, ebp
	push	eax
	lea	edx, DWORD PTR $LN5@IP2String
	call	@_RTC_CheckStackVars@8
	pop	eax
	pop	edx
	pop	edi
	pop	esi
	pop	ebx
	add	esp, 204				; 000000ccH
	cmp	ebp, esp
	call	__RTC_CheckEsp
	mov	esp, ebp
	pop	ebp
	ret	0
	npad	1
$LN5@IP2String:
	DD	1
	DD	$LN4@IP2String
$LN4@IP2String:
	DD	-8					; fffffff8H
	DD	4
	DD	$LN3@IP2String
$LN3@IP2String:
	DB	112					; 00000070H
	DB	0
?IP2String@@YAXKPAD@Z ENDP				; IP2String
_TEXT	ENDS
PUBLIC	??_C@_0CJ@HCIBHEPL@That?5player?5doesn?8t?5appear?5to?5be@ ; `string'
PUBLIC	??_C@_09GHPGBFCF@?$CFs?5is?3?5?$CFs?$AA@	; `string'
PUBLIC	?GetPlayerName@CPlayerManager@@QAEPADE@Z	; CPlayerManager::GetPlayerName
PUBLIC	?GetIPAddress@CPlayerManager@@QAEKE@Z		; CPlayerManager::GetIPAddress
PUBLIC	?GetSlotState@CPlayerManager@@QAEHE@Z		; CPlayerManager::GetSlotState
PUBLIC	??_C@_02GMHACPFF@?$CFu?$AA@			; `string'
PUBLIC	??_C@_0BK@JCIGDILK@Usage?3?5?1getip?5?$FLplayer_id?$FN?$AA@ ; `string'
PUBLIC	__$ArrayPad$
PUBLIC	?cmdGetIP@@YAXPAD@Z				; cmdGetIP
EXTRN	_sscanf:PROC
;	COMDAT ??_C@_0CJ@HCIBHEPL@That?5player?5doesn?8t?5appear?5to?5be@
CONST	SEGMENT
??_C@_0CJ@HCIBHEPL@That?5player?5doesn?8t?5appear?5to?5be@ DB 'That playe'
	DB	'r doesn''t appear to be active.', 00H	; `string'
CONST	ENDS
;	COMDAT ??_C@_09GHPGBFCF@?$CFs?5is?3?5?$CFs?$AA@
CONST	SEGMENT
??_C@_09GHPGBFCF@?$CFs?5is?3?5?$CFs?$AA@ DB '%s is: %s', 00H ; `string'
CONST	ENDS
;	COMDAT ??_C@_02GMHACPFF@?$CFu?$AA@
CONST	SEGMENT
??_C@_02GMHACPFF@?$CFu?$AA@ DB '%u', 00H		; `string'
CONST	ENDS
;	COMDAT ??_C@_0BK@JCIGDILK@Usage?3?5?1getip?5?$FLplayer_id?$FN?$AA@
CONST	SEGMENT
??_C@_0BK@JCIGDILK@Usage?3?5?1getip?5?$FLplayer_id?$FN?$AA@ DB 'Usage: /g'
	DB	'etip [player_id]', 00H			; `string'
; Function compile flags: /Odtp /RTCsu /ZI
CONST	ENDS
;	COMDAT ?cmdGetIP@@YAXPAD@Z
_TEXT	SEGMENT
_ip$209361 = -76					; size = 4
_ret$209360 = -64					; size = 30
_pPlayerManager$209358 = -24				; size = 4
_playerID$ = -9						; size = 1
__$ArrayPad$ = -4					; size = 4
_szCmd$ = 8						; size = 4
?cmdGetIP@@YAXPAD@Z PROC				; cmdGetIP, COMDAT

; 212  : {

	push	ebp
	mov	ebp, esp
	sub	esp, 272				; 00000110H
	push	ebx
	push	esi
	push	edi
	lea	edi, DWORD PTR [ebp-272]
	mov	ecx, 68					; 00000044H
	mov	eax, -858993460				; ccccccccH
	rep stosd
	mov	eax, DWORD PTR ___security_cookie
	xor	eax, ebp
	mov	DWORD PTR __$ArrayPad$[ebp], eax

; 213  : 	if(!strlen(szCmd)) {

	mov	eax, DWORD PTR _szCmd$[ebp]
	push	eax
	call	_strlen
	add	esp, 4
	test	eax, eax
	jne	SHORT $LN4@cmdGetIP

; 214  : 	    pChatWindow->AddDebugMessage("Usage: /getip [player_id]");

	push	OFFSET ??_C@_0BK@JCIGDILK@Usage?3?5?1getip?5?$FLplayer_id?$FN?$AA@
	mov	eax, DWORD PTR ?pChatWindow@@3PAVCChatWindow@@A ; pChatWindow
	push	eax
	call	?AddDebugMessage@CChatWindow@@QAAXPADZZ	; CChatWindow::AddDebugMessage
	add	esp, 8

; 215  : 		return;

	jmp	$LN5@cmdGetIP
$LN4@cmdGetIP:

; 216  : 	}
; 217  : 
; 218  : 	EntityId playerID;
; 219  : 	sscanf(szCmd,"%u",&playerID);

	lea	eax, DWORD PTR _playerID$[ebp]
	push	eax
	push	OFFSET ??_C@_02GMHACPFF@?$CFu?$AA@
	mov	ecx, DWORD PTR _szCmd$[ebp]
	push	ecx
	call	_sscanf
	add	esp, 12					; 0000000cH

; 220  : 	
; 221  : 	if(pNetowkManager) {

	cmp	DWORD PTR ?pNetowkManager@@3PAVCNetworkManager@@A, 0 ; pNetowkManager
	je	SHORT $LN5@cmdGetIP

; 222  : 		CPlayerManager *pPlayerManager = pNetowkManager->GetPlayerManager();

	mov	ecx, DWORD PTR ?pNetowkManager@@3PAVCNetworkManager@@A ; pNetowkManager
	call	?GetPlayerManager@CNetworkManager@@QAEPAVCPlayerManager@@XZ ; CNetworkManager::GetPlayerManager
	mov	DWORD PTR _pPlayerManager$209358[ebp], eax

; 223  : 		if(pPlayerManager->GetSlotState(playerID)) {

	movzx	eax, BYTE PTR _playerID$[ebp]
	push	eax
	mov	ecx, DWORD PTR _pPlayerManager$209358[ebp]
	call	?GetSlotState@CPlayerManager@@QAEHE@Z	; CPlayerManager::GetSlotState
	test	eax, eax
	je	SHORT $LN2@cmdGetIP

; 224  : 
; 225  : 			char ret[30];
; 226  : 			DWORD ip = pPlayerManager->GetIPAddress(playerID);

	movzx	eax, BYTE PTR _playerID$[ebp]
	push	eax
	mov	ecx, DWORD PTR _pPlayerManager$209358[ebp]
	call	?GetIPAddress@CPlayerManager@@QAEKE@Z	; CPlayerManager::GetIPAddress
	mov	DWORD PTR _ip$209361[ebp], eax

; 227  : 			IP2String(ip,ret);

	lea	eax, DWORD PTR _ret$209360[ebp]
	push	eax
	mov	ecx, DWORD PTR _ip$209361[ebp]
	push	ecx
	call	?IP2String@@YAXKPAD@Z			; IP2String
	add	esp, 8

; 228  : 			pChatWindow->AddDebugMessage("%s is: %s",
; 229  : 				pPlayerManager->GetPlayerName(playerID),ret);

	lea	eax, DWORD PTR _ret$209360[ebp]
	push	eax
	movzx	ecx, BYTE PTR _playerID$[ebp]
	push	ecx
	mov	ecx, DWORD PTR _pPlayerManager$209358[ebp]
	call	?GetPlayerName@CPlayerManager@@QAEPADE@Z ; CPlayerManager::GetPlayerName
	push	eax
	push	OFFSET ??_C@_09GHPGBFCF@?$CFs?5is?3?5?$CFs?$AA@
	mov	edx, DWORD PTR ?pChatWindow@@3PAVCChatWindow@@A ; pChatWindow
	push	edx
	call	?AddDebugMessage@CChatWindow@@QAAXPADZZ	; CChatWindow::AddDebugMessage
	add	esp, 16					; 00000010H

; 230  : 
; 231  : 		} else {

	jmp	SHORT $LN5@cmdGetIP
$LN2@cmdGetIP:

; 232  : 			pChatWindow->AddDebugMessage("That player doesn't appear to be active.");

	push	OFFSET ??_C@_0CJ@HCIBHEPL@That?5player?5doesn?8t?5appear?5to?5be@
	mov	eax, DWORD PTR ?pChatWindow@@3PAVCChatWindow@@A ; pChatWindow
	push	eax
	call	?AddDebugMessage@CChatWindow@@QAAXPADZZ	; CChatWindow::AddDebugMessage
	add	esp, 8
$LN5@cmdGetIP:

; 233  : 		}
; 234  : 	}
; 235  : }

	push	edx
	mov	ecx, ebp
	push	eax
	lea	edx, DWORD PTR $LN10@cmdGetIP
	call	@_RTC_CheckStackVars@8
	pop	eax
	pop	edx
	pop	edi
	pop	esi
	pop	ebx
	mov	ecx, DWORD PTR __$ArrayPad$[ebp]
	xor	ecx, ebp
	call	@__security_check_cookie@4
	add	esp, 272				; 00000110H
	cmp	ebp, esp
	call	__RTC_CheckEsp
	mov	esp, ebp
	pop	ebp
	ret	0
	npad	1
$LN10@cmdGetIP:
	DD	2
	DD	$LN9@cmdGetIP
$LN9@cmdGetIP:
	DD	-9					; fffffff7H
	DD	1
	DD	$LN7@cmdGetIP
	DD	-64					; ffffffc0H
	DD	30					; 0000001eH
	DD	$LN8@cmdGetIP
$LN8@cmdGetIP:
	DB	114					; 00000072H
	DB	101					; 00000065H
	DB	116					; 00000074H
	DB	0
$LN7@cmdGetIP:
	DB	112					; 00000070H
	DB	108					; 0000006cH
	DB	97					; 00000061H
	DB	121					; 00000079H
	DB	101					; 00000065H
	DB	114					; 00000072H
	DB	73					; 00000049H
	DB	68					; 00000044H
	DB	0
?cmdGetIP@@YAXPAD@Z ENDP				; cmdGetIP
_TEXT	ENDS
PUBLIC	?cmdGenComp@@YAXPAD@Z				; cmdGenComp
; Function compile flags: /Odtp /RTCsu /ZI
;	COMDAT ?cmdGenComp@@YAXPAD@Z
_TEXT	SEGMENT
_szCmd$ = 8						; size = 4
?cmdGenComp@@YAXPAD@Z PROC				; cmdGenComp, COMDAT

; 240  : {

	push	ebp
	mov	ebp, esp
	sub	esp, 192				; 000000c0H
	push	ebx
	push	esi
	push	edi
	lea	edi, DWORD PTR [ebp-192]
	mov	ecx, 48					; 00000030H
	mov	eax, -858993460				; ccccccccH
	rep stosd

; 241  : 
; 242  : }

	pop	edi
	pop	esi
	pop	ebx
	mov	esp, ebp
	pop	ebp
	ret	0
?cmdGenComp@@YAXPAD@Z ENDP				; cmdGenComp
_TEXT	ENDS
PUBLIC	?SetReportedArmour@CRemotePlayer@@QAEXE@Z	; CRemotePlayer::SetReportedArmour
PUBLIC	?SetReportedHealth@CRemotePlayer@@QAEXE@Z	; CRemotePlayer::SetReportedHealth
PUBLIC	?GetAt@CPlayerManager@@QAEPAVCRemotePlayer@@E@Z	; CPlayerManager::GetAt
PUBLIC	??_C@_04FAGDODHI@jaja?$AA@			; `string'
PUBLIC	?cmdNewPlayer@@YAXPAD@Z				; cmdNewPlayer
EXTRN	?SpawnPlayer@CRemotePlayer@@QAEHEEPAUVector3@@MHHHHHH@Z:PROC ; CRemotePlayer::SpawnPlayer
EXTRN	?GetModelIndex@CEntity@@QAEGXZ:PROC		; CEntity::GetModelIndex
EXTRN	?New@CPlayerManager@@QAEHEPAD@Z:PROC		; CPlayerManager::New
;	COMDAT ??_C@_04FAGDODHI@jaja?$AA@
CONST	SEGMENT
??_C@_04FAGDODHI@jaja?$AA@ DB 'jaja', 00H		; `string'
; Function compile flags: /Odtp /RTCsu /ZI
CONST	ENDS
;	COMDAT ?cmdNewPlayer@@YAXPAD@Z
_TEXT	SEGMENT
_fRotation$ = -76					; size = 4
_vPos$ = -64						; size = 12
_byteSkin$ = -41					; size = 1
_pPlayerPed$ = -32					; size = 4
_pRemotePlayer$ = -20					; size = 4
_pPlayerManager$ = -8					; size = 4
_szCmd$ = 8						; size = 4
?cmdNewPlayer@@YAXPAD@Z PROC				; cmdNewPlayer, COMDAT

; 247  : {

	push	ebp
	mov	ebp, esp
	sub	esp, 272				; 00000110H
	push	ebx
	push	esi
	push	edi
	lea	edi, DWORD PTR [ebp-272]
	mov	ecx, 68					; 00000044H
	mov	eax, -858993460				; ccccccccH
	rep stosd

; 248  : 	CPlayerManager *pPlayerManager = pNetowkManager->GetPlayerManager();

	mov	ecx, DWORD PTR ?pNetowkManager@@3PAVCNetworkManager@@A ; pNetowkManager
	call	?GetPlayerManager@CNetworkManager@@QAEPAVCPlayerManager@@XZ ; CNetworkManager::GetPlayerManager
	mov	DWORD PTR _pPlayerManager$[ebp], eax

; 249  : 	pPlayerManager->New(1, "jaja");

	push	OFFSET ??_C@_04FAGDODHI@jaja?$AA@
	push	1
	mov	ecx, DWORD PTR _pPlayerManager$[ebp]
	call	?New@CPlayerManager@@QAEHEPAD@Z		; CPlayerManager::New

; 250  : 	CRemotePlayer *pRemotePlayer = pPlayerManager->GetAt(1);

	push	1
	mov	ecx, DWORD PTR _pPlayerManager$[ebp]
	call	?GetAt@CPlayerManager@@QAEPAVCRemotePlayer@@E@Z ; CPlayerManager::GetAt
	mov	DWORD PTR _pRemotePlayer$[ebp], eax

; 251  : 	CPlayerPed *pPlayerPed = pGame->FindPlayerPed();

	mov	ecx, DWORD PTR ?pGame@@3PAVCGame@@A	; pGame
	call	?FindPlayerPed@CGame@@QAEPAVCPlayerPed@@XZ ; CGame::FindPlayerPed
	mov	DWORD PTR _pPlayerPed$[ebp], eax

; 252  : 	BYTE byteSkin = (BYTE)pPlayerPed->GetModelIndex();

	mov	ecx, DWORD PTR _pPlayerPed$[ebp]
	call	?GetModelIndex@CEntity@@QAEGXZ		; CEntity::GetModelIndex
	mov	BYTE PTR _byteSkin$[ebp], al

; 253  : 	Vector3 vPos;

	lea	ecx, DWORD PTR _vPos$[ebp]
	call	??0Vector3@@QAE@XZ			; Vector3::Vector3

; 254  : 	pPlayerPed->GetPosition(&vPos);

	lea	eax, DWORD PTR _vPos$[ebp]
	push	eax
	mov	ecx, DWORD PTR _pPlayerPed$[ebp]
	call	?GetPosition@CEntity@@QAEXPAUVector3@@@Z ; CEntity::GetPosition

; 255  : 	float fRotation = pPlayerPed->GetRotation();

	mov	ecx, DWORD PTR _pPlayerPed$[ebp]
	call	?GetRotation@CPlayerPed@@QAEMXZ		; CPlayerPed::GetRotation
	fstp	DWORD PTR _fRotation$[ebp]

; 256  : 	pRemotePlayer->SpawnPlayer(255, byteSkin, &vPos, fRotation, 0,0, 0,0, 0,0);

	push	0
	push	0
	push	0
	push	0
	push	0
	push	0
	push	ecx
	fld	DWORD PTR _fRotation$[ebp]
	fstp	DWORD PTR [esp]
	lea	eax, DWORD PTR _vPos$[ebp]
	push	eax
	movzx	ecx, BYTE PTR _byteSkin$[ebp]
	push	ecx
	push	255					; 000000ffH
	mov	ecx, DWORD PTR _pRemotePlayer$[ebp]
	call	?SpawnPlayer@CRemotePlayer@@QAEHEEPAUVector3@@MHHHHHH@Z ; CRemotePlayer::SpawnPlayer

; 257  : 	pRemotePlayer->SetReportedHealth(100);

	push	100					; 00000064H
	mov	ecx, DWORD PTR _pRemotePlayer$[ebp]
	call	?SetReportedHealth@CRemotePlayer@@QAEXE@Z ; CRemotePlayer::SetReportedHealth

; 258  : 	pRemotePlayer->SetReportedArmour(100);

	push	100					; 00000064H
	mov	ecx, DWORD PTR _pRemotePlayer$[ebp]
	call	?SetReportedArmour@CRemotePlayer@@QAEXE@Z ; CRemotePlayer::SetReportedArmour

; 259  : }

	push	edx
	mov	ecx, ebp
	push	eax
	lea	edx, DWORD PTR $LN5@cmdNewPlay
	call	@_RTC_CheckStackVars@8
	pop	eax
	pop	edx
	pop	edi
	pop	esi
	pop	ebx
	add	esp, 272				; 00000110H
	cmp	ebp, esp
	call	__RTC_CheckEsp
	mov	esp, ebp
	pop	ebp
	ret	0
	npad	2
$LN5@cmdNewPlay:
	DD	1
	DD	$LN4@cmdNewPlay
$LN4@cmdNewPlay:
	DD	-64					; ffffffc0H
	DD	12					; 0000000cH
	DD	$LN3@cmdNewPlay
$LN3@cmdNewPlay:
	DB	118					; 00000076H
	DB	80					; 00000050H
	DB	111					; 0000006fH
	DB	115					; 00000073H
	DB	0
?cmdNewPlayer@@YAXPAD@Z ENDP				; cmdNewPlayer
_TEXT	ENDS
PUBLIC	??_C@_0BK@EJKCIMEM@You?5are?5NOT?5in?5a?5vehicle?4?$AA@ ; `string'
PUBLIC	??_C@_0BG@HCPJALGB@You?5are?5in?5a?5vehicle?4?$AA@ ; `string'
PUBLIC	?cmdIsVehicle@@YAXPAD@Z				; cmdIsVehicle
;	COMDAT ??_C@_0BK@EJKCIMEM@You?5are?5NOT?5in?5a?5vehicle?4?$AA@
CONST	SEGMENT
??_C@_0BK@EJKCIMEM@You?5are?5NOT?5in?5a?5vehicle?4?$AA@ DB 'You are NOT i'
	DB	'n a vehicle.', 00H				; `string'
CONST	ENDS
;	COMDAT ??_C@_0BG@HCPJALGB@You?5are?5in?5a?5vehicle?4?$AA@
CONST	SEGMENT
??_C@_0BG@HCPJALGB@You?5are?5in?5a?5vehicle?4?$AA@ DB 'You are in a vehic'
	DB	'le.', 00H					; `string'
; Function compile flags: /Odtp /RTCsu /ZI
CONST	ENDS
;	COMDAT ?cmdIsVehicle@@YAXPAD@Z
_TEXT	SEGMENT
_szCmd$ = 8						; size = 4
?cmdIsVehicle@@YAXPAD@Z PROC				; cmdIsVehicle, COMDAT

; 264  : {

	push	ebp
	mov	ebp, esp
	sub	esp, 192				; 000000c0H
	push	ebx
	push	esi
	push	edi
	lea	edi, DWORD PTR [ebp-192]
	mov	ecx, 48					; 00000030H
	mov	eax, -858993460				; ccccccccH
	rep stosd

; 265  : 	if(pGame->FindPlayerPed()->IsInVehicle()) pChatWindow->AddDebugMessage("You are in a vehicle.");

	mov	ecx, DWORD PTR ?pGame@@3PAVCGame@@A	; pGame
	call	?FindPlayerPed@CGame@@QAEPAVCPlayerPed@@XZ ; CGame::FindPlayerPed
	mov	ecx, eax
	call	?IsInVehicle@CPlayerPed@@QAEHXZ		; CPlayerPed::IsInVehicle
	test	eax, eax
	je	SHORT $LN2@cmdIsVehic
	push	OFFSET ??_C@_0BG@HCPJALGB@You?5are?5in?5a?5vehicle?4?$AA@
	mov	eax, DWORD PTR ?pChatWindow@@3PAVCChatWindow@@A ; pChatWindow
	push	eax
	call	?AddDebugMessage@CChatWindow@@QAAXPADZZ	; CChatWindow::AddDebugMessage
	add	esp, 8
	jmp	SHORT $LN3@cmdIsVehic
$LN2@cmdIsVehic:

; 266  : 	else pChatWindow->AddDebugMessage("You are NOT in a vehicle.");

	push	OFFSET ??_C@_0BK@EJKCIMEM@You?5are?5NOT?5in?5a?5vehicle?4?$AA@
	mov	eax, DWORD PTR ?pChatWindow@@3PAVCChatWindow@@A ; pChatWindow
	push	eax
	call	?AddDebugMessage@CChatWindow@@QAAXPADZZ	; CChatWindow::AddDebugMessage
	add	esp, 8
$LN3@cmdIsVehic:

; 267  : }

	pop	edi
	pop	esi
	pop	ebx
	add	esp, 192				; 000000c0H
	cmp	ebp, esp
	call	__RTC_CheckEsp
	mov	esp, ebp
	pop	ebp
	ret	0
?cmdIsVehicle@@YAXPAD@Z ENDP				; cmdIsVehicle
_TEXT	ENDS
PUBLIC	??_C@_02GNMILJDB@np?$AA@			; `string'
PUBLIC	??_C@_05DMEBLLNM@build?$AA@			; `string'
PUBLIC	??_C@_04NHPAFEHJ@skin?$AA@			; `string'
PUBLIC	??_C@_07CJDNLGID@vehicle?$AA@			; `string'
PUBLIC	??_C@_01MHEDDDHA@v?$AA@				; `string'
PUBLIC	??_C@_04EMMDIJJL@save?$AA@			; `string'
PUBLIC	??_C@_04BJJEOANI@kill?$AA@			; `string'
PUBLIC	??_C@_07HJGEEPBB@gencomp?$AA@			; `string'
PUBLIC	??_C@_05JEBDMKHG@admin?$AA@			; `string'
PUBLIC	??_C@_01IIACKFLH@q?$AA@				; `string'
PUBLIC	??_C@_04KNNLNNGO@quit?$AA@			; `string'
PUBLIC	??_C@_09ELEJNBDG@isvehicle?$AA@			; `string'
PUBLIC	?SetupCommands@@YAXXZ				; SetupCommands
EXTRN	?AddCmdProc@CCmdWindow@@QAEXPADP6AX0@Z@Z:PROC	; CCmdWindow::AddCmdProc
EXTRN	?AddDefaultCmdProc@CCmdWindow@@QAEXP6AXPAD@Z@Z:PROC ; CCmdWindow::AddDefaultCmdProc
EXTRN	?pCmdWindow@@3PAVCCmdWindow@@A:DWORD		; pCmdWindow
;	COMDAT ??_C@_02GNMILJDB@np?$AA@
CONST	SEGMENT
??_C@_02GNMILJDB@np?$AA@ DB 'np', 00H			; `string'
CONST	ENDS
;	COMDAT ??_C@_05DMEBLLNM@build?$AA@
CONST	SEGMENT
??_C@_05DMEBLLNM@build?$AA@ DB 'build', 00H		; `string'
CONST	ENDS
;	COMDAT ??_C@_04NHPAFEHJ@skin?$AA@
CONST	SEGMENT
??_C@_04NHPAFEHJ@skin?$AA@ DB 'skin', 00H		; `string'
CONST	ENDS
;	COMDAT ??_C@_07CJDNLGID@vehicle?$AA@
CONST	SEGMENT
??_C@_07CJDNLGID@vehicle?$AA@ DB 'vehicle', 00H		; `string'
CONST	ENDS
;	COMDAT ??_C@_01MHEDDDHA@v?$AA@
CONST	SEGMENT
??_C@_01MHEDDDHA@v?$AA@ DB 'v', 00H			; `string'
CONST	ENDS
;	COMDAT ??_C@_04EMMDIJJL@save?$AA@
CONST	SEGMENT
??_C@_04EMMDIJJL@save?$AA@ DB 'save', 00H		; `string'
CONST	ENDS
;	COMDAT ??_C@_04BJJEOANI@kill?$AA@
CONST	SEGMENT
??_C@_04BJJEOANI@kill?$AA@ DB 'kill', 00H		; `string'
CONST	ENDS
;	COMDAT ??_C@_07HJGEEPBB@gencomp?$AA@
CONST	SEGMENT
??_C@_07HJGEEPBB@gencomp?$AA@ DB 'gencomp', 00H		; `string'
CONST	ENDS
;	COMDAT ??_C@_05JEBDMKHG@admin?$AA@
CONST	SEGMENT
??_C@_05JEBDMKHG@admin?$AA@ DB 'admin', 00H		; `string'
CONST	ENDS
;	COMDAT ??_C@_01IIACKFLH@q?$AA@
CONST	SEGMENT
??_C@_01IIACKFLH@q?$AA@ DB 'q', 00H			; `string'
CONST	ENDS
;	COMDAT ??_C@_04KNNLNNGO@quit?$AA@
CONST	SEGMENT
??_C@_04KNNLNNGO@quit?$AA@ DB 'quit', 00H		; `string'
CONST	ENDS
;	COMDAT ??_C@_09ELEJNBDG@isvehicle?$AA@
CONST	SEGMENT
??_C@_09ELEJNBDG@isvehicle?$AA@ DB 'isvehicle', 00H	; `string'
; Function compile flags: /Odtp /RTCsu /ZI
CONST	ENDS
;	COMDAT ?SetupCommands@@YAXXZ
_TEXT	SEGMENT
?SetupCommands@@YAXXZ PROC				; SetupCommands, COMDAT

; 270  : {

	push	ebp
	mov	ebp, esp
	sub	esp, 192				; 000000c0H
	push	ebx
	push	esi
	push	edi
	lea	edi, DWORD PTR [ebp-192]
	mov	ecx, 48					; 00000030H
	mov	eax, -858993460				; ccccccccH
	rep stosd

; 271  : 	pCmdWindow->AddDefaultCmdProc(cmdDefaultCmdProc);

	push	OFFSET ?cmdDefaultCmdProc@@YAXPAD@Z	; cmdDefaultCmdProc
	mov	ecx, DWORD PTR ?pCmdWindow@@3PAVCCmdWindow@@A ; pCmdWindow
	call	?AddDefaultCmdProc@CCmdWindow@@QAEXP6AXPAD@Z@Z ; CCmdWindow::AddDefaultCmdProc

; 272  : 	pCmdWindow->AddCmdProc("isvehicle", cmdIsVehicle);

	push	OFFSET ?cmdIsVehicle@@YAXPAD@Z		; cmdIsVehicle
	push	OFFSET ??_C@_09ELEJNBDG@isvehicle?$AA@
	mov	ecx, DWORD PTR ?pCmdWindow@@3PAVCCmdWindow@@A ; pCmdWindow
	call	?AddCmdProc@CCmdWindow@@QAEXPADP6AX0@Z@Z ; CCmdWindow::AddCmdProc

; 273  : 	pCmdWindow->AddCmdProc("quit",cmdQuit);

	push	OFFSET ?cmdQuit@@YAXPAD@Z		; cmdQuit
	push	OFFSET ??_C@_04KNNLNNGO@quit?$AA@
	mov	ecx, DWORD PTR ?pCmdWindow@@3PAVCCmdWindow@@A ; pCmdWindow
	call	?AddCmdProc@CCmdWindow@@QAEXPADP6AX0@Z@Z ; CCmdWindow::AddCmdProc

; 274  : 	pCmdWindow->AddCmdProc("q",cmdQuit);

	push	OFFSET ?cmdQuit@@YAXPAD@Z		; cmdQuit
	push	OFFSET ??_C@_01IIACKFLH@q?$AA@
	mov	ecx, DWORD PTR ?pCmdWindow@@3PAVCCmdWindow@@A ; pCmdWindow
	call	?AddCmdProc@CCmdWindow@@QAEXPADP6AX0@Z@Z ; CCmdWindow::AddCmdProc

; 275  : 	pCmdWindow->AddCmdProc("admin",cmdAdmin);

	push	OFFSET ?cmdAdmin@@YAXPAD@Z		; cmdAdmin
	push	OFFSET ??_C@_05JEBDMKHG@admin?$AA@
	mov	ecx, DWORD PTR ?pCmdWindow@@3PAVCCmdWindow@@A ; pCmdWindow
	call	?AddCmdProc@CCmdWindow@@QAEXPADP6AX0@Z@Z ; CCmdWindow::AddCmdProc

; 276  : 	pCmdWindow->AddCmdProc("gencomp",cmdGenComp);

	push	OFFSET ?cmdGenComp@@YAXPAD@Z		; cmdGenComp
	push	OFFSET ??_C@_07HJGEEPBB@gencomp?$AA@
	mov	ecx, DWORD PTR ?pCmdWindow@@3PAVCCmdWindow@@A ; pCmdWindow
	call	?AddCmdProc@CCmdWindow@@QAEXPADP6AX0@Z@Z ; CCmdWindow::AddCmdProc

; 277  : 	pCmdWindow->AddCmdProc("kill",cmdKill);

	push	OFFSET ?cmdKill@@YAXPAD@Z		; cmdKill
	push	OFFSET ??_C@_04BJJEOANI@kill?$AA@
	mov	ecx, DWORD PTR ?pCmdWindow@@3PAVCCmdWindow@@A ; pCmdWindow
	call	?AddCmdProc@CCmdWindow@@QAEXPADP6AX0@Z@Z ; CCmdWindow::AddCmdProc

; 278  : 	pCmdWindow->AddCmdProc("save",cmdSavePos);

	push	OFFSET ?cmdSavePos@@YAXPAD@Z		; cmdSavePos
	push	OFFSET ??_C@_04EMMDIJJL@save?$AA@
	mov	ecx, DWORD PTR ?pCmdWindow@@3PAVCCmdWindow@@A ; pCmdWindow
	call	?AddCmdProc@CCmdWindow@@QAEXPADP6AX0@Z@Z ; CCmdWindow::AddCmdProc

; 279  : 	pCmdWindow->AddCmdProc("v",cmdCreateVehicle);

	push	OFFSET ?cmdCreateVehicle@@YAXPAD@Z	; cmdCreateVehicle
	push	OFFSET ??_C@_01MHEDDDHA@v?$AA@
	mov	ecx, DWORD PTR ?pCmdWindow@@3PAVCCmdWindow@@A ; pCmdWindow
	call	?AddCmdProc@CCmdWindow@@QAEXPADP6AX0@Z@Z ; CCmdWindow::AddCmdProc

; 280  : 	pCmdWindow->AddCmdProc("vehicle",cmdCreateVehicle);

	push	OFFSET ?cmdCreateVehicle@@YAXPAD@Z	; cmdCreateVehicle
	push	OFFSET ??_C@_07CJDNLGID@vehicle?$AA@
	mov	ecx, DWORD PTR ?pCmdWindow@@3PAVCCmdWindow@@A ; pCmdWindow
	call	?AddCmdProc@CCmdWindow@@QAEXPADP6AX0@Z@Z ; CCmdWindow::AddCmdProc

; 281  : 	pCmdWindow->AddCmdProc("skin",cmdSkin);

	push	OFFSET ?cmdSkin@@YAXPAD@Z		; cmdSkin
	push	OFFSET ??_C@_04NHPAFEHJ@skin?$AA@
	mov	ecx, DWORD PTR ?pCmdWindow@@3PAVCCmdWindow@@A ; pCmdWindow
	call	?AddCmdProc@CCmdWindow@@QAEXPADP6AX0@Z@Z ; CCmdWindow::AddCmdProc

; 282  : 	pCmdWindow->AddCmdProc("build",cmdBuild);

	push	OFFSET ?cmdBuild@@YAXPAD@Z		; cmdBuild
	push	OFFSET ??_C@_05DMEBLLNM@build?$AA@
	mov	ecx, DWORD PTR ?pCmdWindow@@3PAVCCmdWindow@@A ; pCmdWindow
	call	?AddCmdProc@CCmdWindow@@QAEXPADP6AX0@Z@Z ; CCmdWindow::AddCmdProc

; 283  : 	pCmdWindow->AddCmdProc("np", cmdNewPlayer);

	push	OFFSET ?cmdNewPlayer@@YAXPAD@Z		; cmdNewPlayer
	push	OFFSET ??_C@_02GNMILJDB@np?$AA@
	mov	ecx, DWORD PTR ?pCmdWindow@@3PAVCCmdWindow@@A ; pCmdWindow
	call	?AddCmdProc@CCmdWindow@@QAEXPADP6AX0@Z@Z ; CCmdWindow::AddCmdProc

; 284  : }

	pop	edi
	pop	esi
	pop	ebx
	add	esp, 192				; 000000c0H
	cmp	ebp, esp
	call	__RTC_CheckEsp
	mov	esp, ebp
	pop	ebp
	ret	0
?SetupCommands@@YAXXZ ENDP				; SetupCommands
_TEXT	ENDS
PUBLIC	?DoEndianSwap@BitStream@RakNet@@SA_NXZ		; RakNet::BitStream::DoEndianSwap
EXTRN	?ReverseBytes@BitStream@RakNet@@SAXPAE0I@Z:PROC	; RakNet::BitStream::ReverseBytes
EXTRN	?WriteBits@BitStream@RakNet@@QAEXPBEI_N@Z:PROC	; RakNet::BitStream::WriteBits
; Function compile flags: /Odtp /RTCsu /ZI
; File d:\vice-players-master\raknet\bitstream.h
;	COMDAT ??$Write@H@BitStream@RakNet@@QAEXABH@Z
_TEXT	SEGMENT
_output$209408 = -20					; size = 4
_this$ = -8						; size = 4
_inTemplateVar$ = 8					; size = 4
??$Write@H@BitStream@RakNet@@QAEXABH@Z PROC		; RakNet::BitStream::Write<int>, COMDAT
; _this$ = ecx

; 1055 : 	{

	push	ebp
	mov	ebp, esp
	sub	esp, 216				; 000000d8H
	push	ebx
	push	esi
	push	edi
	push	ecx
	lea	edi, DWORD PTR [ebp-216]
	mov	ecx, 54					; 00000036H
	mov	eax, -858993460				; ccccccccH
	rep stosd
	pop	ecx
	mov	DWORD PTR _this$[ebp], ecx

; 1056 : #ifdef _MSC_VER
; 1057 : #pragma warning(disable:4127)   // conditional expression is constant
; 1058 : #endif
; 1059 : 		if (sizeof(inTemplateVar)==1)

	xor	eax, eax
	je	SHORT $LN4@Write

; 1060 : 			WriteBits( ( unsigned char* ) & inTemplateVar, sizeof( templateType ) * 8, true );

	push	1
	push	32					; 00000020H
	mov	eax, DWORD PTR _inTemplateVar$[ebp]
	push	eax
	mov	ecx, DWORD PTR _this$[ebp]
	call	?WriteBits@BitStream@RakNet@@QAEXPBEI_N@Z ; RakNet::BitStream::WriteBits

; 1061 : 		else

	jmp	SHORT $LN5@Write
$LN4@Write:

; 1062 : 		{
; 1063 : #ifndef __BITSTREAM_NATIVE_END
; 1064 : 			if (DoEndianSwap())

	call	?DoEndianSwap@BitStream@RakNet@@SA_NXZ	; RakNet::BitStream::DoEndianSwap
	movzx	eax, al
	test	eax, eax
	je	SHORT $LN2@Write

; 1065 : 			{
; 1066 : 				unsigned char output[sizeof(templateType)];
; 1067 : 				ReverseBytes((unsigned char*)&inTemplateVar, output, sizeof(templateType));

	push	4
	lea	eax, DWORD PTR _output$209408[ebp]
	push	eax
	mov	ecx, DWORD PTR _inTemplateVar$[ebp]
	push	ecx
	call	?ReverseBytes@BitStream@RakNet@@SAXPAE0I@Z ; RakNet::BitStream::ReverseBytes
	add	esp, 12					; 0000000cH

; 1068 : 				WriteBits( ( unsigned char* ) output, sizeof(templateType) * 8, true );

	push	1
	push	32					; 00000020H
	lea	eax, DWORD PTR _output$209408[ebp]
	push	eax
	mov	ecx, DWORD PTR _this$[ebp]
	call	?WriteBits@BitStream@RakNet@@QAEXPBEI_N@Z ; RakNet::BitStream::WriteBits

; 1069 : 			}
; 1070 : 			else

	jmp	SHORT $LN5@Write
$LN2@Write:

; 1071 : #endif
; 1072 : 				WriteBits( ( unsigned char* ) & inTemplateVar, sizeof(templateType) * 8, true );

	push	1
	push	32					; 00000020H
	mov	eax, DWORD PTR _inTemplateVar$[ebp]
	push	eax
	mov	ecx, DWORD PTR _this$[ebp]
	call	?WriteBits@BitStream@RakNet@@QAEXPBEI_N@Z ; RakNet::BitStream::WriteBits
$LN5@Write:

; 1073 : 		}
; 1074 : 	}

	push	edx
	mov	ecx, ebp
	push	eax
	lea	edx, DWORD PTR $LN9@Write
	call	@_RTC_CheckStackVars@8
	pop	eax
	pop	edx
	pop	edi
	pop	esi
	pop	ebx
	add	esp, 216				; 000000d8H
	cmp	ebp, esp
	call	__RTC_CheckEsp
	mov	esp, ebp
	pop	ebp
	ret	4
$LN9@Write:
	DD	1
	DD	$LN8@Write
$LN8@Write:
	DD	-20					; ffffffecH
	DD	4
	DD	$LN7@Write
$LN7@Write:
	DB	111					; 0000006fH
	DB	117					; 00000075H
	DB	116					; 00000074H
	DB	112					; 00000070H
	DB	117					; 00000075H
	DB	116					; 00000074H
	DB	0
??$Write@H@BitStream@RakNet@@QAEXABH@Z ENDP		; RakNet::BitStream::Write<int>
; Function compile flags: /Odtp /RTCsu /ZI
; File d:\vice-players-master\client\game\common.h
_TEXT	ENDS
;	COMDAT ??0Vector3@@QAE@XZ
_TEXT	SEGMENT
_this$ = -8						; size = 4
??0Vector3@@QAE@XZ PROC					; Vector3::Vector3, COMDAT
; _this$ = ecx

; 34   : 	Vector3()

	push	ebp
	mov	ebp, esp
	sub	esp, 204				; 000000ccH
	push	ebx
	push	esi
	push	edi
	push	ecx
	lea	edi, DWORD PTR [ebp-204]
	mov	ecx, 51					; 00000033H
	mov	eax, -858993460				; ccccccccH
	rep stosd
	pop	ecx
	mov	DWORD PTR _this$[ebp], ecx

; 35   : 	{
; 36   : 		X = Y = Z = 0;

	mov	eax, DWORD PTR _this$[ebp]
	fldz
	fstp	DWORD PTR [eax+8]
	mov	ecx, DWORD PTR _this$[ebp]
	fldz
	fstp	DWORD PTR [ecx+4]
	mov	edx, DWORD PTR _this$[ebp]
	fldz
	fstp	DWORD PTR [edx]

; 37   : 	}

	mov	eax, DWORD PTR _this$[ebp]
	pop	edi
	pop	esi
	pop	ebx
	mov	esp, ebp
	pop	ebp
	ret	0
??0Vector3@@QAE@XZ ENDP					; Vector3::Vector3
_TEXT	ENDS
EXTRN	??3@YAXPAX@Z:PROC				; operator delete
EXTRN	??0CPlayerPed@@QAE@XZ:PROC			; CPlayerPed::CPlayerPed
EXTRN	??2@YAPAXI@Z:PROC				; operator new
;	COMDAT xdata$x
; File d:\vice-players-master\client\game\cgame.h
xdata$x	SEGMENT
__unwindtable$?FindPlayerPed@CGame@@QAEPAVCPlayerPed@@XZ DD 0ffffffffH
	DD	FLAT:__unwindfunclet$?FindPlayerPed@CGame@@QAEPAVCPlayerPed@@XZ$0
__ehfuncinfo$?FindPlayerPed@CGame@@QAEPAVCPlayerPed@@XZ DD 019930522H
	DD	01H
	DD	FLAT:__unwindtable$?FindPlayerPed@CGame@@QAEPAVCPlayerPed@@XZ
	DD	2 DUP(00H)
	DD	2 DUP(00H)
	DD	00H
	DD	01H
; Function compile flags: /Odtp /RTCsu /ZI
xdata$x	ENDS
;	COMDAT ?FindPlayerPed@CGame@@QAEPAVCPlayerPed@@XZ
_TEXT	SEGMENT
tv74 = -244						; size = 4
$T209585 = -236						; size = 4
$T209586 = -224						; size = 4
_this$ = -20						; size = 4
__$EHRec$ = -12						; size = 12
?FindPlayerPed@CGame@@QAEPAVCPlayerPed@@XZ PROC		; CGame::FindPlayerPed, COMDAT
; _this$ = ecx

; 101  : 	CPlayerPed  *FindPlayerPed() {

	push	ebp
	mov	ebp, esp
	push	-1
	push	__ehhandler$?FindPlayerPed@CGame@@QAEPAVCPlayerPed@@XZ
	mov	eax, DWORD PTR fs:0
	push	eax
	sub	esp, 232				; 000000e8H
	push	ebx
	push	esi
	push	edi
	push	ecx
	lea	edi, DWORD PTR [ebp-244]
	mov	ecx, 58					; 0000003aH
	mov	eax, -858993460				; ccccccccH
	rep stosd
	pop	ecx
	mov	eax, DWORD PTR ___security_cookie
	xor	eax, ebp
	push	eax
	lea	eax, DWORD PTR __$EHRec$[ebp]
	mov	DWORD PTR fs:0, eax
	mov	DWORD PTR _this$[ebp], ecx

; 102  : 		if(m_pInternalPlayer==NULL)	m_pInternalPlayer = new CPlayerPed();

	mov	eax, DWORD PTR _this$[ebp]
	cmp	DWORD PTR [eax+4], 0
	jne	SHORT $LN1@FindPlayer
	push	12					; 0000000cH
	call	??2@YAPAXI@Z				; operator new
	add	esp, 4
	mov	DWORD PTR $T209586[ebp], eax
	mov	DWORD PTR __$EHRec$[ebp+8], 0
	cmp	DWORD PTR $T209586[ebp], 0
	je	SHORT $LN4@FindPlayer
	mov	ecx, DWORD PTR $T209586[ebp]
	call	??0CPlayerPed@@QAE@XZ			; CPlayerPed::CPlayerPed
	mov	DWORD PTR tv74[ebp], eax
	jmp	SHORT $LN5@FindPlayer
$LN4@FindPlayer:
	mov	DWORD PTR tv74[ebp], 0
$LN5@FindPlayer:
	mov	eax, DWORD PTR tv74[ebp]
	mov	DWORD PTR $T209585[ebp], eax
	mov	DWORD PTR __$EHRec$[ebp+8], -1
	mov	ecx, DWORD PTR _this$[ebp]
	mov	edx, DWORD PTR $T209585[ebp]
	mov	DWORD PTR [ecx+4], edx
$LN1@FindPlayer:

; 103  : 		return m_pInternalPlayer;

	mov	eax, DWORD PTR _this$[ebp]
	mov	eax, DWORD PTR [eax+4]

; 104  : 	};

	mov	ecx, DWORD PTR __$EHRec$[ebp]
	mov	DWORD PTR fs:0, ecx
	pop	ecx
	pop	edi
	pop	esi
	pop	ebx
	add	esp, 244				; 000000f4H
	cmp	ebp, esp
	call	__RTC_CheckEsp
	mov	esp, ebp
	pop	ebp
	ret	0
_TEXT	ENDS
;	COMDAT text$x
text$x	SEGMENT
__unwindfunclet$?FindPlayerPed@CGame@@QAEPAVCPlayerPed@@XZ$0:
	mov	eax, DWORD PTR $T209586[ebp]
	push	eax
	call	??3@YAXPAX@Z				; operator delete
	pop	ecx
	ret	0
__ehhandler$?FindPlayerPed@CGame@@QAEPAVCPlayerPed@@XZ:
	mov	edx, DWORD PTR [esp+8]
	lea	eax, DWORD PTR [edx+12]
	mov	ecx, DWORD PTR [edx-248]
	xor	ecx, eax
	call	@__security_check_cookie@4
	mov	eax, OFFSET __ehfuncinfo$?FindPlayerPed@CGame@@QAEPAVCPlayerPed@@XZ
	jmp	___CxxFrameHandler3
text$x	ENDS
?FindPlayerPed@CGame@@QAEPAVCPlayerPed@@XZ ENDP		; CGame::FindPlayerPed
; Function compile flags: /Odtp /RTCsu /ZI
;	COMDAT ?GetCamera@CGame@@QAEPAVCCamera@@XZ
_TEXT	SEGMENT
_this$ = -8						; size = 4
?GetCamera@CGame@@QAEPAVCCamera@@XZ PROC		; CGame::GetCamera, COMDAT
; _this$ = ecx

; 106  : 	CCamera     *GetCamera() {	return m_pInternalCamera; };

	push	ebp
	mov	ebp, esp
	sub	esp, 204				; 000000ccH
	push	ebx
	push	esi
	push	edi
	push	ecx
	lea	edi, DWORD PTR [ebp-204]
	mov	ecx, 51					; 00000033H
	mov	eax, -858993460				; ccccccccH
	rep stosd
	pop	ecx
	mov	DWORD PTR _this$[ebp], ecx
	mov	eax, DWORD PTR _this$[ebp]
	mov	eax, DWORD PTR [eax]
	pop	edi
	pop	esi
	pop	ebx
	mov	esp, ebp
	pop	ebp
	ret	0
?GetCamera@CGame@@QAEPAVCCamera@@XZ ENDP		; CGame::GetCamera
_TEXT	ENDS
PUBLIC	??4SystemAddress@RakNet@@QAEAAU01@ABU01@@Z	; RakNet::SystemAddress::operator=
PUBLIC	??4RakNetGUID@RakNet@@QAEAAU01@ABU01@@Z		; RakNet::RakNetGUID::operator=
PUBLIC	??0RakNetGUID@RakNet@@QAE@XZ			; RakNet::RakNetGUID::RakNetGUID
EXTRN	??0SystemAddress@RakNet@@QAE@XZ:PROC		; RakNet::SystemAddress::SystemAddress
; Function compile flags: /Odtp /RTCsu /ZI
; File d:\vice-players-master\raknet\raknettypes.h
;	COMDAT ??0AddressOrGUID@RakNet@@QAE@ABUSystemAddress@1@@Z
_TEXT	SEGMENT
_this$ = -8						; size = 4
_input$ = 8						; size = 4
??0AddressOrGUID@RakNet@@QAE@ABUSystemAddress@1@@Z PROC	; RakNet::AddressOrGUID::AddressOrGUID, COMDAT
; _this$ = ecx

; 220  : 	AddressOrGUID( const SystemAddress& input )

	push	ebp
	mov	ebp, esp
	sub	esp, 204				; 000000ccH
	push	ebx
	push	esi
	push	edi
	push	ecx
	lea	edi, DWORD PTR [ebp-204]
	mov	ecx, 51					; 00000033H
	mov	eax, -858993460				; ccccccccH
	rep stosd
	pop	ecx
	mov	DWORD PTR _this$[ebp], ecx
	mov	ecx, DWORD PTR _this$[ebp]
	call	??0RakNetGUID@RakNet@@QAE@XZ		; RakNet::RakNetGUID::RakNetGUID
	mov	ecx, DWORD PTR _this$[ebp]
	add	ecx, 16					; 00000010H
	call	??0SystemAddress@RakNet@@QAE@XZ		; RakNet::SystemAddress::SystemAddress

; 221  : 	{
; 222  : 		rakNetGuid=UNASSIGNED_RAKNET_GUID;

	push	OFFSET _UNASSIGNED_RAKNET_GUID
	mov	ecx, DWORD PTR _this$[ebp]
	call	??4RakNetGUID@RakNet@@QAEAAU01@ABU01@@Z	; RakNet::RakNetGUID::operator=

; 223  : 		systemAddress=input;

	mov	eax, DWORD PTR _input$[ebp]
	push	eax
	mov	ecx, DWORD PTR _this$[ebp]
	add	ecx, 16					; 00000010H
	call	??4SystemAddress@RakNet@@QAEAAU01@ABU01@@Z ; RakNet::SystemAddress::operator=

; 224  : 	}

	mov	eax, DWORD PTR _this$[ebp]
	pop	edi
	pop	esi
	pop	ebx
	add	esp, 204				; 000000ccH
	cmp	ebp, esp
	call	__RTC_CheckEsp
	mov	esp, ebp
	pop	ebp
	ret	4
??0AddressOrGUID@RakNet@@QAE@ABUSystemAddress@1@@Z ENDP	; RakNet::AddressOrGUID::AddressOrGUID
; Function compile flags: /Odtp /RTCsu /ZI
_TEXT	ENDS
;	COMDAT ??4SystemAddress@RakNet@@QAEAAU01@ABU01@@Z
_TEXT	SEGMENT
_this$ = -8						; size = 4
_input$ = 8						; size = 4
??4SystemAddress@RakNet@@QAEAAU01@ABU01@@Z PROC		; RakNet::SystemAddress::operator=, COMDAT
; _this$ = ecx

; 139  : 	{

	push	ebp
	mov	ebp, esp
	sub	esp, 204				; 000000ccH
	push	ebx
	push	esi
	push	edi
	push	ecx
	lea	edi, DWORD PTR [ebp-204]
	mov	ecx, 51					; 00000033H
	mov	eax, -858993460				; ccccccccH
	rep stosd
	pop	ecx
	mov	DWORD PTR _this$[ebp], ecx

; 140  : 		binaryAddress = input.binaryAddress;

	mov	eax, DWORD PTR _this$[ebp]
	mov	ecx, DWORD PTR _input$[ebp]
	mov	edx, DWORD PTR [ecx]
	mov	DWORD PTR [eax], edx

; 141  : 		port = input.port;

	mov	eax, DWORD PTR _this$[ebp]
	mov	ecx, DWORD PTR _input$[ebp]
	mov	dx, WORD PTR [ecx+4]
	mov	WORD PTR [eax+4], dx

; 142  : 		systemIndex = input.systemIndex;

	mov	eax, DWORD PTR _this$[ebp]
	mov	ecx, DWORD PTR _input$[ebp]
	mov	dx, WORD PTR [ecx+6]
	mov	WORD PTR [eax+6], dx

; 143  : 		return *this;

	mov	eax, DWORD PTR _this$[ebp]

; 144  : 	}

	pop	edi
	pop	esi
	pop	ebx
	mov	esp, ebp
	pop	ebp
	ret	4
??4SystemAddress@RakNet@@QAEAAU01@ABU01@@Z ENDP		; RakNet::SystemAddress::operator=
; Function compile flags: /Odtp /RTCsu /ZI
_TEXT	ENDS
;	COMDAT ??0RakNetGUID@RakNet@@QAE@XZ
_TEXT	SEGMENT
_this$ = -8						; size = 4
??0RakNetGUID@RakNet@@QAE@XZ PROC			; RakNet::RakNetGUID::RakNetGUID, COMDAT
; _this$ = ecx

; 156  : 	RakNetGUID() {systemIndex=(SystemIndex)-1;}

	push	ebp
	mov	ebp, esp
	sub	esp, 204				; 000000ccH
	push	ebx
	push	esi
	push	edi
	push	ecx
	lea	edi, DWORD PTR [ebp-204]
	mov	ecx, 51					; 00000033H
	mov	eax, -858993460				; ccccccccH
	rep stosd
	pop	ecx
	mov	DWORD PTR _this$[ebp], ecx
	mov	eax, 65535				; 0000ffffH
	mov	ecx, DWORD PTR _this$[ebp]
	mov	WORD PTR [ecx+8], ax
	mov	eax, DWORD PTR _this$[ebp]
	pop	edi
	pop	esi
	pop	ebx
	mov	esp, ebp
	pop	ebp
	ret	0
??0RakNetGUID@RakNet@@QAE@XZ ENDP			; RakNet::RakNetGUID::RakNetGUID
; Function compile flags: /Odtp /RTCsu /ZI
_TEXT	ENDS
;	COMDAT ??4RakNetGUID@RakNet@@QAEAAU01@ABU01@@Z
_TEXT	SEGMENT
_this$ = -8						; size = 4
_input$ = 8						; size = 4
??4RakNetGUID@RakNet@@QAEAAU01@ABU01@@Z PROC		; RakNet::RakNetGUID::operator=, COMDAT
; _this$ = ecx

; 174  : 	{

	push	ebp
	mov	ebp, esp
	sub	esp, 204				; 000000ccH
	push	ebx
	push	esi
	push	edi
	push	ecx
	lea	edi, DWORD PTR [ebp-204]
	mov	ecx, 51					; 00000033H
	mov	eax, -858993460				; ccccccccH
	rep stosd
	pop	ecx
	mov	DWORD PTR _this$[ebp], ecx

; 175  : 		g=input.g;

	mov	eax, DWORD PTR _this$[ebp]
	mov	ecx, DWORD PTR _input$[ebp]
	mov	edx, DWORD PTR [ecx]
	mov	DWORD PTR [eax], edx
	mov	ecx, DWORD PTR [ecx+4]
	mov	DWORD PTR [eax+4], ecx

; 176  : 		systemIndex=input.systemIndex;

	mov	eax, DWORD PTR _this$[ebp]
	mov	ecx, DWORD PTR _input$[ebp]
	mov	dx, WORD PTR [ecx+8]
	mov	WORD PTR [eax+8], dx

; 177  : 		return *this;

	mov	eax, DWORD PTR _this$[ebp]

; 178  : 	}

	pop	edi
	pop	esi
	pop	ebx
	mov	esp, ebp
	pop	ebp
	ret	4
??4RakNetGUID@RakNet@@QAEAAU01@ABU01@@Z ENDP		; RakNet::RakNetGUID::operator=
_TEXT	ENDS
PUBLIC	?IsNetworkOrder@BitStream@RakNet@@SA_NXZ	; RakNet::BitStream::IsNetworkOrder
; Function compile flags: /Odtp /RTCsu /ZI
; File d:\vice-players-master\raknet\bitstream.h
;	COMDAT ?DoEndianSwap@BitStream@RakNet@@SA_NXZ
_TEXT	SEGMENT
?DoEndianSwap@BitStream@RakNet@@SA_NXZ PROC		; RakNet::BitStream::DoEndianSwap, COMDAT

; 863  : 		inline static bool DoEndianSwap(void) {

	push	ebp
	mov	ebp, esp
	sub	esp, 192				; 000000c0H
	push	ebx
	push	esi
	push	edi
	lea	edi, DWORD PTR [ebp-192]
	mov	ecx, 48					; 00000030H
	mov	eax, -858993460				; ccccccccH
	rep stosd

; 864  : #ifndef __BITSTREAM_NATIVE_END
; 865  : 			return IsNetworkOrder()==false;

	call	?IsNetworkOrder@BitStream@RakNet@@SA_NXZ ; RakNet::BitStream::IsNetworkOrder
	movzx	eax, al
	neg	eax
	sbb	eax, eax
	add	eax, 1

; 866  : #else
; 867  : 			return false;
; 868  : #endif
; 869  : 		}

	pop	edi
	pop	esi
	pop	ebx
	add	esp, 192				; 000000c0H
	cmp	ebp, esp
	call	__RTC_CheckEsp
	mov	esp, ebp
	pop	ebp
	ret	0
?DoEndianSwap@BitStream@RakNet@@SA_NXZ ENDP		; RakNet::BitStream::DoEndianSwap
_TEXT	ENDS
PUBLIC	?r@?1??IsNetworkOrder@BitStream@RakNet@@SA_NXZ@4_NB ; `RakNet::BitStream::IsNetworkOrder'::`2'::r
PUBLIC	??_B?1??IsNetworkOrder@BitStream@RakNet@@SA_NXZ@51 ; `RakNet::BitStream::IsNetworkOrder'::`2'::`local static guard'
EXTRN	?IsNetworkOrderInternal@BitStream@RakNet@@SA_NXZ:PROC ; RakNet::BitStream::IsNetworkOrderInternal
;	COMDAT ?r@?1??IsNetworkOrder@BitStream@RakNet@@SA_NXZ@4_NB
_BSS	SEGMENT
?r@?1??IsNetworkOrder@BitStream@RakNet@@SA_NXZ@4_NB DB 01H DUP (?) ; `RakNet::BitStream::IsNetworkOrder'::`2'::r
_BSS	ENDS
;	COMDAT ??_B?1??IsNetworkOrder@BitStream@RakNet@@SA_NXZ@51
_BSS	SEGMENT
??_B?1??IsNetworkOrder@BitStream@RakNet@@SA_NXZ@51 DD 01H DUP (?) ; `RakNet::BitStream::IsNetworkOrder'::`2'::`local static guard'
_BSS	ENDS
;	COMDAT xdata$x
xdata$x	SEGMENT
__unwindtable$?IsNetworkOrder@BitStream@RakNet@@SA_NXZ DD 0ffffffffH
	DD	FLAT:__unwindfunclet$?IsNetworkOrder@BitStream@RakNet@@SA_NXZ$0
__ehfuncinfo$?IsNetworkOrder@BitStream@RakNet@@SA_NXZ DD 019930522H
	DD	01H
	DD	FLAT:__unwindtable$?IsNetworkOrder@BitStream@RakNet@@SA_NXZ
	DD	2 DUP(00H)
	DD	2 DUP(00H)
	DD	00H
	DD	01H
; Function compile flags: /Odtp /RTCsu /ZI
xdata$x	ENDS
;	COMDAT ?IsNetworkOrder@BitStream@RakNet@@SA_NXZ
_TEXT	SEGMENT
__$EHRec$ = -12						; size = 12
?IsNetworkOrder@BitStream@RakNet@@SA_NXZ PROC		; RakNet::BitStream::IsNetworkOrder, COMDAT

; 874  : 		inline static bool IsNetworkOrder(void) {static const bool r = IsNetworkOrderInternal(); return r;}

	push	ebp
	mov	ebp, esp
	push	-1
	push	__ehhandler$?IsNetworkOrder@BitStream@RakNet@@SA_NXZ
	mov	eax, DWORD PTR fs:0
	push	eax
	sub	esp, 192				; 000000c0H
	push	ebx
	push	esi
	push	edi
	lea	edi, DWORD PTR [ebp-204]
	mov	ecx, 48					; 00000030H
	mov	eax, -858993460				; ccccccccH
	rep stosd
	mov	eax, DWORD PTR ___security_cookie
	xor	eax, ebp
	push	eax
	lea	eax, DWORD PTR __$EHRec$[ebp]
	mov	DWORD PTR fs:0, eax
	mov	eax, DWORD PTR ??_B?1??IsNetworkOrder@BitStream@RakNet@@SA_NXZ@51
	and	eax, 1
	jne	SHORT $LN1@IsNetworkO
	mov	eax, DWORD PTR ??_B?1??IsNetworkOrder@BitStream@RakNet@@SA_NXZ@51
	or	eax, 1
	mov	DWORD PTR ??_B?1??IsNetworkOrder@BitStream@RakNet@@SA_NXZ@51, eax
	mov	DWORD PTR __$EHRec$[ebp+8], 0
	call	?IsNetworkOrderInternal@BitStream@RakNet@@SA_NXZ ; RakNet::BitStream::IsNetworkOrderInternal
	mov	BYTE PTR ?r@?1??IsNetworkOrder@BitStream@RakNet@@SA_NXZ@4_NB, al ; `RakNet::BitStream::IsNetworkOrder'::`2'::r
	mov	DWORD PTR __$EHRec$[ebp+8], -1
$LN1@IsNetworkO:
	mov	al, BYTE PTR ?r@?1??IsNetworkOrder@BitStream@RakNet@@SA_NXZ@4_NB ; `RakNet::BitStream::IsNetworkOrder'::`2'::r
	mov	ecx, DWORD PTR __$EHRec$[ebp]
	mov	DWORD PTR fs:0, ecx
	pop	ecx
	pop	edi
	pop	esi
	pop	ebx
	add	esp, 204				; 000000ccH
	cmp	ebp, esp
	call	__RTC_CheckEsp
	mov	esp, ebp
	pop	ebp
	ret	0
_TEXT	ENDS
;	COMDAT text$x
text$x	SEGMENT
__unwindfunclet$?IsNetworkOrder@BitStream@RakNet@@SA_NXZ$0:
	mov	eax, DWORD PTR ??_B?1??IsNetworkOrder@BitStream@RakNet@@SA_NXZ@51
	and	eax, -2					; fffffffeH
	mov	DWORD PTR ??_B?1??IsNetworkOrder@BitStream@RakNet@@SA_NXZ@51, eax
	ret	0
__ehhandler$?IsNetworkOrder@BitStream@RakNet@@SA_NXZ:
	mov	edx, DWORD PTR [esp+8]
	lea	eax, DWORD PTR [edx+12]
	mov	ecx, DWORD PTR [edx-208]
	xor	ecx, eax
	call	@__security_check_cookie@4
	mov	eax, OFFSET __ehfuncinfo$?IsNetworkOrder@BitStream@RakNet@@SA_NXZ
	jmp	___CxxFrameHandler3
text$x	ENDS
?IsNetworkOrder@BitStream@RakNet@@SA_NXZ ENDP		; RakNet::BitStream::IsNetworkOrder
; Function compile flags: /Odtp /RTCsu /ZI
; File d:\vice-players-master\client\net\cremoteplayer.h
;	COMDAT ?SetReportedHealth@CRemotePlayer@@QAEXE@Z
_TEXT	SEGMENT
_this$ = -8						; size = 4
_byteReportHealth$ = 8					; size = 1
?SetReportedHealth@CRemotePlayer@@QAEXE@Z PROC		; CRemotePlayer::SetReportedHealth, COMDAT
; _this$ = ecx

; 82   : 	void SetReportedHealth(BYTE byteReportHealth) { 

	push	ebp
	mov	ebp, esp
	sub	esp, 204				; 000000ccH
	push	ebx
	push	esi
	push	edi
	push	ecx
	lea	edi, DWORD PTR [ebp-204]
	mov	ecx, 51					; 00000033H
	mov	eax, -858993460				; ccccccccH
	rep stosd
	pop	ecx
	mov	DWORD PTR _this$[ebp], ecx

; 83   : 		m_byteHealth = byteReportHealth;

	mov	eax, DWORD PTR _this$[ebp]
	mov	cl, BYTE PTR _byteReportHealth$[ebp]
	mov	BYTE PTR [eax+116], cl

; 84   : 	}

	pop	edi
	pop	esi
	pop	ebx
	mov	esp, ebp
	pop	ebp
	ret	4
?SetReportedHealth@CRemotePlayer@@QAEXE@Z ENDP		; CRemotePlayer::SetReportedHealth
; Function compile flags: /Odtp /RTCsu /ZI
_TEXT	ENDS
;	COMDAT ?SetReportedArmour@CRemotePlayer@@QAEXE@Z
_TEXT	SEGMENT
_this$ = -8						; size = 4
_byteReportArmour$ = 8					; size = 1
?SetReportedArmour@CRemotePlayer@@QAEXE@Z PROC		; CRemotePlayer::SetReportedArmour, COMDAT
; _this$ = ecx

; 85   : 	void SetReportedArmour(BYTE byteReportArmour) { 

	push	ebp
	mov	ebp, esp
	sub	esp, 204				; 000000ccH
	push	ebx
	push	esi
	push	edi
	push	ecx
	lea	edi, DWORD PTR [ebp-204]
	mov	ecx, 51					; 00000033H
	mov	eax, -858993460				; ccccccccH
	rep stosd
	pop	ecx
	mov	DWORD PTR _this$[ebp], ecx

; 86   : 		m_byteArmour = byteReportArmour;

	mov	eax, DWORD PTR _this$[ebp]
	mov	cl, BYTE PTR _byteReportArmour$[ebp]
	mov	BYTE PTR [eax+117], cl

; 87   : 	}

	pop	edi
	pop	esi
	pop	ebx
	mov	esp, ebp
	pop	ebp
	ret	4
?SetReportedArmour@CRemotePlayer@@QAEXE@Z ENDP		; CRemotePlayer::SetReportedArmour
; Function compile flags: /Odtp /RTCsu /ZI
; File d:\vice-players-master\client\net\cplayermanager.h
_TEXT	ENDS
;	COMDAT ?GetPlayerName@CPlayerManager@@QAEPADE@Z
_TEXT	SEGMENT
_this$ = -8						; size = 4
_playerID$ = 8						; size = 1
?GetPlayerName@CPlayerManager@@QAEPADE@Z PROC		; CPlayerManager::GetPlayerName, COMDAT
; _this$ = ecx

; 37   : 	char * GetPlayerName(EntityId playerID) { return m_szPlayerNames[playerID]; };

	push	ebp
	mov	ebp, esp
	sub	esp, 204				; 000000ccH
	push	ebx
	push	esi
	push	edi
	push	ecx
	lea	edi, DWORD PTR [ebp-204]
	mov	ecx, 51					; 00000033H
	mov	eax, -858993460				; ccccccccH
	rep stosd
	pop	ecx
	mov	DWORD PTR _this$[ebp], ecx
	movzx	eax, BYTE PTR _playerID$[ebp]
	imul	eax, 25					; 00000019H
	mov	ecx, DWORD PTR _this$[ebp]
	lea	eax, DWORD PTR [ecx+eax+433]
	pop	edi
	pop	esi
	pop	ebx
	mov	esp, ebp
	pop	ebp
	ret	4
?GetPlayerName@CPlayerManager@@QAEPADE@Z ENDP		; CPlayerManager::GetPlayerName
; Function compile flags: /Odtp /RTCsu /ZI
_TEXT	ENDS
;	COMDAT ?GetLocalPlayer@CPlayerManager@@QAEPAVCLocalPlayer@@XZ
_TEXT	SEGMENT
_this$ = -8						; size = 4
?GetLocalPlayer@CPlayerManager@@QAEPAVCLocalPlayer@@XZ PROC ; CPlayerManager::GetLocalPlayer, COMDAT
; _this$ = ecx

; 39   : 	CLocalPlayer * GetLocalPlayer() { return m_pLocalPlayer; };

	push	ebp
	mov	ebp, esp
	sub	esp, 204				; 000000ccH
	push	ebx
	push	esi
	push	edi
	push	ecx
	lea	edi, DWORD PTR [ebp-204]
	mov	ecx, 51					; 00000033H
	mov	eax, -858993460				; ccccccccH
	rep stosd
	pop	ecx
	mov	DWORD PTR _this$[ebp], ecx
	mov	eax, DWORD PTR _this$[ebp]
	mov	eax, DWORD PTR [eax+200]
	pop	edi
	pop	esi
	pop	ebx
	mov	esp, ebp
	pop	ebp
	ret	0
?GetLocalPlayer@CPlayerManager@@QAEPAVCLocalPlayer@@XZ ENDP ; CPlayerManager::GetLocalPlayer
; Function compile flags: /Odtp /RTCsu /ZI
_TEXT	ENDS
;	COMDAT ?GetAt@CPlayerManager@@QAEPAVCRemotePlayer@@E@Z
_TEXT	SEGMENT
_this$ = -8						; size = 4
_playerID$ = 8						; size = 1
?GetAt@CPlayerManager@@QAEPAVCRemotePlayer@@E@Z PROC	; CPlayerManager::GetAt, COMDAT
; _this$ = ecx

; 45   : 	CRemotePlayer* GetAt(EntityId playerID) {

	push	ebp
	mov	ebp, esp
	sub	esp, 204				; 000000ccH
	push	ebx
	push	esi
	push	edi
	push	ecx
	lea	edi, DWORD PTR [ebp-204]
	mov	ecx, 51					; 00000033H
	mov	eax, -858993460				; ccccccccH
	rep stosd
	pop	ecx
	mov	DWORD PTR _this$[ebp], ecx

; 46   : 		if(playerID > MAX_PLAYERS) { return NULL; }

	movzx	eax, BYTE PTR _playerID$[ebp]
	cmp	eax, 50					; 00000032H
	jle	SHORT $LN1@GetAt
	xor	eax, eax
	jmp	SHORT $LN2@GetAt
$LN1@GetAt:

; 47   : 		return m_pPlayers[playerID];

	movzx	eax, BYTE PTR _playerID$[ebp]
	mov	ecx, DWORD PTR _this$[ebp]
	mov	eax, DWORD PTR [ecx+eax*4+208]
$LN2@GetAt:

; 48   : 	};

	pop	edi
	pop	esi
	pop	ebx
	mov	esp, ebp
	pop	ebp
	ret	4
?GetAt@CPlayerManager@@QAEPAVCRemotePlayer@@E@Z ENDP	; CPlayerManager::GetAt
; Function compile flags: /Odtp /RTCsu /ZI
_TEXT	ENDS
;	COMDAT ?GetSlotState@CPlayerManager@@QAEHE@Z
_TEXT	SEGMENT
_this$ = -8						; size = 4
_playerID$ = 8						; size = 1
?GetSlotState@CPlayerManager@@QAEHE@Z PROC		; CPlayerManager::GetSlotState, COMDAT
; _this$ = ecx

; 50   : 	BOOL GetSlotState(EntityId playerID) {

	push	ebp
	mov	ebp, esp
	sub	esp, 204				; 000000ccH
	push	ebx
	push	esi
	push	edi
	push	ecx
	lea	edi, DWORD PTR [ebp-204]
	mov	ecx, 51					; 00000033H
	mov	eax, -858993460				; ccccccccH
	rep stosd
	pop	ecx
	mov	DWORD PTR _this$[ebp], ecx

; 51   : 		if(playerID > MAX_PLAYERS) { return FALSE; }

	movzx	eax, BYTE PTR _playerID$[ebp]
	cmp	eax, 50					; 00000032H
	jle	SHORT $LN1@GetSlotSta
	xor	eax, eax
	jmp	SHORT $LN2@GetSlotSta
$LN1@GetSlotSta:

; 52   : 		return m_bPlayerSlotState[playerID];

	movzx	eax, BYTE PTR _playerID$[ebp]
	mov	ecx, DWORD PTR _this$[ebp]
	mov	eax, DWORD PTR [ecx+eax*4]
$LN2@GetSlotSta:

; 53   : 	};

	pop	edi
	pop	esi
	pop	ebx
	mov	esp, ebp
	pop	ebp
	ret	4
?GetSlotState@CPlayerManager@@QAEHE@Z ENDP		; CPlayerManager::GetSlotState
; Function compile flags: /Odtp /RTCsu /ZI
_TEXT	ENDS
;	COMDAT ?GetIPAddress@CPlayerManager@@QAEKE@Z
_TEXT	SEGMENT
_this$ = -8						; size = 4
_playerID$ = 8						; size = 1
?GetIPAddress@CPlayerManager@@QAEKE@Z PROC		; CPlayerManager::GetIPAddress, COMDAT
; _this$ = ecx

; 85   : 	ULONG GetIPAddress(EntityId playerID) { return m_ulIPAddress[playerID]; };

	push	ebp
	mov	ebp, esp
	sub	esp, 204				; 000000ccH
	push	ebx
	push	esi
	push	edi
	push	ecx
	lea	edi, DWORD PTR [ebp-204]
	mov	ecx, 51					; 00000033H
	mov	eax, -858993460				; ccccccccH
	rep stosd
	pop	ecx
	mov	DWORD PTR _this$[ebp], ecx
	movzx	eax, BYTE PTR _playerID$[ebp]
	mov	ecx, DWORD PTR _this$[ebp]
	mov	eax, DWORD PTR [ecx+eax*4+1684]
	pop	edi
	pop	esi
	pop	ebx
	mov	esp, ebp
	pop	ebp
	ret	4
?GetIPAddress@CPlayerManager@@QAEKE@Z ENDP		; CPlayerManager::GetIPAddress
; Function compile flags: /Odtp /RTCsu /ZI
; File d:\vice-players-master\client\net\cnetworkmanager.h
_TEXT	ENDS
;	COMDAT ?GetPlayerManager@CNetworkManager@@QAEPAVCPlayerManager@@XZ
_TEXT	SEGMENT
_this$ = -8						; size = 4
?GetPlayerManager@CNetworkManager@@QAEPAVCPlayerManager@@XZ PROC ; CNetworkManager::GetPlayerManager, COMDAT
; _this$ = ecx

; 79   : 	CPlayerManager * GetPlayerManager() { return m_pPlayerManager; };

	push	ebp
	mov	ebp, esp
	sub	esp, 204				; 000000ccH
	push	ebx
	push	esi
	push	edi
	push	ecx
	lea	edi, DWORD PTR [ebp-204]
	mov	ecx, 51					; 00000033H
	mov	eax, -858993460				; ccccccccH
	rep stosd
	pop	ecx
	mov	DWORD PTR _this$[ebp], ecx
	mov	eax, DWORD PTR _this$[ebp]
	mov	eax, DWORD PTR [eax]
	pop	edi
	pop	esi
	pop	ebx
	mov	esp, ebp
	pop	ebp
	ret	0
?GetPlayerManager@CNetworkManager@@QAEPAVCPlayerManager@@XZ ENDP ; CNetworkManager::GetPlayerManager
_TEXT	ENDS
EXTRN	?m_pRPC4@CNetworkManager@@0PAVRPC4@RakNet@@A:DWORD ; CNetworkManager::m_pRPC4
; Function compile flags: /Odtp /RTCsu /ZI
;	COMDAT ?GetRPC4@CNetworkManager@@QAEPAVRPC4@RakNet@@XZ
_TEXT	SEGMENT
_this$ = -8						; size = 4
?GetRPC4@CNetworkManager@@QAEPAVRPC4@RakNet@@XZ PROC	; CNetworkManager::GetRPC4, COMDAT
; _this$ = ecx

; 86   : 	RPC4 * GetRPC4() { return m_pRPC4; };

	push	ebp
	mov	ebp, esp
	sub	esp, 204				; 000000ccH
	push	ebx
	push	esi
	push	edi
	push	ecx
	lea	edi, DWORD PTR [ebp-204]
	mov	ecx, 51					; 00000033H
	mov	eax, -858993460				; ccccccccH
	rep stosd
	pop	ecx
	mov	DWORD PTR _this$[ebp], ecx
	mov	eax, DWORD PTR ?m_pRPC4@CNetworkManager@@0PAVRPC4@RakNet@@A ; CNetworkManager::m_pRPC4
	pop	edi
	pop	esi
	pop	ebx
	mov	esp, ebp
	pop	ebp
	ret	0
?GetRPC4@CNetworkManager@@QAEPAVRPC4@RakNet@@XZ ENDP	; CNetworkManager::GetRPC4
_TEXT	ENDS
EXTRN	??0SystemAddress@RakNet@@QAE@IG@Z:PROC		; RakNet::SystemAddress::SystemAddress
; Function compile flags: /Odtp /RTCsu /ZI
; File d:\vice-players-master\raknet\raknettypes.h
;	COMDAT ??__EUNASSIGNED_SYSTEM_ADDRESS@RakNet@@YAXXZ
text$yc	SEGMENT
??__EUNASSIGNED_SYSTEM_ADDRESS@RakNet@@YAXXZ PROC	; RakNet::`dynamic initializer for 'UNASSIGNED_SYSTEM_ADDRESS'', COMDAT

; 196  : const SystemAddress UNASSIGNED_SYSTEM_ADDRESS(0xFFFFFFFF, 0xFFFF);

	push	ebp
	mov	ebp, esp
	sub	esp, 192				; 000000c0H
	push	ebx
	push	esi
	push	edi
	lea	edi, DWORD PTR [ebp-192]
	mov	ecx, 48					; 00000030H
	mov	eax, -858993460				; ccccccccH
	rep stosd
	push	65535					; 0000ffffH
	push	-1
	mov	ecx, OFFSET _UNASSIGNED_SYSTEM_ADDRESS
	call	??0SystemAddress@RakNet@@QAE@IG@Z	; RakNet::SystemAddress::SystemAddress
	pop	edi
	pop	esi
	pop	ebx
	add	esp, 192				; 000000c0H
	cmp	ebp, esp
	call	__RTC_CheckEsp
	mov	esp, ebp
	pop	ebp
	ret	0
??__EUNASSIGNED_SYSTEM_ADDRESS@RakNet@@YAXXZ ENDP	; RakNet::`dynamic initializer for 'UNASSIGNED_SYSTEM_ADDRESS''
text$yc	ENDS
PUBLIC	??0RakNetGUID@RakNet@@QAE@_K@Z			; RakNet::RakNetGUID::RakNetGUID
; Function compile flags: /Odtp /RTCsu /ZI
;	COMDAT ??__EUNASSIGNED_RAKNET_GUID@RakNet@@YAXXZ
text$yc	SEGMENT
??__EUNASSIGNED_RAKNET_GUID@RakNet@@YAXXZ PROC		; RakNet::`dynamic initializer for 'UNASSIGNED_RAKNET_GUID'', COMDAT

; 197  : const RakNetGUID UNASSIGNED_RAKNET_GUID((uint64_t)-1);

	push	ebp
	mov	ebp, esp
	sub	esp, 192				; 000000c0H
	push	ebx
	push	esi
	push	edi
	lea	edi, DWORD PTR [ebp-192]
	mov	ecx, 48					; 00000030H
	mov	eax, -858993460				; ccccccccH
	rep stosd
	push	-1
	push	-1
	mov	ecx, OFFSET _UNASSIGNED_RAKNET_GUID
	call	??0RakNetGUID@RakNet@@QAE@_K@Z		; RakNet::RakNetGUID::RakNetGUID
	pop	edi
	pop	esi
	pop	ebx
	add	esp, 192				; 000000c0H
	cmp	ebp, esp
	call	__RTC_CheckEsp
	mov	esp, ebp
	pop	ebp
	ret	0
??__EUNASSIGNED_RAKNET_GUID@RakNet@@YAXXZ ENDP		; RakNet::`dynamic initializer for 'UNASSIGNED_RAKNET_GUID''
; Function compile flags: /Odtp /RTCsu /ZI
text$yc	ENDS
;	COMDAT ??0RakNetGUID@RakNet@@QAE@_K@Z
_TEXT	SEGMENT
_this$ = -8						; size = 4
__g$ = 8						; size = 8
??0RakNetGUID@RakNet@@QAE@_K@Z PROC			; RakNet::RakNetGUID::RakNetGUID, COMDAT
; _this$ = ecx

; 157  : 	explicit RakNetGUID(uint64_t _g) {g=_g; systemIndex=(SystemIndex)-1;}

	push	ebp
	mov	ebp, esp
	sub	esp, 204				; 000000ccH
	push	ebx
	push	esi
	push	edi
	push	ecx
	lea	edi, DWORD PTR [ebp-204]
	mov	ecx, 51					; 00000033H
	mov	eax, -858993460				; ccccccccH
	rep stosd
	pop	ecx
	mov	DWORD PTR _this$[ebp], ecx
	mov	eax, DWORD PTR _this$[ebp]
	mov	ecx, DWORD PTR __g$[ebp]
	mov	DWORD PTR [eax], ecx
	mov	edx, DWORD PTR __g$[ebp+4]
	mov	DWORD PTR [eax+4], edx
	mov	eax, 65535				; 0000ffffH
	mov	ecx, DWORD PTR _this$[ebp]
	mov	WORD PTR [ecx+8], ax
	mov	eax, DWORD PTR _this$[ebp]
	pop	edi
	pop	esi
	pop	ebx
	mov	esp, ebp
	pop	ebp
	ret	8
??0RakNetGUID@RakNet@@QAE@_K@Z ENDP			; RakNet::RakNetGUID::RakNetGUID
_TEXT	ENDS
_BSS	SEGMENT
_UNASSIGNED_SYSTEM_ADDRESS DQ 01H DUP (?)
_UNASSIGNED_RAKNET_GUID DB 010H DUP (?)
_BSS	ENDS
CRT$XCU	SEGMENT
_UNASSIGNED_SYSTEM_ADDRESS$initializer$ DD FLAT:??__EUNASSIGNED_SYSTEM_ADDRESS@RakNet@@YAXXZ
_UNASSIGNED_RAKNET_GUID$initializer$ DD FLAT:??__EUNASSIGNED_RAKNET_GUID@RakNet@@YAXXZ
CRT$XCU	ENDS
END
