; Listing generated by Microsoft (R) Optimizing Compiler Version 15.00.30729.01 

	TITLE	d:\vice-players-master\Client\game\CWorld.cpp
	.686P
	.XMM
	include listing.inc
	.model	flat

INCLUDELIB LIBCMTD
INCLUDELIB OLDNAMES

PUBLIC	?Add@CWorld@@SAXPAU_ENTITY_TYPE@@@Z		; CWorld::Add
EXTRN	__RTC_CheckEsp:PROC
EXTRN	__RTC_Shutdown:PROC
EXTRN	__RTC_InitBase:PROC
;	COMDAT rtc$TMZ
; File d:\vice-players-master\client\game\cworld.cpp
rtc$TMZ	SEGMENT
__RTC_Shutdown.rtc$TMZ DD FLAT:__RTC_Shutdown
rtc$TMZ	ENDS
;	COMDAT rtc$IMZ
rtc$IMZ	SEGMENT
__RTC_InitBase.rtc$IMZ DD FLAT:__RTC_InitBase
; Function compile flags: /Odtp /RTCsu /ZI
rtc$IMZ	ENDS
;	COMDAT ?Add@CWorld@@SAXPAU_ENTITY_TYPE@@@Z
_TEXT	SEGMENT
_dwFunc$ = -8						; size = 4
_pEntity$ = 8						; size = 4
?Add@CWorld@@SAXPAU_ENTITY_TYPE@@@Z PROC		; CWorld::Add, COMDAT

; 14   : {

	push	ebp
	mov	ebp, esp
	sub	esp, 204				; 000000ccH
	push	ebx
	push	esi
	push	edi
	lea	edi, DWORD PTR [ebp-204]
	mov	ecx, 51					; 00000033H
	mov	eax, -858993460				; ccccccccH
	rep stosd

; 15   : 	DWORD dwFunc = FUNC_CWorld__Add;

	mov	DWORD PTR _dwFunc$[ebp], 5092336	; 004db3f0H

; 16   : 	_asm
; 17   : 	{
; 18   : 		push pEntity

	push	DWORD PTR _pEntity$[ebp]

; 19   : 		call dwFunc

	call	DWORD PTR _dwFunc$[ebp]

; 20   : 		add esp, 4

	add	esp, 4

; 21   : 	}
; 22   : }

	pop	edi
	pop	esi
	pop	ebx
	add	esp, 204				; 000000ccH
	cmp	ebp, esp
	call	__RTC_CheckEsp
	mov	esp, ebp
	pop	ebp
	ret	0
?Add@CWorld@@SAXPAU_ENTITY_TYPE@@@Z ENDP		; CWorld::Add
_TEXT	ENDS
PUBLIC	?Remove@CWorld@@SAXPAU_ENTITY_TYPE@@@Z		; CWorld::Remove
; Function compile flags: /Odtp /RTCsu /ZI
;	COMDAT ?Remove@CWorld@@SAXPAU_ENTITY_TYPE@@@Z
_TEXT	SEGMENT
_dwFunc$ = -8						; size = 4
_pEntity$ = 8						; size = 4
?Remove@CWorld@@SAXPAU_ENTITY_TYPE@@@Z PROC		; CWorld::Remove, COMDAT

; 25   : {

	push	ebp
	mov	ebp, esp
	sub	esp, 204				; 000000ccH
	push	ebx
	push	esi
	push	edi
	lea	edi, DWORD PTR [ebp-204]
	mov	ecx, 51					; 00000033H
	mov	eax, -858993460				; ccccccccH
	rep stosd

; 26   : 	DWORD dwFunc = FUNC_CWorld__Remove;

	mov	DWORD PTR _dwFunc$[ebp], 5092112	; 004db310H

; 27   : 	_asm
; 28   : 	{
; 29   : 		push pEntity

	push	DWORD PTR _pEntity$[ebp]

; 30   : 		call dwFunc

	call	DWORD PTR _dwFunc$[ebp]

; 31   : 		add esp, 4

	add	esp, 4

; 32   : 	}
; 33   : }

	pop	edi
	pop	esi
	pop	ebx
	add	esp, 204				; 000000ccH
	cmp	ebp, esp
	call	__RTC_CheckEsp
	mov	esp, ebp
	pop	ebp
	ret	0
?Remove@CWorld@@SAXPAU_ENTITY_TYPE@@@Z ENDP		; CWorld::Remove
_TEXT	ENDS
PUBLIC	?Clear@CWorld@@SAXXZ				; CWorld::Clear
; Function compile flags: /Odtp /RTCsu /ZI
;	COMDAT ?Clear@CWorld@@SAXXZ
_TEXT	SEGMENT
_dwFunc$ = -8						; size = 4
?Clear@CWorld@@SAXXZ PROC				; CWorld::Clear, COMDAT

; 36   : {

	push	ebp
	mov	ebp, esp
	sub	esp, 204				; 000000ccH
	push	ebx
	push	esi
	push	edi
	lea	edi, DWORD PTR [ebp-204]
	mov	ecx, 51					; 00000033H
	mov	eax, -858993460				; ccccccccH
	rep stosd

; 37   : 	DWORD dwFunc = FUNC_CWorld__Clear;

	mov	DWORD PTR _dwFunc$[ebp], 4223120	; 00407090H

; 38   : 	_asm
; 39   : 	{
; 40   : 		call dwFunc

	call	DWORD PTR _dwFunc$[ebp]

; 41   : 	}
; 42   : }

	pop	edi
	pop	esi
	pop	ebx
	add	esp, 204				; 000000ccH
	cmp	ebp, esp
	call	__RTC_CheckEsp
	mov	esp, ebp
	pop	ebp
	ret	0
?Clear@CWorld@@SAXXZ ENDP				; CWorld::Clear
_TEXT	ENDS
PUBLIC	?ClearArea@@YAXPAUVector3@@M_N@Z		; ClearArea
; Function compile flags: /Odtp /RTCsu /ZI
;	COMDAT ?ClearArea@@YAXPAUVector3@@M_N@Z
_TEXT	SEGMENT
_dwFunc$ = -8						; size = 4
_pArea$ = 8						; size = 4
_fRadius$ = 12						; size = 4
_bIncludeProjectilesAndParticles$ = 16			; size = 1
?ClearArea@@YAXPAUVector3@@M_N@Z PROC			; ClearArea, COMDAT

; 45   : {

	push	ebp
	mov	ebp, esp
	sub	esp, 204				; 000000ccH
	push	ebx
	push	esi
	push	edi
	lea	edi, DWORD PTR [ebp-204]
	mov	ecx, 51					; 00000033H
	mov	eax, -858993460				; ccccccccH
	rep stosd

; 46   : 	DWORD dwFunc = FUNC_CWorld__ClearArea;

	mov	DWORD PTR _dwFunc$[ebp], 5060848	; 004d38f0H

; 47   : 	_asm
; 48   : 	{
; 49   : 		push bIncludeProjectilesAndParticles

	push	DWORD PTR _bIncludeProjectilesAndParticles$[ebp]

; 50   : 		push fRadius

	push	DWORD PTR _fRadius$[ebp]

; 51   : 		push pArea

	push	DWORD PTR _pArea$[ebp]

; 52   : 		call dwFunc

	call	DWORD PTR _dwFunc$[ebp]

; 53   : 		add esp, 0Ch

	add	esp, 12					; 0000000cH

; 54   : 	}
; 55   : }

	pop	edi
	pop	esi
	pop	ebx
	add	esp, 204				; 000000ccH
	cmp	ebp, esp
	call	__RTC_CheckEsp
	mov	esp, ebp
	pop	ebp
	ret	0
?ClearArea@@YAXPAUVector3@@M_N@Z ENDP			; ClearArea
_TEXT	ENDS
PUBLIC	__real@00000000
PUBLIC	?FindGroundZFromCoords@CWorld@@SAMMM@Z		; CWorld::FindGroundZFromCoords
EXTRN	__fltused:DWORD
;	COMDAT __real@00000000
CONST	SEGMENT
__real@00000000 DD 000000000r			; 0
; Function compile flags: /Odtp /RTCsu /ZI
CONST	ENDS
;	COMDAT ?FindGroundZFromCoords@CWorld@@SAMMM@Z
_TEXT	SEGMENT
_fZ$ = -20						; size = 4
_dwFunc$ = -8						; size = 4
_fX$ = 8						; size = 4
_fY$ = 12						; size = 4
?FindGroundZFromCoords@CWorld@@SAMMM@Z PROC		; CWorld::FindGroundZFromCoords, COMDAT

; 58   : {

	push	ebp
	mov	ebp, esp
	sub	esp, 216				; 000000d8H
	push	ebx
	push	esi
	push	edi
	lea	edi, DWORD PTR [ebp-216]
	mov	ecx, 54					; 00000036H
	mov	eax, -858993460				; ccccccccH
	rep stosd

; 59   : 	DWORD dwFunc = FUNC_CWorld__FindGroundZFromCoords;

	mov	DWORD PTR _dwFunc$[ebp], 5068096	; 004d5540H

; 60   : 	float fZ = 0.0f;

	fldz
	fstp	DWORD PTR _fZ$[ebp]

; 61   : 	_asm
; 62   : 	{
; 63   : 		push fY

	push	DWORD PTR _fY$[ebp]

; 64   : 		push fX

	push	DWORD PTR _fX$[ebp]

; 65   : 		call dwFunc

	call	DWORD PTR _dwFunc$[ebp]

; 66   : 		fstp fZ

	fstp	DWORD PTR _fZ$[ebp]

; 67   : 	}
; 68   : 	return fZ;

	fld	DWORD PTR _fZ$[ebp]

; 69   : }

	pop	edi
	pop	esi
	pop	ebx
	add	esp, 216				; 000000d8H
	cmp	ebp, esp
	call	__RTC_CheckEsp
	mov	esp, ebp
	pop	ebp
	ret	0
?FindGroundZFromCoords@CWorld@@SAMMM@Z ENDP		; CWorld::FindGroundZFromCoords
_TEXT	ENDS
PUBLIC	?IsEntityOnScreen@CWorld@@SA_NPAU_ENTITY_TYPE@@@Z ; CWorld::IsEntityOnScreen
; Function compile flags: /Odtp /RTCsu /ZI
;	COMDAT ?IsEntityOnScreen@CWorld@@SA_NPAU_ENTITY_TYPE@@@Z
_TEXT	SEGMENT
_bReturn$ = -17						; size = 1
_dwFunc$ = -8						; size = 4
_pEntity$ = 8						; size = 4
?IsEntityOnScreen@CWorld@@SA_NPAU_ENTITY_TYPE@@@Z PROC	; CWorld::IsEntityOnScreen, COMDAT

; 72   : {

	push	ebp
	mov	ebp, esp
	sub	esp, 216				; 000000d8H
	push	ebx
	push	esi
	push	edi
	lea	edi, DWORD PTR [ebp-216]
	mov	ecx, 54					; 00000036H
	mov	eax, -858993460				; ccccccccH
	rep stosd

; 73   : 	DWORD dwFunc = FUNC_CWorld__IsEntityOnScreen;

	mov	DWORD PTR _dwFunc$[ebp], 4752848	; 004885d0H

; 74   : 	bool bReturn = false;

	mov	BYTE PTR _bReturn$[ebp], 0

; 75   : 	_asm
; 76   : 	{
; 77   : 		push pEntity

	push	DWORD PTR _pEntity$[ebp]

; 78   : 		call dwFunc

	call	DWORD PTR _dwFunc$[ebp]

; 79   : 		mov bReturn, al

	mov	BYTE PTR _bReturn$[ebp], al

; 80   : 		add esp, 4

	add	esp, 4

; 81   : 	}
; 82   : 	return bReturn;

	mov	al, BYTE PTR _bReturn$[ebp]

; 83   : }

	pop	edi
	pop	esi
	pop	ebx
	add	esp, 216				; 000000d8H
	cmp	ebp, esp
	call	__RTC_CheckEsp
	mov	esp, ebp
	pop	ebp
	ret	0
?IsEntityOnScreen@CWorld@@SA_NPAU_ENTITY_TYPE@@@Z ENDP	; CWorld::IsEntityOnScreen
_TEXT	ENDS
PUBLIC	?RemoveReferencesToDeletedObject@CWorld@@SAXPAU_ENTITY_TYPE@@@Z ; CWorld::RemoveReferencesToDeletedObject
; Function compile flags: /Odtp /RTCsu /ZI
;	COMDAT ?RemoveReferencesToDeletedObject@CWorld@@SAXPAU_ENTITY_TYPE@@@Z
_TEXT	SEGMENT
_dwFunc$ = -8						; size = 4
_pEntity$ = 8						; size = 4
?RemoveReferencesToDeletedObject@CWorld@@SAXPAU_ENTITY_TYPE@@@Z PROC ; CWorld::RemoveReferencesToDeletedObject, COMDAT

; 86   : {

	push	ebp
	mov	ebp, esp
	sub	esp, 204				; 000000ccH
	push	ebx
	push	esi
	push	edi
	lea	edi, DWORD PTR [ebp-204]
	mov	ecx, 51					; 00000033H
	mov	eax, -858993460				; ccccccccH
	rep stosd

; 87   : 	DWORD dwFunc = FUNC_CWorld__RemoveReferencesToDeletedObject;

	mov	DWORD PTR _dwFunc$[ebp], 5066896	; 004d5090H

; 88   : 	_asm
; 89   : 	{
; 90   : 		push pEntity

	push	DWORD PTR _pEntity$[ebp]

; 91   : 		call dwFunc

	call	DWORD PTR _dwFunc$[ebp]

; 92   : 		add esp, 4

	add	esp, 4

; 93   : 	}
; 94   : }

	pop	edi
	pop	esi
	pop	ebx
	add	esp, 204				; 000000ccH
	cmp	ebp, esp
	call	__RTC_CheckEsp
	mov	esp, ebp
	pop	ebp
	ret	0
?RemoveReferencesToDeletedObject@CWorld@@SAXPAU_ENTITY_TYPE@@@Z ENDP ; CWorld::RemoveReferencesToDeletedObject
_TEXT	ENDS
END
