; Listing generated by Microsoft (R) Optimizing Compiler Version 15.00.30729.01 

	TITLE	d:\vice-players-master\Client\game\KeySync.cpp
	.686P
	.XMM
	include listing.inc
	.model	flat

INCLUDELIB LIBCMTD
INCLUDELIB OLDNAMES

PUBLIC	?SavedKeys@@3U<unnamed-type-SavedKeys>@@A	; SavedKeys
PUBLIC	?gcsRemotePlayerKeys@@3PAU_GTA_CONTROLSET@@A	; gcsRemotePlayerKeys
PUBLIC	?pGcsInternalKeys@@3PAU_GTA_CONTROLSET@@A	; pGcsInternalKeys
_BSS	SEGMENT
?SavedKeys@@3U<unnamed-type-SavedKeys>@@A DB 011cH DUP (?) ; SavedKeys
?gcsRemotePlayerKeys@@3PAU_GTA_CONTROLSET@@A DB 036b0H DUP (?) ; gcsRemotePlayerKeys
_BSS	ENDS
_DATA	SEGMENT
?pGcsInternalKeys@@3PAU_GTA_CONTROLSET@@A DD 07dbcb0H	; pGcsInternalKeys
_DATA	ENDS
PUBLIC	?GameKeyStatesInit@@YAXXZ			; GameKeyStatesInit
EXTRN	_memset:PROC
EXTRN	__RTC_CheckEsp:PROC
EXTRN	__RTC_Shutdown:PROC
EXTRN	__RTC_InitBase:PROC
;	COMDAT rtc$TMZ
; File d:\vice-players-master\client\game\keysync.cpp
rtc$TMZ	SEGMENT
__RTC_Shutdown.rtc$TMZ DD FLAT:__RTC_Shutdown
rtc$TMZ	ENDS
;	COMDAT rtc$IMZ
rtc$IMZ	SEGMENT
__RTC_InitBase.rtc$IMZ DD FLAT:__RTC_InitBase
; Function compile flags: /Odtp /RTCsu /ZI
rtc$IMZ	ENDS
;	COMDAT ?GameKeyStatesInit@@YAXXZ
_TEXT	SEGMENT
?GameKeyStatesInit@@YAXXZ PROC				; GameKeyStatesInit, COMDAT

; 31   : {

	push	ebp
	mov	ebp, esp
	sub	esp, 192				; 000000c0H
	push	ebx
	push	esi
	push	edi
	lea	edi, DWORD PTR [ebp-192]
	mov	ecx, 48					; 00000030H
	mov	eax, -858993460				; ccccccccH
	rep stosd

; 32   : 	memset(&SavedKeys, 0, sizeof(SavedKeys));

	push	284					; 0000011cH
	push	0
	push	OFFSET ?SavedKeys@@3U<unnamed-type-SavedKeys>@@A ; SavedKeys
	call	_memset
	add	esp, 12					; 0000000cH

; 33   : 	memset(&gcsRemotePlayerKeys, 0, sizeof(gcsRemotePlayerKeys));

	push	14000					; 000036b0H
	push	0
	push	OFFSET ?gcsRemotePlayerKeys@@3PAU_GTA_CONTROLSET@@A ; gcsRemotePlayerKeys
	call	_memset
	add	esp, 12					; 0000000cH

; 34   : }

	pop	edi
	pop	esi
	pop	ebx
	add	esp, 192				; 000000c0H
	cmp	ebp, esp
	call	__RTC_CheckEsp
	mov	esp, ebp
	pop	ebp
	ret	0
?GameKeyStatesInit@@YAXXZ ENDP				; GameKeyStatesInit
_TEXT	ENDS
PUBLIC	?GetCamera@CGame@@QAEPAVCCamera@@XZ		; CGame::GetCamera
PUBLIC	?GameStoreLocalPlayerKeys@@YAXXZ		; GameStoreLocalPlayerKeys
EXTRN	?GetDriveByRight@CCamera@@QAEEXZ:PROC		; CCamera::GetDriveByRight
EXTRN	?GetDriveByLeft@CCamera@@QAEEXZ:PROC		; CCamera::GetDriveByLeft
EXTRN	?pGame@@3PAVCGame@@A:DWORD			; pGame
EXTRN	_memcpy:PROC
; Function compile flags: /Odtp /RTCsu /ZI
;	COMDAT ?GameStoreLocalPlayerKeys@@YAXXZ
_TEXT	SEGMENT
_pCamera$ = -8						; size = 4
?GameStoreLocalPlayerKeys@@YAXXZ PROC			; GameStoreLocalPlayerKeys, COMDAT

; 39   : {

	push	ebp
	mov	ebp, esp
	sub	esp, 204				; 000000ccH
	push	ebx
	push	esi
	push	edi
	lea	edi, DWORD PTR [ebp-204]
	mov	ecx, 51					; 00000033H
	mov	eax, -858993460				; ccccccccH
	rep stosd

; 40   : 	memcpy(&SavedKeys.gcsControlState, pGcsInternalKeys, sizeof(GTA_CONTROLSET));

	push	280					; 00000118H
	mov	eax, DWORD PTR ?pGcsInternalKeys@@3PAU_GTA_CONTROLSET@@A ; pGcsInternalKeys
	push	eax
	push	OFFSET ?SavedKeys@@3U<unnamed-type-SavedKeys>@@A ; SavedKeys
	call	_memcpy
	add	esp, 12					; 0000000cH

; 41   : 
; 42   : 	CCamera * pCamera = pGame->GetCamera();

	mov	ecx, DWORD PTR ?pGame@@3PAVCGame@@A	; pGame
	call	?GetCamera@CGame@@QAEPAVCCamera@@XZ	; CGame::GetCamera
	mov	DWORD PTR _pCamera$[ebp], eax

; 43   : 
; 44   : 	if(pCamera)

	cmp	DWORD PTR _pCamera$[ebp], 0
	je	SHORT $LN2@GameStoreL

; 45   : 	{
; 46   : 		// save current drive by state
; 47   : 		SavedKeys.byteDriveByLeft = pCamera->GetDriveByLeft();

	mov	ecx, DWORD PTR _pCamera$[ebp]
	call	?GetDriveByLeft@CCamera@@QAEEXZ		; CCamera::GetDriveByLeft
	mov	BYTE PTR ?SavedKeys@@3U<unnamed-type-SavedKeys>@@A+280, al

; 48   : 		SavedKeys.byteDriveByRight = pCamera->GetDriveByRight();

	mov	ecx, DWORD PTR _pCamera$[ebp]
	call	?GetDriveByRight@CCamera@@QAEEXZ	; CCamera::GetDriveByRight
	mov	BYTE PTR ?SavedKeys@@3U<unnamed-type-SavedKeys>@@A+281, al
$LN2@GameStoreL:

; 49   : 	}
; 50   : }

	pop	edi
	pop	esi
	pop	ebx
	add	esp, 204				; 000000ccH
	cmp	ebp, esp
	call	__RTC_CheckEsp
	mov	esp, ebp
	pop	ebp
	ret	0
?GameStoreLocalPlayerKeys@@YAXXZ ENDP			; GameStoreLocalPlayerKeys
_TEXT	ENDS
PUBLIC	?GameSetLocalPlayerKeys@@YAXXZ			; GameSetLocalPlayerKeys
EXTRN	?SetDriveByRight@CCamera@@QAEXE@Z:PROC		; CCamera::SetDriveByRight
EXTRN	?SetDriveByLeft@CCamera@@QAEXE@Z:PROC		; CCamera::SetDriveByLeft
; Function compile flags: /Odtp /RTCsu /ZI
;	COMDAT ?GameSetLocalPlayerKeys@@YAXXZ
_TEXT	SEGMENT
_pCamera$ = -8						; size = 4
?GameSetLocalPlayerKeys@@YAXXZ PROC			; GameSetLocalPlayerKeys, COMDAT

; 55   : {

	push	ebp
	mov	ebp, esp
	sub	esp, 204				; 000000ccH
	push	ebx
	push	esi
	push	edi
	lea	edi, DWORD PTR [ebp-204]
	mov	ecx, 51					; 00000033H
	mov	eax, -858993460				; ccccccccH
	rep stosd

; 56   : 	memcpy(pGcsInternalKeys, &SavedKeys.gcsControlState, sizeof(GTA_CONTROLSET));

	push	280					; 00000118H
	push	OFFSET ?SavedKeys@@3U<unnamed-type-SavedKeys>@@A ; SavedKeys
	mov	eax, DWORD PTR ?pGcsInternalKeys@@3PAU_GTA_CONTROLSET@@A ; pGcsInternalKeys
	push	eax
	call	_memcpy
	add	esp, 12					; 0000000cH

; 57   : 
; 58   : 	CCamera * pCamera = pGame->GetCamera();

	mov	ecx, DWORD PTR ?pGame@@3PAVCGame@@A	; pGame
	call	?GetCamera@CGame@@QAEPAVCCamera@@XZ	; CGame::GetCamera
	mov	DWORD PTR _pCamera$[ebp], eax

; 59   : 
; 60   : 	if(pCamera)

	cmp	DWORD PTR _pCamera$[ebp], 0
	je	SHORT $LN2@GameSetLoc

; 61   : 	{
; 62   : 		// restore the drive by state also
; 63   : 		pCamera->SetDriveByLeft(SavedKeys.byteDriveByLeft);

	movzx	eax, BYTE PTR ?SavedKeys@@3U<unnamed-type-SavedKeys>@@A+280
	push	eax
	mov	ecx, DWORD PTR _pCamera$[ebp]
	call	?SetDriveByLeft@CCamera@@QAEXE@Z	; CCamera::SetDriveByLeft

; 64   : 		pCamera->SetDriveByRight(SavedKeys.byteDriveByRight);

	movzx	eax, BYTE PTR ?SavedKeys@@3U<unnamed-type-SavedKeys>@@A+281
	push	eax
	mov	ecx, DWORD PTR _pCamera$[ebp]
	call	?SetDriveByRight@CCamera@@QAEXE@Z	; CCamera::SetDriveByRight
$LN2@GameSetLoc:

; 65   : 	}
; 66   : }

	pop	edi
	pop	esi
	pop	ebx
	add	esp, 204				; 000000ccH
	cmp	ebp, esp
	call	__RTC_CheckEsp
	mov	esp, ebp
	pop	ebp
	ret	0
?GameSetLocalPlayerKeys@@YAXXZ ENDP			; GameSetLocalPlayerKeys
_TEXT	ENDS
PUBLIC	?GameStoreRemotePlayerKeys@@YAXHPAU_GTA_CONTROLSET@@@Z ; GameStoreRemotePlayerKeys
; Function compile flags: /Odtp /RTCsu /ZI
;	COMDAT ?GameStoreRemotePlayerKeys@@YAXHPAU_GTA_CONTROLSET@@@Z
_TEXT	SEGMENT
_iPlayer$ = 8						; size = 4
_pGcsKeyStates$ = 12					; size = 4
?GameStoreRemotePlayerKeys@@YAXHPAU_GTA_CONTROLSET@@@Z PROC ; GameStoreRemotePlayerKeys, COMDAT

; 71   : {

	push	ebp
	mov	ebp, esp
	sub	esp, 192				; 000000c0H
	push	ebx
	push	esi
	push	edi
	lea	edi, DWORD PTR [ebp-192]
	mov	ecx, 48					; 00000030H
	mov	eax, -858993460				; ccccccccH
	rep stosd

; 72   : 	memcpy(&gcsRemotePlayerKeys[iPlayer], pGcsKeyStates, sizeof(GTA_CONTROLSET));

	push	280					; 00000118H
	mov	eax, DWORD PTR _pGcsKeyStates$[ebp]
	push	eax
	mov	ecx, DWORD PTR _iPlayer$[ebp]
	imul	ecx, 280				; 00000118H
	add	ecx, OFFSET ?gcsRemotePlayerKeys@@3PAU_GTA_CONTROLSET@@A ; gcsRemotePlayerKeys
	push	ecx
	call	_memcpy
	add	esp, 12					; 0000000cH

; 73   : }

	pop	edi
	pop	esi
	pop	ebx
	add	esp, 192				; 000000c0H
	cmp	ebp, esp
	call	__RTC_CheckEsp
	mov	esp, ebp
	pop	ebp
	ret	0
?GameStoreRemotePlayerKeys@@YAXHPAU_GTA_CONTROLSET@@@Z ENDP ; GameStoreRemotePlayerKeys
_TEXT	ENDS
PUBLIC	?GameSetRemotePlayerKeys@@YAXH@Z		; GameSetRemotePlayerKeys
; Function compile flags: /Odtp /RTCsu /ZI
;	COMDAT ?GameSetRemotePlayerKeys@@YAXH@Z
_TEXT	SEGMENT
_pCamera$ = -8						; size = 4
_iPlayer$ = 8						; size = 4
?GameSetRemotePlayerKeys@@YAXH@Z PROC			; GameSetRemotePlayerKeys, COMDAT

; 78   : {

	push	ebp
	mov	ebp, esp
	sub	esp, 204				; 000000ccH
	push	ebx
	push	esi
	push	edi
	lea	edi, DWORD PTR [ebp-204]
	mov	ecx, 51					; 00000033H
	mov	eax, -858993460				; ccccccccH
	rep stosd

; 79   : 	memcpy(pGcsInternalKeys, &gcsRemotePlayerKeys[iPlayer], sizeof(GTA_CONTROLSET));

	push	280					; 00000118H
	mov	eax, DWORD PTR _iPlayer$[ebp]
	imul	eax, 280				; 00000118H
	add	eax, OFFSET ?gcsRemotePlayerKeys@@3PAU_GTA_CONTROLSET@@A ; gcsRemotePlayerKeys
	push	eax
	mov	ecx, DWORD PTR ?pGcsInternalKeys@@3PAU_GTA_CONTROLSET@@A ; pGcsInternalKeys
	push	ecx
	call	_memcpy
	add	esp, 12					; 0000000cH

; 80   : 
; 81   : 	CCamera * pCamera = pGame->GetCamera();

	mov	ecx, DWORD PTR ?pGame@@3PAVCGame@@A	; pGame
	call	?GetCamera@CGame@@QAEPAVCCamera@@XZ	; CGame::GetCamera
	mov	DWORD PTR _pCamera$[ebp], eax

; 82   : 
; 83   : 	if(pCamera)

	cmp	DWORD PTR _pCamera$[ebp], 0
	je	SHORT $LN6@GameSetRem

; 84   : 	{
; 85   : 		if(gcsRemotePlayerKeys[iPlayer].wKeys1[KEY_INCAR_LOOKL]) {

	mov	eax, DWORD PTR _iPlayer$[ebp]
	imul	eax, 280				; 00000118H
	movzx	ecx, WORD PTR ?gcsRemotePlayerKeys@@3PAU_GTA_CONTROLSET@@A[eax+10]
	test	ecx, ecx
	je	SHORT $LN4@GameSetRem

; 86   : 			pCamera->SetDriveByLeft(1);

	push	1
	mov	ecx, DWORD PTR _pCamera$[ebp]
	call	?SetDriveByLeft@CCamera@@QAEXE@Z	; CCamera::SetDriveByLeft

; 87   : 		} else {

	jmp	SHORT $LN3@GameSetRem
$LN4@GameSetRem:

; 88   : 			pCamera->SetDriveByLeft(0);

	push	0
	mov	ecx, DWORD PTR _pCamera$[ebp]
	call	?SetDriveByLeft@CCamera@@QAEXE@Z	; CCamera::SetDriveByLeft
$LN3@GameSetRem:

; 89   : 		}	
; 90   : 
; 91   : 		if(gcsRemotePlayerKeys[iPlayer].wKeys1[KEY_INCAR_LOOKR]) {

	mov	eax, DWORD PTR _iPlayer$[ebp]
	imul	eax, 280				; 00000118H
	movzx	ecx, WORD PTR ?gcsRemotePlayerKeys@@3PAU_GTA_CONTROLSET@@A[eax+14]
	test	ecx, ecx
	je	SHORT $LN2@GameSetRem

; 92   : 			pCamera->SetDriveByRight(1);

	push	1
	mov	ecx, DWORD PTR _pCamera$[ebp]
	call	?SetDriveByRight@CCamera@@QAEXE@Z	; CCamera::SetDriveByRight

; 93   : 		} else {

	jmp	SHORT $LN6@GameSetRem
$LN2@GameSetRem:

; 94   : 			pCamera->SetDriveByRight(0);

	push	0
	mov	ecx, DWORD PTR _pCamera$[ebp]
	call	?SetDriveByRight@CCamera@@QAEXE@Z	; CCamera::SetDriveByRight
$LN6@GameSetRem:

; 95   : 		}
; 96   : 	}
; 97   : }

	pop	edi
	pop	esi
	pop	ebx
	add	esp, 204				; 000000ccH
	cmp	ebp, esp
	call	__RTC_CheckEsp
	mov	esp, ebp
	pop	ebp
	ret	0
?GameSetRemotePlayerKeys@@YAXH@Z ENDP			; GameSetRemotePlayerKeys
_TEXT	ENDS
PUBLIC	?GameGetInternalKeys@@YAPAU_GTA_CONTROLSET@@XZ	; GameGetInternalKeys
; Function compile flags: /Odtp /RTCsu /ZI
;	COMDAT ?GameGetInternalKeys@@YAPAU_GTA_CONTROLSET@@XZ
_TEXT	SEGMENT
?GameGetInternalKeys@@YAPAU_GTA_CONTROLSET@@XZ PROC	; GameGetInternalKeys, COMDAT

; 102  : {

	push	ebp
	mov	ebp, esp
	sub	esp, 192				; 000000c0H
	push	ebx
	push	esi
	push	edi
	lea	edi, DWORD PTR [ebp-192]
	mov	ecx, 48					; 00000030H
	mov	eax, -858993460				; ccccccccH
	rep stosd

; 103  : 	return pGcsInternalKeys;

	mov	eax, DWORD PTR ?pGcsInternalKeys@@3PAU_GTA_CONTROLSET@@A ; pGcsInternalKeys

; 104  : }

	pop	edi
	pop	esi
	pop	ebx
	mov	esp, ebp
	pop	ebp
	ret	0
?GameGetInternalKeys@@YAPAU_GTA_CONTROLSET@@XZ ENDP	; GameGetInternalKeys
_TEXT	ENDS
PUBLIC	?GameGetLocalPlayerKeys@@YAPAU_GTA_CONTROLSET@@XZ ; GameGetLocalPlayerKeys
; Function compile flags: /Odtp /RTCsu /ZI
;	COMDAT ?GameGetLocalPlayerKeys@@YAPAU_GTA_CONTROLSET@@XZ
_TEXT	SEGMENT
?GameGetLocalPlayerKeys@@YAPAU_GTA_CONTROLSET@@XZ PROC	; GameGetLocalPlayerKeys, COMDAT

; 109  : {

	push	ebp
	mov	ebp, esp
	sub	esp, 192				; 000000c0H
	push	ebx
	push	esi
	push	edi
	lea	edi, DWORD PTR [ebp-192]
	mov	ecx, 48					; 00000030H
	mov	eax, -858993460				; ccccccccH
	rep stosd

; 110  : 	return &SavedKeys.gcsControlState;

	mov	eax, OFFSET ?SavedKeys@@3U<unnamed-type-SavedKeys>@@A ; SavedKeys

; 111  : }

	pop	edi
	pop	esi
	pop	ebx
	mov	esp, ebp
	pop	ebp
	ret	0
?GameGetLocalPlayerKeys@@YAPAU_GTA_CONTROLSET@@XZ ENDP	; GameGetLocalPlayerKeys
_TEXT	ENDS
PUBLIC	?GameGetPlayerKeys@@YAPAU_GTA_CONTROLSET@@H@Z	; GameGetPlayerKeys
; Function compile flags: /Odtp /RTCsu /ZI
;	COMDAT ?GameGetPlayerKeys@@YAPAU_GTA_CONTROLSET@@H@Z
_TEXT	SEGMENT
_iPlayer$ = 8						; size = 4
?GameGetPlayerKeys@@YAPAU_GTA_CONTROLSET@@H@Z PROC	; GameGetPlayerKeys, COMDAT

; 116  : {

	push	ebp
	mov	ebp, esp
	sub	esp, 192				; 000000c0H
	push	ebx
	push	esi
	push	edi
	lea	edi, DWORD PTR [ebp-192]
	mov	ecx, 48					; 00000030H
	mov	eax, -858993460				; ccccccccH
	rep stosd

; 117  : 	return &gcsRemotePlayerKeys[iPlayer];

	mov	eax, DWORD PTR _iPlayer$[ebp]
	imul	eax, 280				; 00000118H
	add	eax, OFFSET ?gcsRemotePlayerKeys@@3PAU_GTA_CONTROLSET@@A ; gcsRemotePlayerKeys

; 118  : }

	pop	edi
	pop	esi
	pop	ebx
	mov	esp, ebp
	pop	ebp
	ret	0
?GameGetPlayerKeys@@YAPAU_GTA_CONTROLSET@@H@Z ENDP	; GameGetPlayerKeys
_TEXT	ENDS
PUBLIC	?GameResetPlayerKeys@@YAXH@Z			; GameResetPlayerKeys
; Function compile flags: /Odtp /RTCsu /ZI
;	COMDAT ?GameResetPlayerKeys@@YAXH@Z
_TEXT	SEGMENT
_iPlayer$ = 8						; size = 4
?GameResetPlayerKeys@@YAXH@Z PROC			; GameResetPlayerKeys, COMDAT

; 123  : {

	push	ebp
	mov	ebp, esp
	sub	esp, 192				; 000000c0H
	push	ebx
	push	esi
	push	edi
	lea	edi, DWORD PTR [ebp-192]
	mov	ecx, 48					; 00000030H
	mov	eax, -858993460				; ccccccccH
	rep stosd

; 124  : 	memset(&gcsRemotePlayerKeys[iPlayer], 0, sizeof(GTA_CONTROLSET));

	push	280					; 00000118H
	push	0
	mov	eax, DWORD PTR _iPlayer$[ebp]
	imul	eax, 280				; 00000118H
	add	eax, OFFSET ?gcsRemotePlayerKeys@@3PAU_GTA_CONTROLSET@@A ; gcsRemotePlayerKeys
	push	eax
	call	_memset
	add	esp, 12					; 0000000cH

; 125  : }

	pop	edi
	pop	esi
	pop	ebx
	add	esp, 192				; 000000c0H
	cmp	ebp, esp
	call	__RTC_CheckEsp
	mov	esp, ebp
	pop	ebp
	ret	0
?GameResetPlayerKeys@@YAXH@Z ENDP			; GameResetPlayerKeys
_TEXT	ENDS
PUBLIC	?GameResetLocalKeys@@YAXXZ			; GameResetLocalKeys
; Function compile flags: /Odtp /RTCsu /ZI
;	COMDAT ?GameResetLocalKeys@@YAXXZ
_TEXT	SEGMENT
?GameResetLocalKeys@@YAXXZ PROC				; GameResetLocalKeys, COMDAT

; 130  : {

	push	ebp
	mov	ebp, esp
	sub	esp, 192				; 000000c0H
	push	ebx
	push	esi
	push	edi
	lea	edi, DWORD PTR [ebp-192]
	mov	ecx, 48					; 00000030H
	mov	eax, -858993460				; ccccccccH
	rep stosd

; 131  : 	memset(pGcsInternalKeys, 0, sizeof(GTA_CONTROLSET));

	push	280					; 00000118H
	push	0
	mov	eax, DWORD PTR ?pGcsInternalKeys@@3PAU_GTA_CONTROLSET@@A ; pGcsInternalKeys
	push	eax
	call	_memset
	add	esp, 12					; 0000000cH

; 132  : }

	pop	edi
	pop	esi
	pop	ebx
	add	esp, 192				; 000000c0H
	cmp	ebp, esp
	call	__RTC_CheckEsp
	mov	esp, ebp
	pop	ebp
	ret	0
?GameResetLocalKeys@@YAXXZ ENDP				; GameResetLocalKeys
; Function compile flags: /Odtp /RTCsu /ZI
; File d:\vice-players-master\client\game\cgame.h
_TEXT	ENDS
;	COMDAT ?GetCamera@CGame@@QAEPAVCCamera@@XZ
_TEXT	SEGMENT
_this$ = -8						; size = 4
?GetCamera@CGame@@QAEPAVCCamera@@XZ PROC		; CGame::GetCamera, COMDAT
; _this$ = ecx

; 106  : 	CCamera     *GetCamera() {	return m_pInternalCamera; };

	push	ebp
	mov	ebp, esp
	sub	esp, 204				; 000000ccH
	push	ebx
	push	esi
	push	edi
	push	ecx
	lea	edi, DWORD PTR [ebp-204]
	mov	ecx, 51					; 00000033H
	mov	eax, -858993460				; ccccccccH
	rep stosd
	pop	ecx
	mov	DWORD PTR _this$[ebp], ecx
	mov	eax, DWORD PTR _this$[ebp]
	mov	eax, DWORD PTR [eax]
	pop	edi
	pop	esi
	pop	ebx
	mov	esp, ebp
	pop	ebp
	ret	0
?GetCamera@CGame@@QAEPAVCCamera@@XZ ENDP		; CGame::GetCamera
_TEXT	ENDS
END
