; Listing generated by Microsoft (R) Optimizing Compiler Version 15.00.30729.01 

	TITLE	d:\vice-players-master\Client\md5.cpp
	.686P
	.XMM
	include listing.inc
	.model	flat

INCLUDELIB LIBCMTD
INCLUDELIB OLDNAMES

PUBLIC	?MD5Init@@YAXPAUMD5Context@@@Z			; MD5Init
EXTRN	__RTC_Shutdown:PROC
EXTRN	__RTC_InitBase:PROC
;	COMDAT rtc$TMZ
; File d:\vice-players-master\client\md5.cpp
rtc$TMZ	SEGMENT
__RTC_Shutdown.rtc$TMZ DD FLAT:__RTC_Shutdown
rtc$TMZ	ENDS
;	COMDAT rtc$IMZ
rtc$IMZ	SEGMENT
__RTC_InitBase.rtc$IMZ DD FLAT:__RTC_InitBase
; Function compile flags: /Odtp /RTCsu /ZI
rtc$IMZ	ENDS
;	COMDAT ?MD5Init@@YAXPAUMD5Context@@@Z
_TEXT	SEGMENT
_ctx$ = 8						; size = 4
?MD5Init@@YAXPAUMD5Context@@@Z PROC			; MD5Init, COMDAT

; 49   : {

	push	ebp
	mov	ebp, esp
	sub	esp, 192				; 000000c0H
	push	ebx
	push	esi
	push	edi
	lea	edi, DWORD PTR [ebp-192]
	mov	ecx, 48					; 00000030H
	mov	eax, -858993460				; ccccccccH
	rep stosd

; 50   :     ctx->buf[0] = 0x67452301;

	mov	eax, DWORD PTR _ctx$[ebp]
	mov	DWORD PTR [eax], 1732584193		; 67452301H

; 51   :     ctx->buf[1] = 0xefcdab89;

	mov	eax, DWORD PTR _ctx$[ebp]
	mov	DWORD PTR [eax+4], -271733879		; efcdab89H

; 52   :     ctx->buf[2] = 0x98badcfe;

	mov	eax, DWORD PTR _ctx$[ebp]
	mov	DWORD PTR [eax+8], -1732584194		; 98badcfeH

; 53   :     ctx->buf[3] = 0x10325476;

	mov	eax, DWORD PTR _ctx$[ebp]
	mov	DWORD PTR [eax+12], 271733878		; 10325476H

; 54   : 
; 55   :     ctx->bits[0] = 0;

	mov	eax, DWORD PTR _ctx$[ebp]
	mov	DWORD PTR [eax+16], 0

; 56   :     ctx->bits[1] = 0;

	mov	eax, DWORD PTR _ctx$[ebp]
	mov	DWORD PTR [eax+20], 0

; 57   : }

	pop	edi
	pop	esi
	pop	ebx
	mov	esp, ebp
	pop	ebp
	ret	0
?MD5Init@@YAXPAUMD5Context@@@Z ENDP			; MD5Init
_TEXT	ENDS
PUBLIC	?MD5Transform@@YAXQAKQBK@Z			; MD5Transform
PUBLIC	?MD5Update@@YAXPAUMD5Context@@PBEI@Z		; MD5Update
EXTRN	_memcpy:PROC
EXTRN	__RTC_CheckEsp:PROC
; Function compile flags: /Odtp /RTCsu /ZI
;	COMDAT ?MD5Update@@YAXPAUMD5Context@@PBEI@Z
_TEXT	SEGMENT
_p$209258 = -20						; size = 4
_t$ = -8						; size = 4
_ctx$ = 8						; size = 4
_buf$ = 12						; size = 4
_len$ = 16						; size = 4
?MD5Update@@YAXPAUMD5Context@@PBEI@Z PROC		; MD5Update, COMDAT

; 64   : {

	push	ebp
	mov	ebp, esp
	sub	esp, 216				; 000000d8H
	push	ebx
	push	esi
	push	edi
	lea	edi, DWORD PTR [ebp-216]
	mov	ecx, 54					; 00000036H
	mov	eax, -858993460				; ccccccccH
	rep stosd

; 65   :     uint32 t;
; 66   : 
; 67   :     /* Update bitcount */
; 68   : 
; 69   :     t = ctx->bits[0];

	mov	eax, DWORD PTR _ctx$[ebp]
	mov	ecx, DWORD PTR [eax+16]
	mov	DWORD PTR _t$[ebp], ecx

; 70   :     if ((ctx->bits[0] = t + ((uint32) len << 3)) < t)

	mov	eax, DWORD PTR _len$[ebp]
	mov	ecx, DWORD PTR _t$[ebp]
	lea	edx, DWORD PTR [ecx+eax*8]
	mov	eax, DWORD PTR _ctx$[ebp]
	mov	DWORD PTR [eax+16], edx
	mov	ecx, DWORD PTR _ctx$[ebp]
	mov	edx, DWORD PTR [ecx+16]
	cmp	edx, DWORD PTR _t$[ebp]
	jae	SHORT $LN5@MD5Update

; 71   : 	ctx->bits[1]++;		/* Carry from low to high */

	mov	eax, DWORD PTR _ctx$[ebp]
	mov	ecx, DWORD PTR [eax+20]
	add	ecx, 1
	mov	edx, DWORD PTR _ctx$[ebp]
	mov	DWORD PTR [edx+20], ecx
$LN5@MD5Update:

; 72   :     ctx->bits[1] += len >> 29;

	mov	eax, DWORD PTR _len$[ebp]
	shr	eax, 29					; 0000001dH
	mov	ecx, DWORD PTR _ctx$[ebp]
	add	eax, DWORD PTR [ecx+20]
	mov	edx, DWORD PTR _ctx$[ebp]
	mov	DWORD PTR [edx+20], eax

; 73   : 
; 74   :     t = (t >> 3) & 0x3f;	/* Bytes already in shsInfo->data */

	mov	eax, DWORD PTR _t$[ebp]
	shr	eax, 3
	and	eax, 63					; 0000003fH
	mov	DWORD PTR _t$[ebp], eax

; 75   : 
; 76   :     /* Handle any leading odd-sized chunks */
; 77   : 
; 78   :     if (t) {

	je	SHORT $LN2@MD5Update

; 79   : 	unsigned char *p = (unsigned char *) ctx->in + t;

	mov	eax, DWORD PTR _t$[ebp]
	mov	ecx, DWORD PTR _ctx$[ebp]
	lea	edx, DWORD PTR [ecx+eax+24]
	mov	DWORD PTR _p$209258[ebp], edx

; 80   : 
; 81   : 	t = 64 - t;

	mov	eax, 64					; 00000040H
	sub	eax, DWORD PTR _t$[ebp]
	mov	DWORD PTR _t$[ebp], eax

; 82   : 	if (len < t) {

	mov	eax, DWORD PTR _len$[ebp]
	cmp	eax, DWORD PTR _t$[ebp]
	jae	SHORT $LN3@MD5Update

; 83   : 	    memcpy(p, buf, len);

	mov	eax, DWORD PTR _len$[ebp]
	push	eax
	mov	ecx, DWORD PTR _buf$[ebp]
	push	ecx
	mov	edx, DWORD PTR _p$209258[ebp]
	push	edx
	call	_memcpy
	add	esp, 12					; 0000000cH

; 84   : 	    return;

	jmp	$LN6@MD5Update
$LN3@MD5Update:

; 85   : 	}
; 86   : 	memcpy(p, buf, t);

	mov	eax, DWORD PTR _t$[ebp]
	push	eax
	mov	ecx, DWORD PTR _buf$[ebp]
	push	ecx
	mov	edx, DWORD PTR _p$209258[ebp]
	push	edx
	call	_memcpy
	add	esp, 12					; 0000000cH

; 87   : 	byteReverse(ctx->in, 16);
; 88   : 	MD5Transform(ctx->buf, (uint32 *) ctx->in);

	mov	eax, DWORD PTR _ctx$[ebp]
	add	eax, 24					; 00000018H
	push	eax
	mov	ecx, DWORD PTR _ctx$[ebp]
	push	ecx
	call	?MD5Transform@@YAXQAKQBK@Z		; MD5Transform
	add	esp, 8

; 89   : 	buf += t;

	mov	eax, DWORD PTR _buf$[ebp]
	add	eax, DWORD PTR _t$[ebp]
	mov	DWORD PTR _buf$[ebp], eax

; 90   : 	len -= t;

	mov	eax, DWORD PTR _len$[ebp]
	sub	eax, DWORD PTR _t$[ebp]
	mov	DWORD PTR _len$[ebp], eax
$LN2@MD5Update:

; 91   :     }
; 92   :     /* Process data in 64-byte chunks */
; 93   : 
; 94   :     while (len >= 64) {

	cmp	DWORD PTR _len$[ebp], 64		; 00000040H
	jb	SHORT $LN1@MD5Update

; 95   : 	memcpy(ctx->in, buf, 64);

	push	64					; 00000040H
	mov	eax, DWORD PTR _buf$[ebp]
	push	eax
	mov	ecx, DWORD PTR _ctx$[ebp]
	add	ecx, 24					; 00000018H
	push	ecx
	call	_memcpy
	add	esp, 12					; 0000000cH

; 96   : 	byteReverse(ctx->in, 16);
; 97   : 	MD5Transform(ctx->buf, (uint32 *) ctx->in);

	mov	eax, DWORD PTR _ctx$[ebp]
	add	eax, 24					; 00000018H
	push	eax
	mov	ecx, DWORD PTR _ctx$[ebp]
	push	ecx
	call	?MD5Transform@@YAXQAKQBK@Z		; MD5Transform
	add	esp, 8

; 98   : 	buf += 64;

	mov	eax, DWORD PTR _buf$[ebp]
	add	eax, 64					; 00000040H
	mov	DWORD PTR _buf$[ebp], eax

; 99   : 	len -= 64;

	mov	eax, DWORD PTR _len$[ebp]
	sub	eax, 64					; 00000040H
	mov	DWORD PTR _len$[ebp], eax

; 100  :     }

	jmp	SHORT $LN2@MD5Update
$LN1@MD5Update:

; 101  : 
; 102  :     /* Handle any remaining bytes of data. */
; 103  : 
; 104  :     memcpy(ctx->in, buf, len);

	mov	eax, DWORD PTR _len$[ebp]
	push	eax
	mov	ecx, DWORD PTR _buf$[ebp]
	push	ecx
	mov	edx, DWORD PTR _ctx$[ebp]
	add	edx, 24					; 00000018H
	push	edx
	call	_memcpy
	add	esp, 12					; 0000000cH
$LN6@MD5Update:

; 105  : }

	pop	edi
	pop	esi
	pop	ebx
	add	esp, 216				; 000000d8H
	cmp	ebp, esp
	call	__RTC_CheckEsp
	mov	esp, ebp
	pop	ebp
	ret	0
?MD5Update@@YAXPAUMD5Context@@PBEI@Z ENDP		; MD5Update
_TEXT	ENDS
PUBLIC	?MD5Final@@YAXQAEPAUMD5Context@@@Z		; MD5Final
EXTRN	_memset:PROC
; Function compile flags: /Odtp /RTCsu /ZI
;	COMDAT ?MD5Final@@YAXQAEPAUMD5Context@@@Z
_TEXT	SEGMENT
_p$ = -20						; size = 4
_count$ = -8						; size = 4
_digest$ = 8						; size = 4
_ctx$ = 12						; size = 4
?MD5Final@@YAXQAEPAUMD5Context@@@Z PROC			; MD5Final, COMDAT

; 112  : {

	push	ebp
	mov	ebp, esp
	sub	esp, 216				; 000000d8H
	push	ebx
	push	esi
	push	edi
	lea	edi, DWORD PTR [ebp-216]
	mov	ecx, 54					; 00000036H
	mov	eax, -858993460				; ccccccccH
	rep stosd

; 113  :     unsigned count;
; 114  :     unsigned char *p;
; 115  : 
; 116  :     /* Compute number of bytes mod 64 */
; 117  :     count = (ctx->bits[0] >> 3) & 0x3F;

	mov	eax, DWORD PTR _ctx$[ebp]
	mov	ecx, DWORD PTR [eax+16]
	shr	ecx, 3
	and	ecx, 63					; 0000003fH
	mov	DWORD PTR _count$[ebp], ecx

; 118  : 
; 119  :     /* Set the first char of padding to 0x80.  This is safe since there is
; 120  :        always at least one byte free */
; 121  :     p = ctx->in + count;

	mov	eax, DWORD PTR _count$[ebp]
	mov	ecx, DWORD PTR _ctx$[ebp]
	lea	edx, DWORD PTR [ecx+eax+24]
	mov	DWORD PTR _p$[ebp], edx

; 122  :     *p++ = 0x80;

	mov	eax, DWORD PTR _p$[ebp]
	mov	BYTE PTR [eax], 128			; 00000080H
	mov	ecx, DWORD PTR _p$[ebp]
	add	ecx, 1
	mov	DWORD PTR _p$[ebp], ecx

; 123  : 
; 124  :     /* Bytes of padding needed to make 64 bytes */
; 125  :     count = 64 - 1 - count;

	mov	eax, 63					; 0000003fH
	sub	eax, DWORD PTR _count$[ebp]
	mov	DWORD PTR _count$[ebp], eax

; 126  : 
; 127  :     /* Pad out to 56 mod 64 */
; 128  :     if (count < 8) {

	cmp	DWORD PTR _count$[ebp], 8
	jae	SHORT $LN2@MD5Final

; 129  : 	/* Two lots of padding:  Pad the first block to 64 bytes */
; 130  : 	memset(p, 0, count);

	mov	eax, DWORD PTR _count$[ebp]
	push	eax
	push	0
	mov	ecx, DWORD PTR _p$[ebp]
	push	ecx
	call	_memset
	add	esp, 12					; 0000000cH

; 131  : 	byteReverse(ctx->in, 16);
; 132  : 	MD5Transform(ctx->buf, (uint32 *) ctx->in);

	mov	eax, DWORD PTR _ctx$[ebp]
	add	eax, 24					; 00000018H
	push	eax
	mov	ecx, DWORD PTR _ctx$[ebp]
	push	ecx
	call	?MD5Transform@@YAXQAKQBK@Z		; MD5Transform
	add	esp, 8

; 133  : 
; 134  : 	/* Now fill the next block with 56 bytes */
; 135  : 	memset(ctx->in, 0, 56);

	push	56					; 00000038H
	push	0
	mov	eax, DWORD PTR _ctx$[ebp]
	add	eax, 24					; 00000018H
	push	eax
	call	_memset
	add	esp, 12					; 0000000cH

; 136  :     } else {

	jmp	SHORT $LN1@MD5Final
$LN2@MD5Final:

; 137  : 	/* Pad block to 56 bytes */
; 138  : 	memset(p, 0, count - 8);

	mov	eax, DWORD PTR _count$[ebp]
	sub	eax, 8
	push	eax
	push	0
	mov	ecx, DWORD PTR _p$[ebp]
	push	ecx
	call	_memset
	add	esp, 12					; 0000000cH
$LN1@MD5Final:

; 139  :     }
; 140  :     byteReverse(ctx->in, 14);
; 141  : 
; 142  :     /* Append length in bits and transform */
; 143  :     ((uint32 *) ctx->in)[14] = ctx->bits[0];

	mov	eax, DWORD PTR _ctx$[ebp]
	mov	ecx, DWORD PTR _ctx$[ebp]
	mov	edx, DWORD PTR [ecx+16]
	mov	DWORD PTR [eax+80], edx

; 144  :     ((uint32 *) ctx->in)[15] = ctx->bits[1];

	mov	eax, DWORD PTR _ctx$[ebp]
	mov	ecx, DWORD PTR _ctx$[ebp]
	mov	edx, DWORD PTR [ecx+20]
	mov	DWORD PTR [eax+84], edx

; 145  : 
; 146  :     MD5Transform(ctx->buf, (uint32 *) ctx->in);

	mov	eax, DWORD PTR _ctx$[ebp]
	add	eax, 24					; 00000018H
	push	eax
	mov	ecx, DWORD PTR _ctx$[ebp]
	push	ecx
	call	?MD5Transform@@YAXQAKQBK@Z		; MD5Transform
	add	esp, 8

; 147  :     byteReverse((unsigned char *) ctx->buf, 4);
; 148  :     memcpy(digest, ctx->buf, 16);

	push	16					; 00000010H
	mov	eax, DWORD PTR _ctx$[ebp]
	push	eax
	mov	ecx, DWORD PTR _digest$[ebp]
	push	ecx
	call	_memcpy
	add	esp, 12					; 0000000cH

; 149  :     memset(ctx, 0, sizeof(ctx));	/* In case it's sensitive */

	push	4
	push	0
	mov	eax, DWORD PTR _ctx$[ebp]
	push	eax
	call	_memset
	add	esp, 12					; 0000000cH

; 150  : }

	pop	edi
	pop	esi
	pop	ebx
	add	esp, 216				; 000000d8H
	cmp	ebp, esp
	call	__RTC_CheckEsp
	mov	esp, ebp
	pop	ebp
	ret	0
?MD5Final@@YAXQAEPAUMD5Context@@@Z ENDP			; MD5Final
; Function compile flags: /Odtp /RTCsu /ZI
_TEXT	ENDS
;	COMDAT ?MD5Transform@@YAXQAKQBK@Z
_TEXT	SEGMENT
_d$ = -44						; size = 4
_c$ = -32						; size = 4
_b$ = -20						; size = 4
_a$ = -8						; size = 4
_buf$ = 8						; size = 4
_in$ = 12						; size = 4
?MD5Transform@@YAXQAKQBK@Z PROC				; MD5Transform, COMDAT

; 172  : {

	push	ebp
	mov	ebp, esp
	sub	esp, 240				; 000000f0H
	push	ebx
	push	esi
	push	edi
	lea	edi, DWORD PTR [ebp-240]
	mov	ecx, 60					; 0000003cH
	mov	eax, -858993460				; ccccccccH
	rep stosd

; 173  :     register uint32 a, b, c, d;
; 174  : 
; 175  :     a = buf[0];

	mov	eax, DWORD PTR _buf$[ebp]
	mov	ecx, DWORD PTR [eax]
	mov	DWORD PTR _a$[ebp], ecx

; 176  :     b = buf[1];

	mov	eax, DWORD PTR _buf$[ebp]
	mov	ecx, DWORD PTR [eax+4]
	mov	DWORD PTR _b$[ebp], ecx

; 177  :     c = buf[2];

	mov	eax, DWORD PTR _buf$[ebp]
	mov	ecx, DWORD PTR [eax+8]
	mov	DWORD PTR _c$[ebp], ecx

; 178  :     d = buf[3];

	mov	eax, DWORD PTR _buf$[ebp]
	mov	ecx, DWORD PTR [eax+12]
	mov	DWORD PTR _d$[ebp], ecx

; 179  : 
; 180  :     MD5STEP(F1, a, b, c, d, in[0] + 0xd76aa478, 7);

	mov	eax, DWORD PTR _c$[ebp]
	xor	eax, DWORD PTR _d$[ebp]
	and	eax, DWORD PTR _b$[ebp]
	xor	eax, DWORD PTR _d$[ebp]
	mov	ecx, DWORD PTR _in$[ebp]
	add	eax, DWORD PTR [ecx]
	mov	edx, DWORD PTR _a$[ebp]
	lea	eax, DWORD PTR [edx+eax-680876936]
	mov	DWORD PTR _a$[ebp], eax
	mov	ecx, DWORD PTR _a$[ebp]
	shl	ecx, 7
	mov	edx, DWORD PTR _a$[ebp]
	shr	edx, 25					; 00000019H
	or	ecx, edx
	mov	DWORD PTR _a$[ebp], ecx
	mov	eax, DWORD PTR _a$[ebp]
	add	eax, DWORD PTR _b$[ebp]
	mov	DWORD PTR _a$[ebp], eax

; 181  :     MD5STEP(F1, d, a, b, c, in[1] + 0xe8c7b756, 12);

	mov	eax, DWORD PTR _b$[ebp]
	xor	eax, DWORD PTR _c$[ebp]
	and	eax, DWORD PTR _a$[ebp]
	xor	eax, DWORD PTR _c$[ebp]
	mov	ecx, DWORD PTR _in$[ebp]
	add	eax, DWORD PTR [ecx+4]
	mov	edx, DWORD PTR _d$[ebp]
	lea	eax, DWORD PTR [edx+eax-389564586]
	mov	DWORD PTR _d$[ebp], eax
	mov	ecx, DWORD PTR _d$[ebp]
	shl	ecx, 12					; 0000000cH
	mov	edx, DWORD PTR _d$[ebp]
	shr	edx, 20					; 00000014H
	or	ecx, edx
	mov	DWORD PTR _d$[ebp], ecx
	mov	eax, DWORD PTR _d$[ebp]
	add	eax, DWORD PTR _a$[ebp]
	mov	DWORD PTR _d$[ebp], eax

; 182  :     MD5STEP(F1, c, d, a, b, in[2] + 0x242070db, 17);

	mov	eax, DWORD PTR _a$[ebp]
	xor	eax, DWORD PTR _b$[ebp]
	and	eax, DWORD PTR _d$[ebp]
	xor	eax, DWORD PTR _b$[ebp]
	mov	ecx, DWORD PTR _in$[ebp]
	add	eax, DWORD PTR [ecx+8]
	mov	edx, DWORD PTR _c$[ebp]
	lea	eax, DWORD PTR [edx+eax+606105819]
	mov	DWORD PTR _c$[ebp], eax
	mov	ecx, DWORD PTR _c$[ebp]
	shl	ecx, 17					; 00000011H
	mov	edx, DWORD PTR _c$[ebp]
	shr	edx, 15					; 0000000fH
	or	ecx, edx
	mov	DWORD PTR _c$[ebp], ecx
	mov	eax, DWORD PTR _c$[ebp]
	add	eax, DWORD PTR _d$[ebp]
	mov	DWORD PTR _c$[ebp], eax

; 183  :     MD5STEP(F1, b, c, d, a, in[3] + 0xc1bdceee, 22);

	mov	eax, DWORD PTR _d$[ebp]
	xor	eax, DWORD PTR _a$[ebp]
	and	eax, DWORD PTR _c$[ebp]
	xor	eax, DWORD PTR _a$[ebp]
	mov	ecx, DWORD PTR _in$[ebp]
	add	eax, DWORD PTR [ecx+12]
	mov	edx, DWORD PTR _b$[ebp]
	lea	eax, DWORD PTR [edx+eax-1044525330]
	mov	DWORD PTR _b$[ebp], eax
	mov	ecx, DWORD PTR _b$[ebp]
	shl	ecx, 22					; 00000016H
	mov	edx, DWORD PTR _b$[ebp]
	shr	edx, 10					; 0000000aH
	or	ecx, edx
	mov	DWORD PTR _b$[ebp], ecx
	mov	eax, DWORD PTR _b$[ebp]
	add	eax, DWORD PTR _c$[ebp]
	mov	DWORD PTR _b$[ebp], eax

; 184  :     MD5STEP(F1, a, b, c, d, in[4] + 0xf57c0faf, 7);

	mov	eax, DWORD PTR _c$[ebp]
	xor	eax, DWORD PTR _d$[ebp]
	and	eax, DWORD PTR _b$[ebp]
	xor	eax, DWORD PTR _d$[ebp]
	mov	ecx, DWORD PTR _in$[ebp]
	add	eax, DWORD PTR [ecx+16]
	mov	edx, DWORD PTR _a$[ebp]
	lea	eax, DWORD PTR [edx+eax-176418897]
	mov	DWORD PTR _a$[ebp], eax
	mov	ecx, DWORD PTR _a$[ebp]
	shl	ecx, 7
	mov	edx, DWORD PTR _a$[ebp]
	shr	edx, 25					; 00000019H
	or	ecx, edx
	mov	DWORD PTR _a$[ebp], ecx
	mov	eax, DWORD PTR _a$[ebp]
	add	eax, DWORD PTR _b$[ebp]
	mov	DWORD PTR _a$[ebp], eax

; 185  :     MD5STEP(F1, d, a, b, c, in[5] + 0x4787c62a, 12);

	mov	eax, DWORD PTR _b$[ebp]
	xor	eax, DWORD PTR _c$[ebp]
	and	eax, DWORD PTR _a$[ebp]
	xor	eax, DWORD PTR _c$[ebp]
	mov	ecx, DWORD PTR _in$[ebp]
	add	eax, DWORD PTR [ecx+20]
	mov	edx, DWORD PTR _d$[ebp]
	lea	eax, DWORD PTR [edx+eax+1200080426]
	mov	DWORD PTR _d$[ebp], eax
	mov	ecx, DWORD PTR _d$[ebp]
	shl	ecx, 12					; 0000000cH
	mov	edx, DWORD PTR _d$[ebp]
	shr	edx, 20					; 00000014H
	or	ecx, edx
	mov	DWORD PTR _d$[ebp], ecx
	mov	eax, DWORD PTR _d$[ebp]
	add	eax, DWORD PTR _a$[ebp]
	mov	DWORD PTR _d$[ebp], eax

; 186  :     MD5STEP(F1, c, d, a, b, in[6] + 0xa8304613, 17);

	mov	eax, DWORD PTR _a$[ebp]
	xor	eax, DWORD PTR _b$[ebp]
	and	eax, DWORD PTR _d$[ebp]
	xor	eax, DWORD PTR _b$[ebp]
	mov	ecx, DWORD PTR _in$[ebp]
	add	eax, DWORD PTR [ecx+24]
	mov	edx, DWORD PTR _c$[ebp]
	lea	eax, DWORD PTR [edx+eax-1473231341]
	mov	DWORD PTR _c$[ebp], eax
	mov	ecx, DWORD PTR _c$[ebp]
	shl	ecx, 17					; 00000011H
	mov	edx, DWORD PTR _c$[ebp]
	shr	edx, 15					; 0000000fH
	or	ecx, edx
	mov	DWORD PTR _c$[ebp], ecx
	mov	eax, DWORD PTR _c$[ebp]
	add	eax, DWORD PTR _d$[ebp]
	mov	DWORD PTR _c$[ebp], eax

; 187  :     MD5STEP(F1, b, c, d, a, in[7] + 0xfd469501, 22);

	mov	eax, DWORD PTR _d$[ebp]
	xor	eax, DWORD PTR _a$[ebp]
	and	eax, DWORD PTR _c$[ebp]
	xor	eax, DWORD PTR _a$[ebp]
	mov	ecx, DWORD PTR _in$[ebp]
	add	eax, DWORD PTR [ecx+28]
	mov	edx, DWORD PTR _b$[ebp]
	lea	eax, DWORD PTR [edx+eax-45705983]
	mov	DWORD PTR _b$[ebp], eax
	mov	ecx, DWORD PTR _b$[ebp]
	shl	ecx, 22					; 00000016H
	mov	edx, DWORD PTR _b$[ebp]
	shr	edx, 10					; 0000000aH
	or	ecx, edx
	mov	DWORD PTR _b$[ebp], ecx
	mov	eax, DWORD PTR _b$[ebp]
	add	eax, DWORD PTR _c$[ebp]
	mov	DWORD PTR _b$[ebp], eax

; 188  :     MD5STEP(F1, a, b, c, d, in[8] + 0x698098d8, 7);

	mov	eax, DWORD PTR _c$[ebp]
	xor	eax, DWORD PTR _d$[ebp]
	and	eax, DWORD PTR _b$[ebp]
	xor	eax, DWORD PTR _d$[ebp]
	mov	ecx, DWORD PTR _in$[ebp]
	add	eax, DWORD PTR [ecx+32]
	mov	edx, DWORD PTR _a$[ebp]
	lea	eax, DWORD PTR [edx+eax+1770035416]
	mov	DWORD PTR _a$[ebp], eax
	mov	ecx, DWORD PTR _a$[ebp]
	shl	ecx, 7
	mov	edx, DWORD PTR _a$[ebp]
	shr	edx, 25					; 00000019H
	or	ecx, edx
	mov	DWORD PTR _a$[ebp], ecx
	mov	eax, DWORD PTR _a$[ebp]
	add	eax, DWORD PTR _b$[ebp]
	mov	DWORD PTR _a$[ebp], eax

; 189  :     MD5STEP(F1, d, a, b, c, in[9] + 0x8b44f7af, 12);

	mov	eax, DWORD PTR _b$[ebp]
	xor	eax, DWORD PTR _c$[ebp]
	and	eax, DWORD PTR _a$[ebp]
	xor	eax, DWORD PTR _c$[ebp]
	mov	ecx, DWORD PTR _in$[ebp]
	add	eax, DWORD PTR [ecx+36]
	mov	edx, DWORD PTR _d$[ebp]
	lea	eax, DWORD PTR [edx+eax-1958414417]
	mov	DWORD PTR _d$[ebp], eax
	mov	ecx, DWORD PTR _d$[ebp]
	shl	ecx, 12					; 0000000cH
	mov	edx, DWORD PTR _d$[ebp]
	shr	edx, 20					; 00000014H
	or	ecx, edx
	mov	DWORD PTR _d$[ebp], ecx
	mov	eax, DWORD PTR _d$[ebp]
	add	eax, DWORD PTR _a$[ebp]
	mov	DWORD PTR _d$[ebp], eax

; 190  :     MD5STEP(F1, c, d, a, b, in[10] + 0xffff5bb1, 17);

	mov	eax, DWORD PTR _a$[ebp]
	xor	eax, DWORD PTR _b$[ebp]
	and	eax, DWORD PTR _d$[ebp]
	xor	eax, DWORD PTR _b$[ebp]
	mov	ecx, DWORD PTR _in$[ebp]
	add	eax, DWORD PTR [ecx+40]
	mov	edx, DWORD PTR _c$[ebp]
	lea	eax, DWORD PTR [edx+eax-42063]
	mov	DWORD PTR _c$[ebp], eax
	mov	ecx, DWORD PTR _c$[ebp]
	shl	ecx, 17					; 00000011H
	mov	edx, DWORD PTR _c$[ebp]
	shr	edx, 15					; 0000000fH
	or	ecx, edx
	mov	DWORD PTR _c$[ebp], ecx
	mov	eax, DWORD PTR _c$[ebp]
	add	eax, DWORD PTR _d$[ebp]
	mov	DWORD PTR _c$[ebp], eax

; 191  :     MD5STEP(F1, b, c, d, a, in[11] + 0x895cd7be, 22);

	mov	eax, DWORD PTR _d$[ebp]
	xor	eax, DWORD PTR _a$[ebp]
	and	eax, DWORD PTR _c$[ebp]
	xor	eax, DWORD PTR _a$[ebp]
	mov	ecx, DWORD PTR _in$[ebp]
	add	eax, DWORD PTR [ecx+44]
	mov	edx, DWORD PTR _b$[ebp]
	lea	eax, DWORD PTR [edx+eax-1990404162]
	mov	DWORD PTR _b$[ebp], eax
	mov	ecx, DWORD PTR _b$[ebp]
	shl	ecx, 22					; 00000016H
	mov	edx, DWORD PTR _b$[ebp]
	shr	edx, 10					; 0000000aH
	or	ecx, edx
	mov	DWORD PTR _b$[ebp], ecx
	mov	eax, DWORD PTR _b$[ebp]
	add	eax, DWORD PTR _c$[ebp]
	mov	DWORD PTR _b$[ebp], eax

; 192  :     MD5STEP(F1, a, b, c, d, in[12] + 0x6b901122, 7);

	mov	eax, DWORD PTR _c$[ebp]
	xor	eax, DWORD PTR _d$[ebp]
	and	eax, DWORD PTR _b$[ebp]
	xor	eax, DWORD PTR _d$[ebp]
	mov	ecx, DWORD PTR _in$[ebp]
	add	eax, DWORD PTR [ecx+48]
	mov	edx, DWORD PTR _a$[ebp]
	lea	eax, DWORD PTR [edx+eax+1804603682]
	mov	DWORD PTR _a$[ebp], eax
	mov	ecx, DWORD PTR _a$[ebp]
	shl	ecx, 7
	mov	edx, DWORD PTR _a$[ebp]
	shr	edx, 25					; 00000019H
	or	ecx, edx
	mov	DWORD PTR _a$[ebp], ecx
	mov	eax, DWORD PTR _a$[ebp]
	add	eax, DWORD PTR _b$[ebp]
	mov	DWORD PTR _a$[ebp], eax

; 193  :     MD5STEP(F1, d, a, b, c, in[13] + 0xfd987193, 12);

	mov	eax, DWORD PTR _b$[ebp]
	xor	eax, DWORD PTR _c$[ebp]
	and	eax, DWORD PTR _a$[ebp]
	xor	eax, DWORD PTR _c$[ebp]
	mov	ecx, DWORD PTR _in$[ebp]
	add	eax, DWORD PTR [ecx+52]
	mov	edx, DWORD PTR _d$[ebp]
	lea	eax, DWORD PTR [edx+eax-40341101]
	mov	DWORD PTR _d$[ebp], eax
	mov	ecx, DWORD PTR _d$[ebp]
	shl	ecx, 12					; 0000000cH
	mov	edx, DWORD PTR _d$[ebp]
	shr	edx, 20					; 00000014H
	or	ecx, edx
	mov	DWORD PTR _d$[ebp], ecx
	mov	eax, DWORD PTR _d$[ebp]
	add	eax, DWORD PTR _a$[ebp]
	mov	DWORD PTR _d$[ebp], eax

; 194  :     MD5STEP(F1, c, d, a, b, in[14] + 0xa679438e, 17);

	mov	eax, DWORD PTR _a$[ebp]
	xor	eax, DWORD PTR _b$[ebp]
	and	eax, DWORD PTR _d$[ebp]
	xor	eax, DWORD PTR _b$[ebp]
	mov	ecx, DWORD PTR _in$[ebp]
	add	eax, DWORD PTR [ecx+56]
	mov	edx, DWORD PTR _c$[ebp]
	lea	eax, DWORD PTR [edx+eax-1502002290]
	mov	DWORD PTR _c$[ebp], eax
	mov	ecx, DWORD PTR _c$[ebp]
	shl	ecx, 17					; 00000011H
	mov	edx, DWORD PTR _c$[ebp]
	shr	edx, 15					; 0000000fH
	or	ecx, edx
	mov	DWORD PTR _c$[ebp], ecx
	mov	eax, DWORD PTR _c$[ebp]
	add	eax, DWORD PTR _d$[ebp]
	mov	DWORD PTR _c$[ebp], eax

; 195  :     MD5STEP(F1, b, c, d, a, in[15] + 0x49b40821, 22);

	mov	eax, DWORD PTR _d$[ebp]
	xor	eax, DWORD PTR _a$[ebp]
	and	eax, DWORD PTR _c$[ebp]
	xor	eax, DWORD PTR _a$[ebp]
	mov	ecx, DWORD PTR _in$[ebp]
	add	eax, DWORD PTR [ecx+60]
	mov	edx, DWORD PTR _b$[ebp]
	lea	eax, DWORD PTR [edx+eax+1236535329]
	mov	DWORD PTR _b$[ebp], eax
	mov	ecx, DWORD PTR _b$[ebp]
	shl	ecx, 22					; 00000016H
	mov	edx, DWORD PTR _b$[ebp]
	shr	edx, 10					; 0000000aH
	or	ecx, edx
	mov	DWORD PTR _b$[ebp], ecx
	mov	eax, DWORD PTR _b$[ebp]
	add	eax, DWORD PTR _c$[ebp]
	mov	DWORD PTR _b$[ebp], eax

; 196  : 
; 197  :     MD5STEP(F2, a, b, c, d, in[1] + 0xf61e2562, 5);

	mov	eax, DWORD PTR _b$[ebp]
	xor	eax, DWORD PTR _c$[ebp]
	and	eax, DWORD PTR _d$[ebp]
	xor	eax, DWORD PTR _c$[ebp]
	mov	ecx, DWORD PTR _in$[ebp]
	add	eax, DWORD PTR [ecx+4]
	mov	edx, DWORD PTR _a$[ebp]
	lea	eax, DWORD PTR [edx+eax-165796510]
	mov	DWORD PTR _a$[ebp], eax
	mov	ecx, DWORD PTR _a$[ebp]
	shl	ecx, 5
	mov	edx, DWORD PTR _a$[ebp]
	shr	edx, 27					; 0000001bH
	or	ecx, edx
	mov	DWORD PTR _a$[ebp], ecx
	mov	eax, DWORD PTR _a$[ebp]
	add	eax, DWORD PTR _b$[ebp]
	mov	DWORD PTR _a$[ebp], eax

; 198  :     MD5STEP(F2, d, a, b, c, in[6] + 0xc040b340, 9);

	mov	eax, DWORD PTR _a$[ebp]
	xor	eax, DWORD PTR _b$[ebp]
	and	eax, DWORD PTR _c$[ebp]
	xor	eax, DWORD PTR _b$[ebp]
	mov	ecx, DWORD PTR _in$[ebp]
	add	eax, DWORD PTR [ecx+24]
	mov	edx, DWORD PTR _d$[ebp]
	lea	eax, DWORD PTR [edx+eax-1069501632]
	mov	DWORD PTR _d$[ebp], eax
	mov	ecx, DWORD PTR _d$[ebp]
	shl	ecx, 9
	mov	edx, DWORD PTR _d$[ebp]
	shr	edx, 23					; 00000017H
	or	ecx, edx
	mov	DWORD PTR _d$[ebp], ecx
	mov	eax, DWORD PTR _d$[ebp]
	add	eax, DWORD PTR _a$[ebp]
	mov	DWORD PTR _d$[ebp], eax

; 199  :     MD5STEP(F2, c, d, a, b, in[11] + 0x265e5a51, 14);

	mov	eax, DWORD PTR _d$[ebp]
	xor	eax, DWORD PTR _a$[ebp]
	and	eax, DWORD PTR _b$[ebp]
	xor	eax, DWORD PTR _a$[ebp]
	mov	ecx, DWORD PTR _in$[ebp]
	add	eax, DWORD PTR [ecx+44]
	mov	edx, DWORD PTR _c$[ebp]
	lea	eax, DWORD PTR [edx+eax+643717713]
	mov	DWORD PTR _c$[ebp], eax
	mov	ecx, DWORD PTR _c$[ebp]
	shl	ecx, 14					; 0000000eH
	mov	edx, DWORD PTR _c$[ebp]
	shr	edx, 18					; 00000012H
	or	ecx, edx
	mov	DWORD PTR _c$[ebp], ecx
	mov	eax, DWORD PTR _c$[ebp]
	add	eax, DWORD PTR _d$[ebp]
	mov	DWORD PTR _c$[ebp], eax

; 200  :     MD5STEP(F2, b, c, d, a, in[0] + 0xe9b6c7aa, 20);

	mov	eax, DWORD PTR _c$[ebp]
	xor	eax, DWORD PTR _d$[ebp]
	and	eax, DWORD PTR _a$[ebp]
	xor	eax, DWORD PTR _d$[ebp]
	mov	ecx, DWORD PTR _in$[ebp]
	add	eax, DWORD PTR [ecx]
	mov	edx, DWORD PTR _b$[ebp]
	lea	eax, DWORD PTR [edx+eax-373897302]
	mov	DWORD PTR _b$[ebp], eax
	mov	ecx, DWORD PTR _b$[ebp]
	shl	ecx, 20					; 00000014H
	mov	edx, DWORD PTR _b$[ebp]
	shr	edx, 12					; 0000000cH
	or	ecx, edx
	mov	DWORD PTR _b$[ebp], ecx
	mov	eax, DWORD PTR _b$[ebp]
	add	eax, DWORD PTR _c$[ebp]
	mov	DWORD PTR _b$[ebp], eax

; 201  :     MD5STEP(F2, a, b, c, d, in[5] + 0xd62f105d, 5);

	mov	eax, DWORD PTR _b$[ebp]
	xor	eax, DWORD PTR _c$[ebp]
	and	eax, DWORD PTR _d$[ebp]
	xor	eax, DWORD PTR _c$[ebp]
	mov	ecx, DWORD PTR _in$[ebp]
	add	eax, DWORD PTR [ecx+20]
	mov	edx, DWORD PTR _a$[ebp]
	lea	eax, DWORD PTR [edx+eax-701558691]
	mov	DWORD PTR _a$[ebp], eax
	mov	ecx, DWORD PTR _a$[ebp]
	shl	ecx, 5
	mov	edx, DWORD PTR _a$[ebp]
	shr	edx, 27					; 0000001bH
	or	ecx, edx
	mov	DWORD PTR _a$[ebp], ecx
	mov	eax, DWORD PTR _a$[ebp]
	add	eax, DWORD PTR _b$[ebp]
	mov	DWORD PTR _a$[ebp], eax

; 202  :     MD5STEP(F2, d, a, b, c, in[10] + 0x02441453, 9);

	mov	eax, DWORD PTR _a$[ebp]
	xor	eax, DWORD PTR _b$[ebp]
	and	eax, DWORD PTR _c$[ebp]
	xor	eax, DWORD PTR _b$[ebp]
	mov	ecx, DWORD PTR _in$[ebp]
	add	eax, DWORD PTR [ecx+40]
	mov	edx, DWORD PTR _d$[ebp]
	lea	eax, DWORD PTR [edx+eax+38016083]
	mov	DWORD PTR _d$[ebp], eax
	mov	ecx, DWORD PTR _d$[ebp]
	shl	ecx, 9
	mov	edx, DWORD PTR _d$[ebp]
	shr	edx, 23					; 00000017H
	or	ecx, edx
	mov	DWORD PTR _d$[ebp], ecx
	mov	eax, DWORD PTR _d$[ebp]
	add	eax, DWORD PTR _a$[ebp]
	mov	DWORD PTR _d$[ebp], eax

; 203  :     MD5STEP(F2, c, d, a, b, in[15] + 0xd8a1e681, 14);

	mov	eax, DWORD PTR _d$[ebp]
	xor	eax, DWORD PTR _a$[ebp]
	and	eax, DWORD PTR _b$[ebp]
	xor	eax, DWORD PTR _a$[ebp]
	mov	ecx, DWORD PTR _in$[ebp]
	add	eax, DWORD PTR [ecx+60]
	mov	edx, DWORD PTR _c$[ebp]
	lea	eax, DWORD PTR [edx+eax-660478335]
	mov	DWORD PTR _c$[ebp], eax
	mov	ecx, DWORD PTR _c$[ebp]
	shl	ecx, 14					; 0000000eH
	mov	edx, DWORD PTR _c$[ebp]
	shr	edx, 18					; 00000012H
	or	ecx, edx
	mov	DWORD PTR _c$[ebp], ecx
	mov	eax, DWORD PTR _c$[ebp]
	add	eax, DWORD PTR _d$[ebp]
	mov	DWORD PTR _c$[ebp], eax

; 204  :     MD5STEP(F2, b, c, d, a, in[4] + 0xe7d3fbc8, 20);

	mov	eax, DWORD PTR _c$[ebp]
	xor	eax, DWORD PTR _d$[ebp]
	and	eax, DWORD PTR _a$[ebp]
	xor	eax, DWORD PTR _d$[ebp]
	mov	ecx, DWORD PTR _in$[ebp]
	add	eax, DWORD PTR [ecx+16]
	mov	edx, DWORD PTR _b$[ebp]
	lea	eax, DWORD PTR [edx+eax-405537848]
	mov	DWORD PTR _b$[ebp], eax
	mov	ecx, DWORD PTR _b$[ebp]
	shl	ecx, 20					; 00000014H
	mov	edx, DWORD PTR _b$[ebp]
	shr	edx, 12					; 0000000cH
	or	ecx, edx
	mov	DWORD PTR _b$[ebp], ecx
	mov	eax, DWORD PTR _b$[ebp]
	add	eax, DWORD PTR _c$[ebp]
	mov	DWORD PTR _b$[ebp], eax

; 205  :     MD5STEP(F2, a, b, c, d, in[9] + 0x21e1cde6, 5);

	mov	eax, DWORD PTR _b$[ebp]
	xor	eax, DWORD PTR _c$[ebp]
	and	eax, DWORD PTR _d$[ebp]
	xor	eax, DWORD PTR _c$[ebp]
	mov	ecx, DWORD PTR _in$[ebp]
	add	eax, DWORD PTR [ecx+36]
	mov	edx, DWORD PTR _a$[ebp]
	lea	eax, DWORD PTR [edx+eax+568446438]
	mov	DWORD PTR _a$[ebp], eax
	mov	ecx, DWORD PTR _a$[ebp]
	shl	ecx, 5
	mov	edx, DWORD PTR _a$[ebp]
	shr	edx, 27					; 0000001bH
	or	ecx, edx
	mov	DWORD PTR _a$[ebp], ecx
	mov	eax, DWORD PTR _a$[ebp]
	add	eax, DWORD PTR _b$[ebp]
	mov	DWORD PTR _a$[ebp], eax

; 206  :     MD5STEP(F2, d, a, b, c, in[14] + 0xc33707d6, 9);

	mov	eax, DWORD PTR _a$[ebp]
	xor	eax, DWORD PTR _b$[ebp]
	and	eax, DWORD PTR _c$[ebp]
	xor	eax, DWORD PTR _b$[ebp]
	mov	ecx, DWORD PTR _in$[ebp]
	add	eax, DWORD PTR [ecx+56]
	mov	edx, DWORD PTR _d$[ebp]
	lea	eax, DWORD PTR [edx+eax-1019803690]
	mov	DWORD PTR _d$[ebp], eax
	mov	ecx, DWORD PTR _d$[ebp]
	shl	ecx, 9
	mov	edx, DWORD PTR _d$[ebp]
	shr	edx, 23					; 00000017H
	or	ecx, edx
	mov	DWORD PTR _d$[ebp], ecx
	mov	eax, DWORD PTR _d$[ebp]
	add	eax, DWORD PTR _a$[ebp]
	mov	DWORD PTR _d$[ebp], eax

; 207  :     MD5STEP(F2, c, d, a, b, in[3] + 0xf4d50d87, 14);

	mov	eax, DWORD PTR _d$[ebp]
	xor	eax, DWORD PTR _a$[ebp]
	and	eax, DWORD PTR _b$[ebp]
	xor	eax, DWORD PTR _a$[ebp]
	mov	ecx, DWORD PTR _in$[ebp]
	add	eax, DWORD PTR [ecx+12]
	mov	edx, DWORD PTR _c$[ebp]
	lea	eax, DWORD PTR [edx+eax-187363961]
	mov	DWORD PTR _c$[ebp], eax
	mov	ecx, DWORD PTR _c$[ebp]
	shl	ecx, 14					; 0000000eH
	mov	edx, DWORD PTR _c$[ebp]
	shr	edx, 18					; 00000012H
	or	ecx, edx
	mov	DWORD PTR _c$[ebp], ecx
	mov	eax, DWORD PTR _c$[ebp]
	add	eax, DWORD PTR _d$[ebp]
	mov	DWORD PTR _c$[ebp], eax

; 208  :     MD5STEP(F2, b, c, d, a, in[8] + 0x455a14ed, 20);

	mov	eax, DWORD PTR _c$[ebp]
	xor	eax, DWORD PTR _d$[ebp]
	and	eax, DWORD PTR _a$[ebp]
	xor	eax, DWORD PTR _d$[ebp]
	mov	ecx, DWORD PTR _in$[ebp]
	add	eax, DWORD PTR [ecx+32]
	mov	edx, DWORD PTR _b$[ebp]
	lea	eax, DWORD PTR [edx+eax+1163531501]
	mov	DWORD PTR _b$[ebp], eax
	mov	ecx, DWORD PTR _b$[ebp]
	shl	ecx, 20					; 00000014H
	mov	edx, DWORD PTR _b$[ebp]
	shr	edx, 12					; 0000000cH
	or	ecx, edx
	mov	DWORD PTR _b$[ebp], ecx
	mov	eax, DWORD PTR _b$[ebp]
	add	eax, DWORD PTR _c$[ebp]
	mov	DWORD PTR _b$[ebp], eax

; 209  :     MD5STEP(F2, a, b, c, d, in[13] + 0xa9e3e905, 5);

	mov	eax, DWORD PTR _b$[ebp]
	xor	eax, DWORD PTR _c$[ebp]
	and	eax, DWORD PTR _d$[ebp]
	xor	eax, DWORD PTR _c$[ebp]
	mov	ecx, DWORD PTR _in$[ebp]
	add	eax, DWORD PTR [ecx+52]
	mov	edx, DWORD PTR _a$[ebp]
	lea	eax, DWORD PTR [edx+eax-1444681467]
	mov	DWORD PTR _a$[ebp], eax
	mov	ecx, DWORD PTR _a$[ebp]
	shl	ecx, 5
	mov	edx, DWORD PTR _a$[ebp]
	shr	edx, 27					; 0000001bH
	or	ecx, edx
	mov	DWORD PTR _a$[ebp], ecx
	mov	eax, DWORD PTR _a$[ebp]
	add	eax, DWORD PTR _b$[ebp]
	mov	DWORD PTR _a$[ebp], eax

; 210  :     MD5STEP(F2, d, a, b, c, in[2] + 0xfcefa3f8, 9);

	mov	eax, DWORD PTR _a$[ebp]
	xor	eax, DWORD PTR _b$[ebp]
	and	eax, DWORD PTR _c$[ebp]
	xor	eax, DWORD PTR _b$[ebp]
	mov	ecx, DWORD PTR _in$[ebp]
	add	eax, DWORD PTR [ecx+8]
	mov	edx, DWORD PTR _d$[ebp]
	lea	eax, DWORD PTR [edx+eax-51403784]
	mov	DWORD PTR _d$[ebp], eax
	mov	ecx, DWORD PTR _d$[ebp]
	shl	ecx, 9
	mov	edx, DWORD PTR _d$[ebp]
	shr	edx, 23					; 00000017H
	or	ecx, edx
	mov	DWORD PTR _d$[ebp], ecx
	mov	eax, DWORD PTR _d$[ebp]
	add	eax, DWORD PTR _a$[ebp]
	mov	DWORD PTR _d$[ebp], eax

; 211  :     MD5STEP(F2, c, d, a, b, in[7] + 0x676f02d9, 14);

	mov	eax, DWORD PTR _d$[ebp]
	xor	eax, DWORD PTR _a$[ebp]
	and	eax, DWORD PTR _b$[ebp]
	xor	eax, DWORD PTR _a$[ebp]
	mov	ecx, DWORD PTR _in$[ebp]
	add	eax, DWORD PTR [ecx+28]
	mov	edx, DWORD PTR _c$[ebp]
	lea	eax, DWORD PTR [edx+eax+1735328473]
	mov	DWORD PTR _c$[ebp], eax
	mov	ecx, DWORD PTR _c$[ebp]
	shl	ecx, 14					; 0000000eH
	mov	edx, DWORD PTR _c$[ebp]
	shr	edx, 18					; 00000012H
	or	ecx, edx
	mov	DWORD PTR _c$[ebp], ecx
	mov	eax, DWORD PTR _c$[ebp]
	add	eax, DWORD PTR _d$[ebp]
	mov	DWORD PTR _c$[ebp], eax

; 212  :     MD5STEP(F2, b, c, d, a, in[12] + 0x8d2a4c8a, 20);

	mov	eax, DWORD PTR _c$[ebp]
	xor	eax, DWORD PTR _d$[ebp]
	and	eax, DWORD PTR _a$[ebp]
	xor	eax, DWORD PTR _d$[ebp]
	mov	ecx, DWORD PTR _in$[ebp]
	add	eax, DWORD PTR [ecx+48]
	mov	edx, DWORD PTR _b$[ebp]
	lea	eax, DWORD PTR [edx+eax-1926607734]
	mov	DWORD PTR _b$[ebp], eax
	mov	ecx, DWORD PTR _b$[ebp]
	shl	ecx, 20					; 00000014H
	mov	edx, DWORD PTR _b$[ebp]
	shr	edx, 12					; 0000000cH
	or	ecx, edx
	mov	DWORD PTR _b$[ebp], ecx
	mov	eax, DWORD PTR _b$[ebp]
	add	eax, DWORD PTR _c$[ebp]
	mov	DWORD PTR _b$[ebp], eax

; 213  : 
; 214  :     MD5STEP(F3, a, b, c, d, in[5] + 0xfffa3942, 4);

	mov	eax, DWORD PTR _b$[ebp]
	xor	eax, DWORD PTR _c$[ebp]
	xor	eax, DWORD PTR _d$[ebp]
	mov	ecx, DWORD PTR _in$[ebp]
	add	eax, DWORD PTR [ecx+20]
	mov	edx, DWORD PTR _a$[ebp]
	lea	eax, DWORD PTR [edx+eax-378558]
	mov	DWORD PTR _a$[ebp], eax
	mov	ecx, DWORD PTR _a$[ebp]
	shl	ecx, 4
	mov	edx, DWORD PTR _a$[ebp]
	shr	edx, 28					; 0000001cH
	or	ecx, edx
	mov	DWORD PTR _a$[ebp], ecx
	mov	eax, DWORD PTR _a$[ebp]
	add	eax, DWORD PTR _b$[ebp]
	mov	DWORD PTR _a$[ebp], eax

; 215  :     MD5STEP(F3, d, a, b, c, in[8] + 0x8771f681, 11);

	mov	eax, DWORD PTR _a$[ebp]
	xor	eax, DWORD PTR _b$[ebp]
	xor	eax, DWORD PTR _c$[ebp]
	mov	ecx, DWORD PTR _in$[ebp]
	add	eax, DWORD PTR [ecx+32]
	mov	edx, DWORD PTR _d$[ebp]
	lea	eax, DWORD PTR [edx+eax-2022574463]
	mov	DWORD PTR _d$[ebp], eax
	mov	ecx, DWORD PTR _d$[ebp]
	shl	ecx, 11					; 0000000bH
	mov	edx, DWORD PTR _d$[ebp]
	shr	edx, 21					; 00000015H
	or	ecx, edx
	mov	DWORD PTR _d$[ebp], ecx
	mov	eax, DWORD PTR _d$[ebp]
	add	eax, DWORD PTR _a$[ebp]
	mov	DWORD PTR _d$[ebp], eax

; 216  :     MD5STEP(F3, c, d, a, b, in[11] + 0x6d9d6122, 16);

	mov	eax, DWORD PTR _d$[ebp]
	xor	eax, DWORD PTR _a$[ebp]
	xor	eax, DWORD PTR _b$[ebp]
	mov	ecx, DWORD PTR _in$[ebp]
	add	eax, DWORD PTR [ecx+44]
	mov	edx, DWORD PTR _c$[ebp]
	lea	eax, DWORD PTR [edx+eax+1839030562]
	mov	DWORD PTR _c$[ebp], eax
	mov	ecx, DWORD PTR _c$[ebp]
	shl	ecx, 16					; 00000010H
	mov	edx, DWORD PTR _c$[ebp]
	shr	edx, 16					; 00000010H
	or	ecx, edx
	mov	DWORD PTR _c$[ebp], ecx
	mov	eax, DWORD PTR _c$[ebp]
	add	eax, DWORD PTR _d$[ebp]
	mov	DWORD PTR _c$[ebp], eax

; 217  :     MD5STEP(F3, b, c, d, a, in[14] + 0xfde5380c, 23);

	mov	eax, DWORD PTR _c$[ebp]
	xor	eax, DWORD PTR _d$[ebp]
	xor	eax, DWORD PTR _a$[ebp]
	mov	ecx, DWORD PTR _in$[ebp]
	add	eax, DWORD PTR [ecx+56]
	mov	edx, DWORD PTR _b$[ebp]
	lea	eax, DWORD PTR [edx+eax-35309556]
	mov	DWORD PTR _b$[ebp], eax
	mov	ecx, DWORD PTR _b$[ebp]
	shl	ecx, 23					; 00000017H
	mov	edx, DWORD PTR _b$[ebp]
	shr	edx, 9
	or	ecx, edx
	mov	DWORD PTR _b$[ebp], ecx
	mov	eax, DWORD PTR _b$[ebp]
	add	eax, DWORD PTR _c$[ebp]
	mov	DWORD PTR _b$[ebp], eax

; 218  :     MD5STEP(F3, a, b, c, d, in[1] + 0xa4beea44, 4);

	mov	eax, DWORD PTR _b$[ebp]
	xor	eax, DWORD PTR _c$[ebp]
	xor	eax, DWORD PTR _d$[ebp]
	mov	ecx, DWORD PTR _in$[ebp]
	add	eax, DWORD PTR [ecx+4]
	mov	edx, DWORD PTR _a$[ebp]
	lea	eax, DWORD PTR [edx+eax-1530992060]
	mov	DWORD PTR _a$[ebp], eax
	mov	ecx, DWORD PTR _a$[ebp]
	shl	ecx, 4
	mov	edx, DWORD PTR _a$[ebp]
	shr	edx, 28					; 0000001cH
	or	ecx, edx
	mov	DWORD PTR _a$[ebp], ecx
	mov	eax, DWORD PTR _a$[ebp]
	add	eax, DWORD PTR _b$[ebp]
	mov	DWORD PTR _a$[ebp], eax

; 219  :     MD5STEP(F3, d, a, b, c, in[4] + 0x4bdecfa9, 11);

	mov	eax, DWORD PTR _a$[ebp]
	xor	eax, DWORD PTR _b$[ebp]
	xor	eax, DWORD PTR _c$[ebp]
	mov	ecx, DWORD PTR _in$[ebp]
	add	eax, DWORD PTR [ecx+16]
	mov	edx, DWORD PTR _d$[ebp]
	lea	eax, DWORD PTR [edx+eax+1272893353]
	mov	DWORD PTR _d$[ebp], eax
	mov	ecx, DWORD PTR _d$[ebp]
	shl	ecx, 11					; 0000000bH
	mov	edx, DWORD PTR _d$[ebp]
	shr	edx, 21					; 00000015H
	or	ecx, edx
	mov	DWORD PTR _d$[ebp], ecx
	mov	eax, DWORD PTR _d$[ebp]
	add	eax, DWORD PTR _a$[ebp]
	mov	DWORD PTR _d$[ebp], eax

; 220  :     MD5STEP(F3, c, d, a, b, in[7] + 0xf6bb4b60, 16);

	mov	eax, DWORD PTR _d$[ebp]
	xor	eax, DWORD PTR _a$[ebp]
	xor	eax, DWORD PTR _b$[ebp]
	mov	ecx, DWORD PTR _in$[ebp]
	add	eax, DWORD PTR [ecx+28]
	mov	edx, DWORD PTR _c$[ebp]
	lea	eax, DWORD PTR [edx+eax-155497632]
	mov	DWORD PTR _c$[ebp], eax
	mov	ecx, DWORD PTR _c$[ebp]
	shl	ecx, 16					; 00000010H
	mov	edx, DWORD PTR _c$[ebp]
	shr	edx, 16					; 00000010H
	or	ecx, edx
	mov	DWORD PTR _c$[ebp], ecx
	mov	eax, DWORD PTR _c$[ebp]
	add	eax, DWORD PTR _d$[ebp]
	mov	DWORD PTR _c$[ebp], eax

; 221  :     MD5STEP(F3, b, c, d, a, in[10] + 0xbebfbc70, 23);

	mov	eax, DWORD PTR _c$[ebp]
	xor	eax, DWORD PTR _d$[ebp]
	xor	eax, DWORD PTR _a$[ebp]
	mov	ecx, DWORD PTR _in$[ebp]
	add	eax, DWORD PTR [ecx+40]
	mov	edx, DWORD PTR _b$[ebp]
	lea	eax, DWORD PTR [edx+eax-1094730640]
	mov	DWORD PTR _b$[ebp], eax
	mov	ecx, DWORD PTR _b$[ebp]
	shl	ecx, 23					; 00000017H
	mov	edx, DWORD PTR _b$[ebp]
	shr	edx, 9
	or	ecx, edx
	mov	DWORD PTR _b$[ebp], ecx
	mov	eax, DWORD PTR _b$[ebp]
	add	eax, DWORD PTR _c$[ebp]
	mov	DWORD PTR _b$[ebp], eax

; 222  :     MD5STEP(F3, a, b, c, d, in[13] + 0x289b7ec6, 4);

	mov	eax, DWORD PTR _b$[ebp]
	xor	eax, DWORD PTR _c$[ebp]
	xor	eax, DWORD PTR _d$[ebp]
	mov	ecx, DWORD PTR _in$[ebp]
	add	eax, DWORD PTR [ecx+52]
	mov	edx, DWORD PTR _a$[ebp]
	lea	eax, DWORD PTR [edx+eax+681279174]
	mov	DWORD PTR _a$[ebp], eax
	mov	ecx, DWORD PTR _a$[ebp]
	shl	ecx, 4
	mov	edx, DWORD PTR _a$[ebp]
	shr	edx, 28					; 0000001cH
	or	ecx, edx
	mov	DWORD PTR _a$[ebp], ecx
	mov	eax, DWORD PTR _a$[ebp]
	add	eax, DWORD PTR _b$[ebp]
	mov	DWORD PTR _a$[ebp], eax

; 223  :     MD5STEP(F3, d, a, b, c, in[0] + 0xeaa127fa, 11);

	mov	eax, DWORD PTR _a$[ebp]
	xor	eax, DWORD PTR _b$[ebp]
	xor	eax, DWORD PTR _c$[ebp]
	mov	ecx, DWORD PTR _in$[ebp]
	add	eax, DWORD PTR [ecx]
	mov	edx, DWORD PTR _d$[ebp]
	lea	eax, DWORD PTR [edx+eax-358537222]
	mov	DWORD PTR _d$[ebp], eax
	mov	ecx, DWORD PTR _d$[ebp]
	shl	ecx, 11					; 0000000bH
	mov	edx, DWORD PTR _d$[ebp]
	shr	edx, 21					; 00000015H
	or	ecx, edx
	mov	DWORD PTR _d$[ebp], ecx
	mov	eax, DWORD PTR _d$[ebp]
	add	eax, DWORD PTR _a$[ebp]
	mov	DWORD PTR _d$[ebp], eax

; 224  :     MD5STEP(F3, c, d, a, b, in[3] + 0xd4ef3085, 16);

	mov	eax, DWORD PTR _d$[ebp]
	xor	eax, DWORD PTR _a$[ebp]
	xor	eax, DWORD PTR _b$[ebp]
	mov	ecx, DWORD PTR _in$[ebp]
	add	eax, DWORD PTR [ecx+12]
	mov	edx, DWORD PTR _c$[ebp]
	lea	eax, DWORD PTR [edx+eax-722521979]
	mov	DWORD PTR _c$[ebp], eax
	mov	ecx, DWORD PTR _c$[ebp]
	shl	ecx, 16					; 00000010H
	mov	edx, DWORD PTR _c$[ebp]
	shr	edx, 16					; 00000010H
	or	ecx, edx
	mov	DWORD PTR _c$[ebp], ecx
	mov	eax, DWORD PTR _c$[ebp]
	add	eax, DWORD PTR _d$[ebp]
	mov	DWORD PTR _c$[ebp], eax

; 225  :     MD5STEP(F3, b, c, d, a, in[6] + 0x04881d05, 23);

	mov	eax, DWORD PTR _c$[ebp]
	xor	eax, DWORD PTR _d$[ebp]
	xor	eax, DWORD PTR _a$[ebp]
	mov	ecx, DWORD PTR _in$[ebp]
	add	eax, DWORD PTR [ecx+24]
	mov	edx, DWORD PTR _b$[ebp]
	lea	eax, DWORD PTR [edx+eax+76029189]
	mov	DWORD PTR _b$[ebp], eax
	mov	ecx, DWORD PTR _b$[ebp]
	shl	ecx, 23					; 00000017H
	mov	edx, DWORD PTR _b$[ebp]
	shr	edx, 9
	or	ecx, edx
	mov	DWORD PTR _b$[ebp], ecx
	mov	eax, DWORD PTR _b$[ebp]
	add	eax, DWORD PTR _c$[ebp]
	mov	DWORD PTR _b$[ebp], eax

; 226  :     MD5STEP(F3, a, b, c, d, in[9] + 0xd9d4d039, 4);

	mov	eax, DWORD PTR _b$[ebp]
	xor	eax, DWORD PTR _c$[ebp]
	xor	eax, DWORD PTR _d$[ebp]
	mov	ecx, DWORD PTR _in$[ebp]
	add	eax, DWORD PTR [ecx+36]
	mov	edx, DWORD PTR _a$[ebp]
	lea	eax, DWORD PTR [edx+eax-640364487]
	mov	DWORD PTR _a$[ebp], eax
	mov	ecx, DWORD PTR _a$[ebp]
	shl	ecx, 4
	mov	edx, DWORD PTR _a$[ebp]
	shr	edx, 28					; 0000001cH
	or	ecx, edx
	mov	DWORD PTR _a$[ebp], ecx
	mov	eax, DWORD PTR _a$[ebp]
	add	eax, DWORD PTR _b$[ebp]
	mov	DWORD PTR _a$[ebp], eax

; 227  :     MD5STEP(F3, d, a, b, c, in[12] + 0xe6db99e5, 11);

	mov	eax, DWORD PTR _a$[ebp]
	xor	eax, DWORD PTR _b$[ebp]
	xor	eax, DWORD PTR _c$[ebp]
	mov	ecx, DWORD PTR _in$[ebp]
	add	eax, DWORD PTR [ecx+48]
	mov	edx, DWORD PTR _d$[ebp]
	lea	eax, DWORD PTR [edx+eax-421815835]
	mov	DWORD PTR _d$[ebp], eax
	mov	ecx, DWORD PTR _d$[ebp]
	shl	ecx, 11					; 0000000bH
	mov	edx, DWORD PTR _d$[ebp]
	shr	edx, 21					; 00000015H
	or	ecx, edx
	mov	DWORD PTR _d$[ebp], ecx
	mov	eax, DWORD PTR _d$[ebp]
	add	eax, DWORD PTR _a$[ebp]
	mov	DWORD PTR _d$[ebp], eax

; 228  :     MD5STEP(F3, c, d, a, b, in[15] + 0x1fa27cf8, 16);

	mov	eax, DWORD PTR _d$[ebp]
	xor	eax, DWORD PTR _a$[ebp]
	xor	eax, DWORD PTR _b$[ebp]
	mov	ecx, DWORD PTR _in$[ebp]
	add	eax, DWORD PTR [ecx+60]
	mov	edx, DWORD PTR _c$[ebp]
	lea	eax, DWORD PTR [edx+eax+530742520]
	mov	DWORD PTR _c$[ebp], eax
	mov	ecx, DWORD PTR _c$[ebp]
	shl	ecx, 16					; 00000010H
	mov	edx, DWORD PTR _c$[ebp]
	shr	edx, 16					; 00000010H
	or	ecx, edx
	mov	DWORD PTR _c$[ebp], ecx
	mov	eax, DWORD PTR _c$[ebp]
	add	eax, DWORD PTR _d$[ebp]
	mov	DWORD PTR _c$[ebp], eax

; 229  :     MD5STEP(F3, b, c, d, a, in[2] + 0xc4ac5665, 23);

	mov	eax, DWORD PTR _c$[ebp]
	xor	eax, DWORD PTR _d$[ebp]
	xor	eax, DWORD PTR _a$[ebp]
	mov	ecx, DWORD PTR _in$[ebp]
	add	eax, DWORD PTR [ecx+8]
	mov	edx, DWORD PTR _b$[ebp]
	lea	eax, DWORD PTR [edx+eax-995338651]
	mov	DWORD PTR _b$[ebp], eax
	mov	ecx, DWORD PTR _b$[ebp]
	shl	ecx, 23					; 00000017H
	mov	edx, DWORD PTR _b$[ebp]
	shr	edx, 9
	or	ecx, edx
	mov	DWORD PTR _b$[ebp], ecx
	mov	eax, DWORD PTR _b$[ebp]
	add	eax, DWORD PTR _c$[ebp]
	mov	DWORD PTR _b$[ebp], eax

; 230  : 
; 231  :     MD5STEP(F4, a, b, c, d, in[0] + 0xf4292244, 6);

	mov	eax, DWORD PTR _d$[ebp]
	not	eax
	or	eax, DWORD PTR _b$[ebp]
	xor	eax, DWORD PTR _c$[ebp]
	mov	ecx, DWORD PTR _in$[ebp]
	add	eax, DWORD PTR [ecx]
	mov	edx, DWORD PTR _a$[ebp]
	lea	eax, DWORD PTR [edx+eax-198630844]
	mov	DWORD PTR _a$[ebp], eax
	mov	ecx, DWORD PTR _a$[ebp]
	shl	ecx, 6
	mov	edx, DWORD PTR _a$[ebp]
	shr	edx, 26					; 0000001aH
	or	ecx, edx
	mov	DWORD PTR _a$[ebp], ecx
	mov	eax, DWORD PTR _a$[ebp]
	add	eax, DWORD PTR _b$[ebp]
	mov	DWORD PTR _a$[ebp], eax

; 232  :     MD5STEP(F4, d, a, b, c, in[7] + 0x432aff97, 10);

	mov	eax, DWORD PTR _c$[ebp]
	not	eax
	or	eax, DWORD PTR _a$[ebp]
	xor	eax, DWORD PTR _b$[ebp]
	mov	ecx, DWORD PTR _in$[ebp]
	add	eax, DWORD PTR [ecx+28]
	mov	edx, DWORD PTR _d$[ebp]
	lea	eax, DWORD PTR [edx+eax+1126891415]
	mov	DWORD PTR _d$[ebp], eax
	mov	ecx, DWORD PTR _d$[ebp]
	shl	ecx, 10					; 0000000aH
	mov	edx, DWORD PTR _d$[ebp]
	shr	edx, 22					; 00000016H
	or	ecx, edx
	mov	DWORD PTR _d$[ebp], ecx
	mov	eax, DWORD PTR _d$[ebp]
	add	eax, DWORD PTR _a$[ebp]
	mov	DWORD PTR _d$[ebp], eax

; 233  :     MD5STEP(F4, c, d, a, b, in[14] + 0xab9423a7, 15);

	mov	eax, DWORD PTR _b$[ebp]
	not	eax
	or	eax, DWORD PTR _d$[ebp]
	xor	eax, DWORD PTR _a$[ebp]
	mov	ecx, DWORD PTR _in$[ebp]
	add	eax, DWORD PTR [ecx+56]
	mov	edx, DWORD PTR _c$[ebp]
	lea	eax, DWORD PTR [edx+eax-1416354905]
	mov	DWORD PTR _c$[ebp], eax
	mov	ecx, DWORD PTR _c$[ebp]
	shl	ecx, 15					; 0000000fH
	mov	edx, DWORD PTR _c$[ebp]
	shr	edx, 17					; 00000011H
	or	ecx, edx
	mov	DWORD PTR _c$[ebp], ecx
	mov	eax, DWORD PTR _c$[ebp]
	add	eax, DWORD PTR _d$[ebp]
	mov	DWORD PTR _c$[ebp], eax

; 234  :     MD5STEP(F4, b, c, d, a, in[5] + 0xfc93a039, 21);

	mov	eax, DWORD PTR _a$[ebp]
	not	eax
	or	eax, DWORD PTR _c$[ebp]
	xor	eax, DWORD PTR _d$[ebp]
	mov	ecx, DWORD PTR _in$[ebp]
	add	eax, DWORD PTR [ecx+20]
	mov	edx, DWORD PTR _b$[ebp]
	lea	eax, DWORD PTR [edx+eax-57434055]
	mov	DWORD PTR _b$[ebp], eax
	mov	ecx, DWORD PTR _b$[ebp]
	shl	ecx, 21					; 00000015H
	mov	edx, DWORD PTR _b$[ebp]
	shr	edx, 11					; 0000000bH
	or	ecx, edx
	mov	DWORD PTR _b$[ebp], ecx
	mov	eax, DWORD PTR _b$[ebp]
	add	eax, DWORD PTR _c$[ebp]
	mov	DWORD PTR _b$[ebp], eax

; 235  :     MD5STEP(F4, a, b, c, d, in[12] + 0x655b59c3, 6);

	mov	eax, DWORD PTR _d$[ebp]
	not	eax
	or	eax, DWORD PTR _b$[ebp]
	xor	eax, DWORD PTR _c$[ebp]
	mov	ecx, DWORD PTR _in$[ebp]
	add	eax, DWORD PTR [ecx+48]
	mov	edx, DWORD PTR _a$[ebp]
	lea	eax, DWORD PTR [edx+eax+1700485571]
	mov	DWORD PTR _a$[ebp], eax
	mov	ecx, DWORD PTR _a$[ebp]
	shl	ecx, 6
	mov	edx, DWORD PTR _a$[ebp]
	shr	edx, 26					; 0000001aH
	or	ecx, edx
	mov	DWORD PTR _a$[ebp], ecx
	mov	eax, DWORD PTR _a$[ebp]
	add	eax, DWORD PTR _b$[ebp]
	mov	DWORD PTR _a$[ebp], eax

; 236  :     MD5STEP(F4, d, a, b, c, in[3] + 0x8f0ccc92, 10);

	mov	eax, DWORD PTR _c$[ebp]
	not	eax
	or	eax, DWORD PTR _a$[ebp]
	xor	eax, DWORD PTR _b$[ebp]
	mov	ecx, DWORD PTR _in$[ebp]
	add	eax, DWORD PTR [ecx+12]
	mov	edx, DWORD PTR _d$[ebp]
	lea	eax, DWORD PTR [edx+eax-1894986606]
	mov	DWORD PTR _d$[ebp], eax
	mov	ecx, DWORD PTR _d$[ebp]
	shl	ecx, 10					; 0000000aH
	mov	edx, DWORD PTR _d$[ebp]
	shr	edx, 22					; 00000016H
	or	ecx, edx
	mov	DWORD PTR _d$[ebp], ecx
	mov	eax, DWORD PTR _d$[ebp]
	add	eax, DWORD PTR _a$[ebp]
	mov	DWORD PTR _d$[ebp], eax

; 237  :     MD5STEP(F4, c, d, a, b, in[10] + 0xffeff47d, 15);

	mov	eax, DWORD PTR _b$[ebp]
	not	eax
	or	eax, DWORD PTR _d$[ebp]
	xor	eax, DWORD PTR _a$[ebp]
	mov	ecx, DWORD PTR _in$[ebp]
	add	eax, DWORD PTR [ecx+40]
	mov	edx, DWORD PTR _c$[ebp]
	lea	eax, DWORD PTR [edx+eax-1051523]
	mov	DWORD PTR _c$[ebp], eax
	mov	ecx, DWORD PTR _c$[ebp]
	shl	ecx, 15					; 0000000fH
	mov	edx, DWORD PTR _c$[ebp]
	shr	edx, 17					; 00000011H
	or	ecx, edx
	mov	DWORD PTR _c$[ebp], ecx
	mov	eax, DWORD PTR _c$[ebp]
	add	eax, DWORD PTR _d$[ebp]
	mov	DWORD PTR _c$[ebp], eax

; 238  :     MD5STEP(F4, b, c, d, a, in[1] + 0x85845dd1, 21);

	mov	eax, DWORD PTR _a$[ebp]
	not	eax
	or	eax, DWORD PTR _c$[ebp]
	xor	eax, DWORD PTR _d$[ebp]
	mov	ecx, DWORD PTR _in$[ebp]
	add	eax, DWORD PTR [ecx+4]
	mov	edx, DWORD PTR _b$[ebp]
	lea	eax, DWORD PTR [edx+eax-2054922799]
	mov	DWORD PTR _b$[ebp], eax
	mov	ecx, DWORD PTR _b$[ebp]
	shl	ecx, 21					; 00000015H
	mov	edx, DWORD PTR _b$[ebp]
	shr	edx, 11					; 0000000bH
	or	ecx, edx
	mov	DWORD PTR _b$[ebp], ecx
	mov	eax, DWORD PTR _b$[ebp]
	add	eax, DWORD PTR _c$[ebp]
	mov	DWORD PTR _b$[ebp], eax

; 239  :     MD5STEP(F4, a, b, c, d, in[8] + 0x6fa87e4f, 6);

	mov	eax, DWORD PTR _d$[ebp]
	not	eax
	or	eax, DWORD PTR _b$[ebp]
	xor	eax, DWORD PTR _c$[ebp]
	mov	ecx, DWORD PTR _in$[ebp]
	add	eax, DWORD PTR [ecx+32]
	mov	edx, DWORD PTR _a$[ebp]
	lea	eax, DWORD PTR [edx+eax+1873313359]
	mov	DWORD PTR _a$[ebp], eax
	mov	ecx, DWORD PTR _a$[ebp]
	shl	ecx, 6
	mov	edx, DWORD PTR _a$[ebp]
	shr	edx, 26					; 0000001aH
	or	ecx, edx
	mov	DWORD PTR _a$[ebp], ecx
	mov	eax, DWORD PTR _a$[ebp]
	add	eax, DWORD PTR _b$[ebp]
	mov	DWORD PTR _a$[ebp], eax

; 240  :     MD5STEP(F4, d, a, b, c, in[15] + 0xfe2ce6e0, 10);

	mov	eax, DWORD PTR _c$[ebp]
	not	eax
	or	eax, DWORD PTR _a$[ebp]
	xor	eax, DWORD PTR _b$[ebp]
	mov	ecx, DWORD PTR _in$[ebp]
	add	eax, DWORD PTR [ecx+60]
	mov	edx, DWORD PTR _d$[ebp]
	lea	eax, DWORD PTR [edx+eax-30611744]
	mov	DWORD PTR _d$[ebp], eax
	mov	ecx, DWORD PTR _d$[ebp]
	shl	ecx, 10					; 0000000aH
	mov	edx, DWORD PTR _d$[ebp]
	shr	edx, 22					; 00000016H
	or	ecx, edx
	mov	DWORD PTR _d$[ebp], ecx
	mov	eax, DWORD PTR _d$[ebp]
	add	eax, DWORD PTR _a$[ebp]
	mov	DWORD PTR _d$[ebp], eax

; 241  :     MD5STEP(F4, c, d, a, b, in[6] + 0xa3014314, 15);

	mov	eax, DWORD PTR _b$[ebp]
	not	eax
	or	eax, DWORD PTR _d$[ebp]
	xor	eax, DWORD PTR _a$[ebp]
	mov	ecx, DWORD PTR _in$[ebp]
	add	eax, DWORD PTR [ecx+24]
	mov	edx, DWORD PTR _c$[ebp]
	lea	eax, DWORD PTR [edx+eax-1560198380]
	mov	DWORD PTR _c$[ebp], eax
	mov	ecx, DWORD PTR _c$[ebp]
	shl	ecx, 15					; 0000000fH
	mov	edx, DWORD PTR _c$[ebp]
	shr	edx, 17					; 00000011H
	or	ecx, edx
	mov	DWORD PTR _c$[ebp], ecx
	mov	eax, DWORD PTR _c$[ebp]
	add	eax, DWORD PTR _d$[ebp]
	mov	DWORD PTR _c$[ebp], eax

; 242  :     MD5STEP(F4, b, c, d, a, in[13] + 0x4e0811a1, 21);

	mov	eax, DWORD PTR _a$[ebp]
	not	eax
	or	eax, DWORD PTR _c$[ebp]
	xor	eax, DWORD PTR _d$[ebp]
	mov	ecx, DWORD PTR _in$[ebp]
	add	eax, DWORD PTR [ecx+52]
	mov	edx, DWORD PTR _b$[ebp]
	lea	eax, DWORD PTR [edx+eax+1309151649]
	mov	DWORD PTR _b$[ebp], eax
	mov	ecx, DWORD PTR _b$[ebp]
	shl	ecx, 21					; 00000015H
	mov	edx, DWORD PTR _b$[ebp]
	shr	edx, 11					; 0000000bH
	or	ecx, edx
	mov	DWORD PTR _b$[ebp], ecx
	mov	eax, DWORD PTR _b$[ebp]
	add	eax, DWORD PTR _c$[ebp]
	mov	DWORD PTR _b$[ebp], eax

; 243  :     MD5STEP(F4, a, b, c, d, in[4] + 0xf7537e82, 6);

	mov	eax, DWORD PTR _d$[ebp]
	not	eax
	or	eax, DWORD PTR _b$[ebp]
	xor	eax, DWORD PTR _c$[ebp]
	mov	ecx, DWORD PTR _in$[ebp]
	add	eax, DWORD PTR [ecx+16]
	mov	edx, DWORD PTR _a$[ebp]
	lea	eax, DWORD PTR [edx+eax-145523070]
	mov	DWORD PTR _a$[ebp], eax
	mov	ecx, DWORD PTR _a$[ebp]
	shl	ecx, 6
	mov	edx, DWORD PTR _a$[ebp]
	shr	edx, 26					; 0000001aH
	or	ecx, edx
	mov	DWORD PTR _a$[ebp], ecx
	mov	eax, DWORD PTR _a$[ebp]
	add	eax, DWORD PTR _b$[ebp]
	mov	DWORD PTR _a$[ebp], eax

; 244  :     MD5STEP(F4, d, a, b, c, in[11] + 0xbd3af235, 10);

	mov	eax, DWORD PTR _c$[ebp]
	not	eax
	or	eax, DWORD PTR _a$[ebp]
	xor	eax, DWORD PTR _b$[ebp]
	mov	ecx, DWORD PTR _in$[ebp]
	add	eax, DWORD PTR [ecx+44]
	mov	edx, DWORD PTR _d$[ebp]
	lea	eax, DWORD PTR [edx+eax-1120210379]
	mov	DWORD PTR _d$[ebp], eax
	mov	ecx, DWORD PTR _d$[ebp]
	shl	ecx, 10					; 0000000aH
	mov	edx, DWORD PTR _d$[ebp]
	shr	edx, 22					; 00000016H
	or	ecx, edx
	mov	DWORD PTR _d$[ebp], ecx
	mov	eax, DWORD PTR _d$[ebp]
	add	eax, DWORD PTR _a$[ebp]
	mov	DWORD PTR _d$[ebp], eax

; 245  :     MD5STEP(F4, c, d, a, b, in[2] + 0x2ad7d2bb, 15);

	mov	eax, DWORD PTR _b$[ebp]
	not	eax
	or	eax, DWORD PTR _d$[ebp]
	xor	eax, DWORD PTR _a$[ebp]
	mov	ecx, DWORD PTR _in$[ebp]
	add	eax, DWORD PTR [ecx+8]
	mov	edx, DWORD PTR _c$[ebp]
	lea	eax, DWORD PTR [edx+eax+718787259]
	mov	DWORD PTR _c$[ebp], eax
	mov	ecx, DWORD PTR _c$[ebp]
	shl	ecx, 15					; 0000000fH
	mov	edx, DWORD PTR _c$[ebp]
	shr	edx, 17					; 00000011H
	or	ecx, edx
	mov	DWORD PTR _c$[ebp], ecx
	mov	eax, DWORD PTR _c$[ebp]
	add	eax, DWORD PTR _d$[ebp]
	mov	DWORD PTR _c$[ebp], eax

; 246  :     MD5STEP(F4, b, c, d, a, in[9] + 0xeb86d391, 21);

	mov	eax, DWORD PTR _a$[ebp]
	not	eax
	or	eax, DWORD PTR _c$[ebp]
	xor	eax, DWORD PTR _d$[ebp]
	mov	ecx, DWORD PTR _in$[ebp]
	add	eax, DWORD PTR [ecx+36]
	mov	edx, DWORD PTR _b$[ebp]
	lea	eax, DWORD PTR [edx+eax-343485551]
	mov	DWORD PTR _b$[ebp], eax
	mov	ecx, DWORD PTR _b$[ebp]
	shl	ecx, 21					; 00000015H
	mov	edx, DWORD PTR _b$[ebp]
	shr	edx, 11					; 0000000bH
	or	ecx, edx
	mov	DWORD PTR _b$[ebp], ecx
	mov	eax, DWORD PTR _b$[ebp]
	add	eax, DWORD PTR _c$[ebp]
	mov	DWORD PTR _b$[ebp], eax

; 247  : 
; 248  :     buf[0] += a;

	mov	eax, DWORD PTR _buf$[ebp]
	mov	ecx, DWORD PTR [eax]
	add	ecx, DWORD PTR _a$[ebp]
	mov	edx, DWORD PTR _buf$[ebp]
	mov	DWORD PTR [edx], ecx

; 249  :     buf[1] += b;

	mov	eax, DWORD PTR _buf$[ebp]
	mov	ecx, DWORD PTR [eax+4]
	add	ecx, DWORD PTR _b$[ebp]
	mov	edx, DWORD PTR _buf$[ebp]
	mov	DWORD PTR [edx+4], ecx

; 250  :     buf[2] += c;

	mov	eax, DWORD PTR _buf$[ebp]
	mov	ecx, DWORD PTR [eax+8]
	add	ecx, DWORD PTR _c$[ebp]
	mov	edx, DWORD PTR _buf$[ebp]
	mov	DWORD PTR [edx+8], ecx

; 251  :     buf[3] += d;

	mov	eax, DWORD PTR _buf$[ebp]
	mov	ecx, DWORD PTR [eax+12]
	add	ecx, DWORD PTR _d$[ebp]
	mov	edx, DWORD PTR _buf$[ebp]
	mov	DWORD PTR [edx+12], ecx

; 252  : }

	pop	edi
	pop	esi
	pop	ebx
	mov	esp, ebp
	pop	ebp
	ret	0
?MD5Transform@@YAXQAKQBK@Z ENDP				; MD5Transform
_TEXT	ENDS
END
