; Listing generated by Microsoft (R) Optimizing Compiler Version 15.00.30729.01 

	TITLE	d:\vice-players-master\Client\net\netrpc.cpp
	.686P
	.XMM
	include listing.inc
	.model	flat

INCLUDELIB LIBCMTD
INCLUDELIB OLDNAMES

PUBLIC	??$Read@I@BitStream@RakNet@@QAE_NAAI@Z		; RakNet::BitStream::Read<unsigned int>
PUBLIC	??$Read@E@BitStream@RakNet@@QAE_NAAE@Z		; RakNet::BitStream::Read<unsigned char>
PUBLIC	?GetPlayerManager@CNetworkManager@@QAEPAVCPlayerManager@@XZ ; CNetworkManager::GetPlayerManager
PUBLIC	__$ArrayPad$
PUBLIC	?ServerJoin@@YAXPAVBitStream@RakNet@@PAUPacket@2@@Z ; ServerJoin
EXTRN	?New@CPlayerManager@@QAEHEPAD@Z:PROC		; CPlayerManager::New
EXTRN	?Read@BitStream@RakNet@@QAE_NPADI@Z:PROC	; RakNet::BitStream::Read
EXTRN	_memset:PROC
EXTRN	?pNetowkManager@@3PAVCNetworkManager@@A:DWORD	; pNetowkManager
EXTRN	___security_cookie:DWORD
EXTRN	__RTC_CheckEsp:PROC
EXTRN	@__security_check_cookie@4:PROC
EXTRN	@_RTC_CheckStackVars@8:PROC
EXTRN	__RTC_Shutdown:PROC
EXTRN	__RTC_InitBase:PROC
;	COMDAT rtc$TMZ
; File d:\vice-players-master\client\net\netrpc.cpp
rtc$TMZ	SEGMENT
__RTC_Shutdown.rtc$TMZ DD FLAT:__RTC_Shutdown
rtc$TMZ	ENDS
;	COMDAT rtc$IMZ
rtc$IMZ	SEGMENT
__RTC_InitBase.rtc$IMZ DD FLAT:__RTC_InitBase
; Function compile flags: /Odtp /RTCsu /ZI
rtc$IMZ	ENDS
;	COMDAT ?ServerJoin@@YAXPAVBitStream@RakNet@@PAUPacket@2@@Z
_TEXT	SEGMENT
_uiNameLength$ = -68					; size = 4
_playerID$ = -53					; size = 1
_szPlayerName$ = -44					; size = 24
_pPlayerManager$ = -12					; size = 4
__$ArrayPad$ = -4					; size = 4
_bitStream$ = 8						; size = 4
_packet$ = 12						; size = 4
?ServerJoin@@YAXPAVBitStream@RakNet@@PAUPacket@2@@Z PROC ; ServerJoin, COMDAT

; 30   : {

	push	ebp
	mov	ebp, esp
	sub	esp, 264				; 00000108H
	push	ebx
	push	esi
	push	edi
	lea	edi, DWORD PTR [ebp-264]
	mov	ecx, 66					; 00000042H
	mov	eax, -858993460				; ccccccccH
	rep stosd
	mov	eax, DWORD PTR ___security_cookie
	xor	eax, ebp
	mov	DWORD PTR __$ArrayPad$[ebp], eax

; 31   : 	CPlayerManager *pPlayerManager = pNetowkManager->GetPlayerManager();

	mov	ecx, DWORD PTR ?pNetowkManager@@3PAVCNetworkManager@@A ; pNetowkManager
	call	?GetPlayerManager@CNetworkManager@@QAEPAVCPlayerManager@@XZ ; CNetworkManager::GetPlayerManager
	mov	DWORD PTR _pPlayerManager$[ebp], eax

; 32   : 	CHAR szPlayerName[MAX_PLAYER_NAME];
; 33   : 	EntityId playerID;
; 34   : 	UINT uiNameLength;
; 35   : 
; 36   : 	memset(szPlayerName,0,MAX_PLAYER_NAME);

	push	24					; 00000018H
	push	0
	lea	eax, DWORD PTR _szPlayerName$[ebp]
	push	eax
	call	_memset
	add	esp, 12					; 0000000cH

; 37   : 
; 38   : 	bitStream->Read(playerID);

	lea	eax, DWORD PTR _playerID$[ebp]
	push	eax
	mov	ecx, DWORD PTR _bitStream$[ebp]
	call	??$Read@E@BitStream@RakNet@@QAE_NAAE@Z	; RakNet::BitStream::Read<unsigned char>

; 39   : 	bitStream->Read(uiNameLength);

	lea	eax, DWORD PTR _uiNameLength$[ebp]
	push	eax
	mov	ecx, DWORD PTR _bitStream$[ebp]
	call	??$Read@I@BitStream@RakNet@@QAE_NAAI@Z	; RakNet::BitStream::Read<unsigned int>

; 40   : 	bitStream->Read(szPlayerName,uiNameLength);

	mov	eax, DWORD PTR _uiNameLength$[ebp]
	push	eax
	lea	ecx, DWORD PTR _szPlayerName$[ebp]
	push	ecx
	mov	ecx, DWORD PTR _bitStream$[ebp]
	call	?Read@BitStream@RakNet@@QAE_NPADI@Z	; RakNet::BitStream::Read

; 41   : 	szPlayerName[uiNameLength] = '\0';

	mov	eax, DWORD PTR _uiNameLength$[ebp]
	mov	BYTE PTR _szPlayerName$[ebp+eax], 0

; 42   : 
; 43   : 	// Add this client to the player pool.
; 44   : 	pPlayerManager->New(playerID, szPlayerName);

	lea	eax, DWORD PTR _szPlayerName$[ebp]
	push	eax
	movzx	ecx, BYTE PTR _playerID$[ebp]
	push	ecx
	mov	ecx, DWORD PTR _pPlayerManager$[ebp]
	call	?New@CPlayerManager@@QAEHEPAD@Z		; CPlayerManager::New

; 45   : }

	push	edx
	mov	ecx, ebp
	push	eax
	lea	edx, DWORD PTR $LN7@ServerJoin
	call	@_RTC_CheckStackVars@8
	pop	eax
	pop	edx
	pop	edi
	pop	esi
	pop	ebx
	mov	ecx, DWORD PTR __$ArrayPad$[ebp]
	xor	ecx, ebp
	call	@__security_check_cookie@4
	add	esp, 264				; 00000108H
	cmp	ebp, esp
	call	__RTC_CheckEsp
	mov	esp, ebp
	pop	ebp
	ret	0
	npad	2
$LN7@ServerJoin:
	DD	3
	DD	$LN6@ServerJoin
$LN6@ServerJoin:
	DD	-44					; ffffffd4H
	DD	24					; 00000018H
	DD	$LN3@ServerJoin
	DD	-53					; ffffffcbH
	DD	1
	DD	$LN4@ServerJoin
	DD	-68					; ffffffbcH
	DD	4
	DD	$LN5@ServerJoin
$LN5@ServerJoin:
	DB	117					; 00000075H
	DB	105					; 00000069H
	DB	78					; 0000004eH
	DB	97					; 00000061H
	DB	109					; 0000006dH
	DB	101					; 00000065H
	DB	76					; 0000004cH
	DB	101					; 00000065H
	DB	110					; 0000006eH
	DB	103					; 00000067H
	DB	116					; 00000074H
	DB	104					; 00000068H
	DB	0
$LN4@ServerJoin:
	DB	112					; 00000070H
	DB	108					; 0000006cH
	DB	97					; 00000061H
	DB	121					; 00000079H
	DB	101					; 00000065H
	DB	114					; 00000072H
	DB	73					; 00000049H
	DB	68					; 00000044H
	DB	0
$LN3@ServerJoin:
	DB	115					; 00000073H
	DB	122					; 0000007aH
	DB	80					; 00000050H
	DB	108					; 0000006cH
	DB	97					; 00000061H
	DB	121					; 00000079H
	DB	101					; 00000065H
	DB	114					; 00000072H
	DB	78					; 0000004eH
	DB	97					; 00000061H
	DB	109					; 0000006dH
	DB	101					; 00000065H
	DB	0
?ServerJoin@@YAXPAVBitStream@RakNet@@PAUPacket@2@@Z ENDP ; ServerJoin
_TEXT	ENDS
PUBLIC	?ServerQuit@@YAXPAVBitStream@RakNet@@PAUPacket@2@@Z ; ServerQuit
EXTRN	?Delete@CPlayerManager@@QAEHEE@Z:PROC		; CPlayerManager::Delete
; Function compile flags: /Odtp /RTCsu /ZI
;	COMDAT ?ServerQuit@@YAXPAVBitStream@RakNet@@PAUPacket@2@@Z
_TEXT	SEGMENT
_byteReason$ = -29					; size = 1
_playerID$ = -17					; size = 1
_pPlayerManager$ = -8					; size = 4
_bitStream$ = 8						; size = 4
_packet$ = 12						; size = 4
?ServerQuit@@YAXPAVBitStream@RakNet@@PAUPacket@2@@Z PROC ; ServerQuit, COMDAT

; 52   : {

	push	ebp
	mov	ebp, esp
	sub	esp, 228				; 000000e4H
	push	ebx
	push	esi
	push	edi
	lea	edi, DWORD PTR [ebp-228]
	mov	ecx, 57					; 00000039H
	mov	eax, -858993460				; ccccccccH
	rep stosd

; 53   : 	CPlayerManager *pPlayerManager = pNetowkManager->GetPlayerManager();

	mov	ecx, DWORD PTR ?pNetowkManager@@3PAVCNetworkManager@@A ; pNetowkManager
	call	?GetPlayerManager@CNetworkManager@@QAEPAVCPlayerManager@@XZ ; CNetworkManager::GetPlayerManager
	mov	DWORD PTR _pPlayerManager$[ebp], eax

; 54   : 	EntityId playerID;
; 55   : 	BYTE byteReason;
; 56   : 
; 57   : 	bitStream->Read(playerID);

	lea	eax, DWORD PTR _playerID$[ebp]
	push	eax
	mov	ecx, DWORD PTR _bitStream$[ebp]
	call	??$Read@E@BitStream@RakNet@@QAE_NAAE@Z	; RakNet::BitStream::Read<unsigned char>

; 58   : 	bitStream->Read(byteReason);

	lea	eax, DWORD PTR _byteReason$[ebp]
	push	eax
	mov	ecx, DWORD PTR _bitStream$[ebp]
	call	??$Read@E@BitStream@RakNet@@QAE_NAAE@Z	; RakNet::BitStream::Read<unsigned char>

; 59   : 
; 60   : 	// Delete this client from the player pool.
; 61   : 	pPlayerManager->Delete(playerID,byteReason);

	movzx	eax, BYTE PTR _byteReason$[ebp]
	push	eax
	movzx	ecx, BYTE PTR _playerID$[ebp]
	push	ecx
	mov	ecx, DWORD PTR _pPlayerManager$[ebp]
	call	?Delete@CPlayerManager@@QAEHEE@Z	; CPlayerManager::Delete

; 62   : }

	push	edx
	mov	ecx, ebp
	push	eax
	lea	edx, DWORD PTR $LN6@ServerQuit
	call	@_RTC_CheckStackVars@8
	pop	eax
	pop	edx
	pop	edi
	pop	esi
	pop	ebx
	add	esp, 228				; 000000e4H
	cmp	ebp, esp
	call	__RTC_CheckEsp
	mov	esp, ebp
	pop	ebp
	ret	0
	npad	1
$LN6@ServerQuit:
	DD	2
	DD	$LN5@ServerQuit
$LN5@ServerQuit:
	DD	-17					; ffffffefH
	DD	1
	DD	$LN3@ServerQuit
	DD	-29					; ffffffe3H
	DD	1
	DD	$LN4@ServerQuit
$LN4@ServerQuit:
	DB	98					; 00000062H
	DB	121					; 00000079H
	DB	116					; 00000074H
	DB	101					; 00000065H
	DB	82					; 00000052H
	DB	101					; 00000065H
	DB	97					; 00000061H
	DB	115					; 00000073H
	DB	111					; 0000006fH
	DB	110					; 0000006eH
	DB	0
$LN3@ServerQuit:
	DB	112					; 00000070H
	DB	108					; 0000006cH
	DB	97					; 00000061H
	DB	121					; 00000079H
	DB	101					; 00000065H
	DB	114					; 00000072H
	DB	73					; 00000049H
	DB	68					; 00000044H
	DB	0
?ServerQuit@@YAXPAVBitStream@RakNet@@PAUPacket@2@@Z ENDP ; ServerQuit
_TEXT	ENDS
PUBLIC	?SetGameState@CNetworkManager@@QAEXH@Z		; CNetworkManager::SetGameState
PUBLIC	?SetLocalPlayerID@CPlayerManager@@QAEXE@Z	; CPlayerManager::SetLocalPlayerID
PUBLIC	??$Read@M@BitStream@RakNet@@QAE_NAAM@Z		; RakNet::BitStream::Read<float>
PUBLIC	?InitGame@@YAXPAVBitStream@RakNet@@PAUPacket@2@@Z ; InitGame
EXTRN	?InitGameLogic@CNetworkManager@@QAEXXZ:PROC	; CNetworkManager::InitGameLogic
EXTRN	?FadeScreen@CGame@@QAEXHH@Z:PROC		; CGame::FadeScreen
EXTRN	?pGame@@3PAVCGame@@A:DWORD			; pGame
; Function compile flags: /Odtp /RTCsu /ZI
;	COMDAT ?InitGame@@YAXPAVBitStream@RakNet@@PAUPacket@2@@Z
_TEXT	SEGMENT
_myPlayerID$ = -17					; size = 1
_pPlayerManager$ = -8					; size = 4
_bitStream$ = 8						; size = 4
_packet$ = 12						; size = 4
?InitGame@@YAXPAVBitStream@RakNet@@PAUPacket@2@@Z PROC	; InitGame, COMDAT

; 69   : {

	push	ebp
	mov	ebp, esp
	sub	esp, 216				; 000000d8H
	push	ebx
	push	esi
	push	edi
	lea	edi, DWORD PTR [ebp-216]
	mov	ecx, 54					; 00000036H
	mov	eax, -858993460				; ccccccccH
	rep stosd

; 70   : 	CPlayerManager *pPlayerManager = pNetowkManager->GetPlayerManager();

	mov	ecx, DWORD PTR ?pNetowkManager@@3PAVCNetworkManager@@A ; pNetowkManager
	call	?GetPlayerManager@CNetworkManager@@QAEPAVCPlayerManager@@XZ ; CNetworkManager::GetPlayerManager
	mov	DWORD PTR _pPlayerManager$[ebp], eax

; 71   : 	EntityId myPlayerID;
; 72   : 
; 73   : 	bitStream->Read((char *)&pNetowkManager->m_vecInitPlayerPos, sizeof(Vector3));

	push	12					; 0000000cH
	mov	eax, DWORD PTR ?pNetowkManager@@3PAVCNetworkManager@@A ; pNetowkManager
	add	eax, 304				; 00000130H
	push	eax
	mov	ecx, DWORD PTR _bitStream$[ebp]
	call	?Read@BitStream@RakNet@@QAE_NPADI@Z	; RakNet::BitStream::Read

; 74   : 	bitStream->Read((char *)&pNetowkManager->m_vecInitCameraPos, sizeof(Vector3));

	push	12					; 0000000cH
	mov	eax, DWORD PTR ?pNetowkManager@@3PAVCNetworkManager@@A ; pNetowkManager
	add	eax, 316				; 0000013cH
	push	eax
	mov	ecx, DWORD PTR _bitStream$[ebp]
	call	?Read@BitStream@RakNet@@QAE_NPADI@Z	; RakNet::BitStream::Read

; 75   : 	bitStream->Read((char *)&pNetowkManager->m_vecInitCameraLook, sizeof(Vector3));

	push	12					; 0000000cH
	mov	eax, DWORD PTR ?pNetowkManager@@3PAVCNetworkManager@@A ; pNetowkManager
	add	eax, 328				; 00000148H
	push	eax
	mov	ecx, DWORD PTR _bitStream$[ebp]
	call	?Read@BitStream@RakNet@@QAE_NPADI@Z	; RakNet::BitStream::Read

; 76   : 	bitStream->Read(pNetowkManager->m_WorldBounds[0]);

	mov	eax, DWORD PTR ?pNetowkManager@@3PAVCNetworkManager@@A ; pNetowkManager
	add	eax, 340				; 00000154H
	push	eax
	mov	ecx, DWORD PTR _bitStream$[ebp]
	call	??$Read@M@BitStream@RakNet@@QAE_NAAM@Z	; RakNet::BitStream::Read<float>

; 77   : 	bitStream->Read(pNetowkManager->m_WorldBounds[1]);

	mov	eax, DWORD PTR ?pNetowkManager@@3PAVCNetworkManager@@A ; pNetowkManager
	add	eax, 344				; 00000158H
	push	eax
	mov	ecx, DWORD PTR _bitStream$[ebp]
	call	??$Read@M@BitStream@RakNet@@QAE_NAAM@Z	; RakNet::BitStream::Read<float>

; 78   : 	bitStream->Read(pNetowkManager->m_WorldBounds[2]);

	mov	eax, DWORD PTR ?pNetowkManager@@3PAVCNetworkManager@@A ; pNetowkManager
	add	eax, 348				; 0000015cH
	push	eax
	mov	ecx, DWORD PTR _bitStream$[ebp]
	call	??$Read@M@BitStream@RakNet@@QAE_NAAM@Z	; RakNet::BitStream::Read<float>

; 79   : 	bitStream->Read(pNetowkManager->m_WorldBounds[3]);

	mov	eax, DWORD PTR ?pNetowkManager@@3PAVCNetworkManager@@A ; pNetowkManager
	add	eax, 352				; 00000160H
	push	eax
	mov	ecx, DWORD PTR _bitStream$[ebp]
	call	??$Read@M@BitStream@RakNet@@QAE_NAAM@Z	; RakNet::BitStream::Read<float>

; 80   : 	bitStream->Read(pNetowkManager->m_byteFriendlyFire);

	mov	eax, DWORD PTR ?pNetowkManager@@3PAVCNetworkManager@@A ; pNetowkManager
	add	eax, 356				; 00000164H
	push	eax
	mov	ecx, DWORD PTR _bitStream$[ebp]
	call	??$Read@E@BitStream@RakNet@@QAE_NAAE@Z	; RakNet::BitStream::Read<unsigned char>

; 81   : 	bitStream->Read(pNetowkManager->m_byteShowOnRadar);

	mov	eax, DWORD PTR ?pNetowkManager@@3PAVCNetworkManager@@A ; pNetowkManager
	add	eax, 357				; 00000165H
	push	eax
	mov	ecx, DWORD PTR _bitStream$[ebp]
	call	??$Read@E@BitStream@RakNet@@QAE_NAAE@Z	; RakNet::BitStream::Read<unsigned char>

; 82   : 	bitStream->Read(myPlayerID);

	lea	eax, DWORD PTR _myPlayerID$[ebp]
	push	eax
	mov	ecx, DWORD PTR _bitStream$[ebp]
	call	??$Read@E@BitStream@RakNet@@QAE_NAAE@Z	; RakNet::BitStream::Read<unsigned char>

; 83   : 
; 84   : 	pPlayerManager->SetLocalPlayerID(myPlayerID);

	movzx	eax, BYTE PTR _myPlayerID$[ebp]
	push	eax
	mov	ecx, DWORD PTR _pPlayerManager$[ebp]
	call	?SetLocalPlayerID@CPlayerManager@@QAEXE@Z ; CPlayerManager::SetLocalPlayerID

; 85   : 
; 86   : 	pGame->FadeScreen(1, 0);

	push	0
	push	1
	mov	ecx, DWORD PTR ?pGame@@3PAVCGame@@A	; pGame
	call	?FadeScreen@CGame@@QAEXHH@Z		; CGame::FadeScreen

; 87   : 	pNetowkManager->InitGameLogic();

	mov	ecx, DWORD PTR ?pNetowkManager@@3PAVCNetworkManager@@A ; pNetowkManager
	call	?InitGameLogic@CNetworkManager@@QAEXXZ	; CNetworkManager::InitGameLogic

; 88   : 	pNetowkManager->SetGameState(GAMESTATE_CONNECTED);

	push	2
	mov	ecx, DWORD PTR ?pNetowkManager@@3PAVCNetworkManager@@A ; pNetowkManager
	call	?SetGameState@CNetworkManager@@QAEXH@Z	; CNetworkManager::SetGameState

; 89   : }

	push	edx
	mov	ecx, ebp
	push	eax
	lea	edx, DWORD PTR $LN5@InitGame
	call	@_RTC_CheckStackVars@8
	pop	eax
	pop	edx
	pop	edi
	pop	esi
	pop	ebx
	add	esp, 216				; 000000d8H
	cmp	ebp, esp
	call	__RTC_CheckEsp
	mov	esp, ebp
	pop	ebp
	ret	0
	npad	2
$LN5@InitGame:
	DD	1
	DD	$LN4@InitGame
$LN4@InitGame:
	DD	-17					; ffffffefH
	DD	1
	DD	$LN3@InitGame
$LN3@InitGame:
	DB	109					; 0000006dH
	DB	121					; 00000079H
	DB	80					; 00000050H
	DB	108					; 0000006cH
	DB	97					; 00000061H
	DB	121					; 00000079H
	DB	101					; 00000065H
	DB	114					; 00000072H
	DB	73					; 00000049H
	DB	68					; 00000044H
	DB	0
?InitGame@@YAXPAVBitStream@RakNet@@PAUPacket@2@@Z ENDP	; InitGame
_TEXT	ENDS
PUBLIC	?GetAt@CPlayerManager@@QAEPAVCRemotePlayer@@E@Z	; CPlayerManager::GetAt
PUBLIC	?GetLocalPlayerName@CPlayerManager@@QAEPADXZ	; CPlayerManager::GetLocalPlayerName
PUBLIC	?GetLocalPlayer@CPlayerManager@@QAEPAVCLocalPlayer@@XZ ; CPlayerManager::GetLocalPlayer
PUBLIC	?GetLocalPlayerID@CPlayerManager@@QAEEXZ	; CPlayerManager::GetLocalPlayerID
PUBLIC	__$ArrayPad$
PUBLIC	?Chat@@YAXPAVBitStream@RakNet@@PAUPacket@2@@Z	; Chat
EXTRN	?Say@CRemotePlayer@@QAEXPAD@Z:PROC		; CRemotePlayer::Say
EXTRN	?AddChatMessage@CChatWindow@@QAEXPADK0@Z:PROC	; CChatWindow::AddChatMessage
EXTRN	?pChatWindow@@3PAVCChatWindow@@A:DWORD		; pChatWindow
EXTRN	?GetTeamColorAsARGB@CLocalPlayer@@QAEKXZ:PROC	; CLocalPlayer::GetTeamColorAsARGB
; Function compile flags: /Odtp /RTCsu /ZI
;	COMDAT ?Chat@@YAXPAVBitStream@RakNet@@PAUPacket@2@@Z
_TEXT	SEGMENT
_pRemotePlayer$209299 = -312				; size = 4
_pPlayerManager$ = -300					; size = 4
_szText$ = -288						; size = 256
_byteTextLen$ = -21					; size = 1
_playerID$ = -9						; size = 1
__$ArrayPad$ = -4					; size = 4
_bitStream$ = 8						; size = 4
_packet$ = 12						; size = 4
?Chat@@YAXPAVBitStream@RakNet@@PAUPacket@2@@Z PROC	; Chat, COMDAT

; 95   : {

	push	ebp
	mov	ebp, esp
	sub	esp, 508				; 000001fcH
	push	ebx
	push	esi
	push	edi
	lea	edi, DWORD PTR [ebp-508]
	mov	ecx, 127				; 0000007fH
	mov	eax, -858993460				; ccccccccH
	rep stosd
	mov	eax, DWORD PTR ___security_cookie
	xor	eax, ebp
	mov	DWORD PTR __$ArrayPad$[ebp], eax

; 96   : 	EntityId playerID;
; 97   : 	BYTE byteTextLen;
; 98   : 	CHAR szText[256];
; 99   : 
; 100  : 	bitStream->Read(playerID);

	lea	eax, DWORD PTR _playerID$[ebp]
	push	eax
	mov	ecx, DWORD PTR _bitStream$[ebp]
	call	??$Read@E@BitStream@RakNet@@QAE_NAAE@Z	; RakNet::BitStream::Read<unsigned char>

; 101  : 	bitStream->Read(byteTextLen);

	lea	eax, DWORD PTR _byteTextLen$[ebp]
	push	eax
	mov	ecx, DWORD PTR _bitStream$[ebp]
	call	??$Read@E@BitStream@RakNet@@QAE_NAAE@Z	; RakNet::BitStream::Read<unsigned char>

; 102  : 	bitStream->Read(szText,byteTextLen);

	movzx	eax, BYTE PTR _byteTextLen$[ebp]
	push	eax
	lea	ecx, DWORD PTR _szText$[ebp]
	push	ecx
	mov	ecx, DWORD PTR _bitStream$[ebp]
	call	?Read@BitStream@RakNet@@QAE_NPADI@Z	; RakNet::BitStream::Read

; 103  : 
; 104  : 	szText[byteTextLen] = '\0';

	movzx	eax, BYTE PTR _byteTextLen$[ebp]
	mov	BYTE PTR _szText$[ebp+eax], 0

; 105  : 
; 106  : 	CPlayerManager * pPlayerManager = pNetowkManager->GetPlayerManager();

	mov	ecx, DWORD PTR ?pNetowkManager@@3PAVCNetworkManager@@A ; pNetowkManager
	call	?GetPlayerManager@CNetworkManager@@QAEPAVCPlayerManager@@XZ ; CNetworkManager::GetPlayerManager
	mov	DWORD PTR _pPlayerManager$[ebp], eax

; 107  : 	if(playerID == pPlayerManager->GetLocalPlayerID()) {

	movzx	esi, BYTE PTR _playerID$[ebp]
	mov	ecx, DWORD PTR _pPlayerManager$[ebp]
	call	?GetLocalPlayerID@CPlayerManager@@QAEEXZ ; CPlayerManager::GetLocalPlayerID
	movzx	eax, al
	cmp	esi, eax
	jne	SHORT $LN3@Chat

; 108  : 		pChatWindow->AddChatMessage(pNetowkManager->GetPlayerManager()->GetLocalPlayerName(),
; 109  : 			pPlayerManager->GetLocalPlayer()->GetTeamColorAsARGB(),szText);

	lea	eax, DWORD PTR _szText$[ebp]
	push	eax
	mov	ecx, DWORD PTR _pPlayerManager$[ebp]
	call	?GetLocalPlayer@CPlayerManager@@QAEPAVCLocalPlayer@@XZ ; CPlayerManager::GetLocalPlayer
	mov	ecx, eax
	call	?GetTeamColorAsARGB@CLocalPlayer@@QAEKXZ ; CLocalPlayer::GetTeamColorAsARGB
	push	eax
	mov	ecx, DWORD PTR ?pNetowkManager@@3PAVCNetworkManager@@A ; pNetowkManager
	call	?GetPlayerManager@CNetworkManager@@QAEPAVCPlayerManager@@XZ ; CNetworkManager::GetPlayerManager
	mov	ecx, eax
	call	?GetLocalPlayerName@CPlayerManager@@QAEPADXZ ; CPlayerManager::GetLocalPlayerName
	push	eax
	mov	ecx, DWORD PTR ?pChatWindow@@3PAVCChatWindow@@A ; pChatWindow
	call	?AddChatMessage@CChatWindow@@QAEXPADK0@Z ; CChatWindow::AddChatMessage

; 110  : 	}
; 111  : 	else

	jmp	SHORT $LN4@Chat
$LN3@Chat:

; 112  : 	{
; 113  : 		CRemotePlayer *pRemotePlayer = pNetowkManager->GetPlayerManager()->GetAt(playerID);

	movzx	eax, BYTE PTR _playerID$[ebp]
	push	eax
	mov	ecx, DWORD PTR ?pNetowkManager@@3PAVCNetworkManager@@A ; pNetowkManager
	call	?GetPlayerManager@CNetworkManager@@QAEPAVCPlayerManager@@XZ ; CNetworkManager::GetPlayerManager
	mov	ecx, eax
	call	?GetAt@CPlayerManager@@QAEPAVCRemotePlayer@@E@Z ; CPlayerManager::GetAt
	mov	DWORD PTR _pRemotePlayer$209299[ebp], eax

; 114  : 		if(pRemotePlayer) {

	cmp	DWORD PTR _pRemotePlayer$209299[ebp], 0
	je	SHORT $LN4@Chat

; 115  : 			pRemotePlayer->Say(szText);	

	lea	eax, DWORD PTR _szText$[ebp]
	push	eax
	mov	ecx, DWORD PTR _pRemotePlayer$209299[ebp]
	call	?Say@CRemotePlayer@@QAEXPAD@Z		; CRemotePlayer::Say
$LN4@Chat:

; 116  : 		}
; 117  : 	}
; 118  : }

	push	edx
	mov	ecx, ebp
	push	eax
	lea	edx, DWORD PTR $LN10@Chat
	call	@_RTC_CheckStackVars@8
	pop	eax
	pop	edx
	pop	edi
	pop	esi
	pop	ebx
	mov	ecx, DWORD PTR __$ArrayPad$[ebp]
	xor	ecx, ebp
	call	@__security_check_cookie@4
	add	esp, 508				; 000001fcH
	cmp	ebp, esp
	call	__RTC_CheckEsp
	mov	esp, ebp
	pop	ebp
	ret	0
$LN10@Chat:
	DD	3
	DD	$LN9@Chat
$LN9@Chat:
	DD	-9					; fffffff7H
	DD	1
	DD	$LN6@Chat
	DD	-21					; ffffffebH
	DD	1
	DD	$LN7@Chat
	DD	-288					; fffffee0H
	DD	256					; 00000100H
	DD	$LN8@Chat
$LN8@Chat:
	DB	115					; 00000073H
	DB	122					; 0000007aH
	DB	84					; 00000054H
	DB	101					; 00000065H
	DB	120					; 00000078H
	DB	116					; 00000074H
	DB	0
$LN7@Chat:
	DB	98					; 00000062H
	DB	121					; 00000079H
	DB	116					; 00000074H
	DB	101					; 00000065H
	DB	84					; 00000054H
	DB	101					; 00000065H
	DB	120					; 00000078H
	DB	116					; 00000074H
	DB	76					; 0000004cH
	DB	101					; 00000065H
	DB	110					; 0000006eH
	DB	0
$LN6@Chat:
	DB	112					; 00000070H
	DB	108					; 0000006cH
	DB	97					; 00000061H
	DB	121					; 00000079H
	DB	101					; 00000065H
	DB	114					; 00000072H
	DB	73					; 00000049H
	DB	68					; 00000044H
	DB	0
?Chat@@YAXPAVBitStream@RakNet@@PAUPacket@2@@Z ENDP	; Chat
_TEXT	ENDS
PUBLIC	?Passenger@@YAXPAVBitStream@RakNet@@PAUPacket@2@@Z ; Passenger
EXTRN	?StorePassengerData@CRemotePlayer@@QAEXEE@Z:PROC ; CRemotePlayer::StorePassengerData
; Function compile flags: /Odtp /RTCsu /ZI
;	COMDAT ?Passenger@@YAXPAVBitStream@RakNet@@PAUPacket@2@@Z
_TEXT	SEGMENT
_pRemotePlayer$ = -44					; size = 4
_byteSeat$ = -29					; size = 1
_vehicleID$ = -17					; size = 1
_playerID$ = -5						; size = 1
_bitStream$ = 8						; size = 4
_packet$ = 12						; size = 4
?Passenger@@YAXPAVBitStream@RakNet@@PAUPacket@2@@Z PROC	; Passenger, COMDAT

; 125  : {

	push	ebp
	mov	ebp, esp
	sub	esp, 240				; 000000f0H
	push	ebx
	push	esi
	push	edi
	lea	edi, DWORD PTR [ebp-240]
	mov	ecx, 60					; 0000003cH
	mov	eax, -858993460				; ccccccccH
	rep stosd

; 126  : 	EntityId playerID;
; 127  : 	EntityId vehicleID;
; 128  : 	BYTE byteSeat;
; 129  : 
; 130  : 	bitStream->Read(playerID);

	lea	eax, DWORD PTR _playerID$[ebp]
	push	eax
	mov	ecx, DWORD PTR _bitStream$[ebp]
	call	??$Read@E@BitStream@RakNet@@QAE_NAAE@Z	; RakNet::BitStream::Read<unsigned char>

; 131  : 	bitStream->Read(vehicleID);

	lea	eax, DWORD PTR _vehicleID$[ebp]
	push	eax
	mov	ecx, DWORD PTR _bitStream$[ebp]
	call	??$Read@E@BitStream@RakNet@@QAE_NAAE@Z	; RakNet::BitStream::Read<unsigned char>

; 132  : 	bitStream->Read(byteSeat);

	lea	eax, DWORD PTR _byteSeat$[ebp]
	push	eax
	mov	ecx, DWORD PTR _bitStream$[ebp]
	call	??$Read@E@BitStream@RakNet@@QAE_NAAE@Z	; RakNet::BitStream::Read<unsigned char>

; 133  : 	
; 134  : 	CRemotePlayer * pRemotePlayer = pNetowkManager->GetPlayerManager()->GetAt(playerID);

	movzx	eax, BYTE PTR _playerID$[ebp]
	push	eax
	mov	ecx, DWORD PTR ?pNetowkManager@@3PAVCNetworkManager@@A ; pNetowkManager
	call	?GetPlayerManager@CNetworkManager@@QAEPAVCPlayerManager@@XZ ; CNetworkManager::GetPlayerManager
	mov	ecx, eax
	call	?GetAt@CPlayerManager@@QAEPAVCRemotePlayer@@E@Z ; CPlayerManager::GetAt
	mov	DWORD PTR _pRemotePlayer$[ebp], eax

; 135  : 
; 136  : 	if(pRemotePlayer) {

	cmp	DWORD PTR _pRemotePlayer$[ebp], 0
	je	SHORT $LN2@Passenger

; 137  : 		pRemotePlayer->StorePassengerData(vehicleID, byteSeat);

	movzx	eax, BYTE PTR _byteSeat$[ebp]
	push	eax
	movzx	ecx, BYTE PTR _vehicleID$[ebp]
	push	ecx
	mov	ecx, DWORD PTR _pRemotePlayer$[ebp]
	call	?StorePassengerData@CRemotePlayer@@QAEXEE@Z ; CRemotePlayer::StorePassengerData
$LN2@Passenger:

; 138  : 	}	
; 139  : }

	push	edx
	mov	ecx, ebp
	push	eax
	lea	edx, DWORD PTR $LN8@Passenger
	call	@_RTC_CheckStackVars@8
	pop	eax
	pop	edx
	pop	edi
	pop	esi
	pop	ebx
	add	esp, 240				; 000000f0H
	cmp	ebp, esp
	call	__RTC_CheckEsp
	mov	esp, ebp
	pop	ebp
	ret	0
	npad	3
$LN8@Passenger:
	DD	3
	DD	$LN7@Passenger
$LN7@Passenger:
	DD	-5					; fffffffbH
	DD	1
	DD	$LN4@Passenger
	DD	-17					; ffffffefH
	DD	1
	DD	$LN5@Passenger
	DD	-29					; ffffffe3H
	DD	1
	DD	$LN6@Passenger
$LN6@Passenger:
	DB	98					; 00000062H
	DB	121					; 00000079H
	DB	116					; 00000074H
	DB	101					; 00000065H
	DB	83					; 00000053H
	DB	101					; 00000065H
	DB	97					; 00000061H
	DB	116					; 00000074H
	DB	0
$LN5@Passenger:
	DB	118					; 00000076H
	DB	101					; 00000065H
	DB	104					; 00000068H
	DB	105					; 00000069H
	DB	99					; 00000063H
	DB	108					; 0000006cH
	DB	101					; 00000065H
	DB	73					; 00000049H
	DB	68					; 00000044H
	DB	0
$LN4@Passenger:
	DB	112					; 00000070H
	DB	108					; 0000006cH
	DB	97					; 00000061H
	DB	121					; 00000079H
	DB	101					; 00000065H
	DB	114					; 00000072H
	DB	73					; 00000049H
	DB	68					; 00000044H
	DB	0
?Passenger@@YAXPAVBitStream@RakNet@@PAUPacket@2@@Z ENDP	; Passenger
_TEXT	ENDS
PUBLIC	??$Read@H@BitStream@RakNet@@QAE_NAAH@Z		; RakNet::BitStream::Read<int>
PUBLIC	?GetGameLogic@CNetworkManager@@QAEPAVCSpawnSelection@@XZ ; CNetworkManager::GetGameLogic
PUBLIC	??0_PLAYER_SPAWN_INFO@@QAE@XZ			; _PLAYER_SPAWN_INFO::_PLAYER_SPAWN_INFO
PUBLIC	?RequestClass@@YAXPAVBitStream@RakNet@@PAUPacket@2@@Z ; RequestClass
EXTRN	?HandleClassSelectionOutcome@CSpawnSelection@@QAEXPAU_PLAYER_SPAWN_INFO@@H@Z:PROC ; CSpawnSelection::HandleClassSelectionOutcome
EXTRN	?SetSpawnInfo@CLocalPlayer@@QAEXPAU_PLAYER_SPAWN_INFO@@@Z:PROC ; CLocalPlayer::SetSpawnInfo
EXTRN	?SetSelectedClass@CSpawnSelection@@QAEXH@Z:PROC	; CSpawnSelection::SetSelectedClass
; Function compile flags: /Odtp /RTCsu /ZI
;	COMDAT ?RequestClass@@YAXPAVBitStream@RakNet@@PAUPacket@2@@Z
_TEXT	SEGMENT
_pGameLogic$ = -100					; size = 4
_pPlayer$ = -88						; size = 4
_SpawnInfo$ = -76					; size = 48
_iRequestedClass$ = -20					; size = 4
_byteOutcome$ = -5					; size = 1
_bitStream$ = 8						; size = 4
_packet$ = 12						; size = 4
?RequestClass@@YAXPAVBitStream@RakNet@@PAUPacket@2@@Z PROC ; RequestClass, COMDAT

; 145  : {

	push	ebp
	mov	ebp, esp
	sub	esp, 296				; 00000128H
	push	ebx
	push	esi
	push	edi
	lea	edi, DWORD PTR [ebp-296]
	mov	ecx, 74					; 0000004aH
	mov	eax, -858993460				; ccccccccH
	rep stosd

; 146  : 	BYTE byteOutcome;
; 147  : 	int iRequestedClass;
; 148  : 	PLAYER_SPAWN_INFO SpawnInfo;

	lea	ecx, DWORD PTR _SpawnInfo$[ebp]
	call	??0_PLAYER_SPAWN_INFO@@QAE@XZ

; 149  : 	CLocalPlayer * pPlayer = pNetowkManager->GetPlayerManager()->GetLocalPlayer();

	mov	ecx, DWORD PTR ?pNetowkManager@@3PAVCNetworkManager@@A ; pNetowkManager
	call	?GetPlayerManager@CNetworkManager@@QAEPAVCPlayerManager@@XZ ; CNetworkManager::GetPlayerManager
	mov	ecx, eax
	call	?GetLocalPlayer@CPlayerManager@@QAEPAVCLocalPlayer@@XZ ; CPlayerManager::GetLocalPlayer
	mov	DWORD PTR _pPlayer$[ebp], eax

; 150  : 	CSpawnSelection * pGameLogic = pNetowkManager->GetGameLogic();

	mov	ecx, DWORD PTR ?pNetowkManager@@3PAVCNetworkManager@@A ; pNetowkManager
	call	?GetGameLogic@CNetworkManager@@QAEPAVCSpawnSelection@@XZ ; CNetworkManager::GetGameLogic
	mov	DWORD PTR _pGameLogic$[ebp], eax

; 151  : 
; 152  : 	bitStream->Read(byteOutcome);

	lea	eax, DWORD PTR _byteOutcome$[ebp]
	push	eax
	mov	ecx, DWORD PTR _bitStream$[ebp]
	call	??$Read@E@BitStream@RakNet@@QAE_NAAE@Z	; RakNet::BitStream::Read<unsigned char>

; 153  : 	if(byteOutcome) {

	movzx	eax, BYTE PTR _byteOutcome$[ebp]
	test	eax, eax
	je	SHORT $LN2@RequestCla

; 154  : 		bitStream->Read(iRequestedClass);

	lea	eax, DWORD PTR _iRequestedClass$[ebp]
	push	eax
	mov	ecx, DWORD PTR _bitStream$[ebp]
	call	??$Read@H@BitStream@RakNet@@QAE_NAAH@Z	; RakNet::BitStream::Read<int>

; 155  : 		bitStream->Read((char *)&SpawnInfo, sizeof(PLAYER_SPAWN_INFO));

	push	48					; 00000030H
	lea	eax, DWORD PTR _SpawnInfo$[ebp]
	push	eax
	mov	ecx, DWORD PTR _bitStream$[ebp]
	call	?Read@BitStream@RakNet@@QAE_NPADI@Z	; RakNet::BitStream::Read

; 156  : 
; 157  : 		pGameLogic->SetSelectedClass(iRequestedClass);

	mov	eax, DWORD PTR _iRequestedClass$[ebp]
	push	eax
	mov	ecx, DWORD PTR _pGameLogic$[ebp]
	call	?SetSelectedClass@CSpawnSelection@@QAEXH@Z ; CSpawnSelection::SetSelectedClass

; 158  : 		pPlayer->SetSpawnInfo(&SpawnInfo);

	lea	eax, DWORD PTR _SpawnInfo$[ebp]
	push	eax
	mov	ecx, DWORD PTR _pPlayer$[ebp]
	call	?SetSpawnInfo@CLocalPlayer@@QAEXPAU_PLAYER_SPAWN_INFO@@@Z ; CLocalPlayer::SetSpawnInfo

; 159  : 		pGameLogic->HandleClassSelectionOutcome(&SpawnInfo, byteOutcome);

	movzx	eax, BYTE PTR _byteOutcome$[ebp]
	push	eax
	lea	ecx, DWORD PTR _SpawnInfo$[ebp]
	push	ecx
	mov	ecx, DWORD PTR _pGameLogic$[ebp]
	call	?HandleClassSelectionOutcome@CSpawnSelection@@QAEXPAU_PLAYER_SPAWN_INFO@@H@Z ; CSpawnSelection::HandleClassSelectionOutcome
$LN2@RequestCla:

; 160  : 	}
; 161  : }

	push	edx
	mov	ecx, ebp
	push	eax
	lea	edx, DWORD PTR $LN8@RequestCla
	call	@_RTC_CheckStackVars@8
	pop	eax
	pop	edx
	pop	edi
	pop	esi
	pop	ebx
	add	esp, 296				; 00000128H
	cmp	ebp, esp
	call	__RTC_CheckEsp
	mov	esp, ebp
	pop	ebp
	ret	0
	npad	3
$LN8@RequestCla:
	DD	3
	DD	$LN7@RequestCla
$LN7@RequestCla:
	DD	-5					; fffffffbH
	DD	1
	DD	$LN4@RequestCla
	DD	-20					; ffffffecH
	DD	4
	DD	$LN5@RequestCla
	DD	-76					; ffffffb4H
	DD	48					; 00000030H
	DD	$LN6@RequestCla
$LN6@RequestCla:
	DB	83					; 00000053H
	DB	112					; 00000070H
	DB	97					; 00000061H
	DB	119					; 00000077H
	DB	110					; 0000006eH
	DB	73					; 00000049H
	DB	110					; 0000006eH
	DB	102					; 00000066H
	DB	111					; 0000006fH
	DB	0
$LN5@RequestCla:
	DB	105					; 00000069H
	DB	82					; 00000052H
	DB	101					; 00000065H
	DB	113					; 00000071H
	DB	117					; 00000075H
	DB	101					; 00000065H
	DB	115					; 00000073H
	DB	116					; 00000074H
	DB	101					; 00000065H
	DB	100					; 00000064H
	DB	67					; 00000043H
	DB	108					; 0000006cH
	DB	97					; 00000061H
	DB	115					; 00000073H
	DB	115					; 00000073H
	DB	0
$LN4@RequestCla:
	DB	98					; 00000062H
	DB	121					; 00000079H
	DB	116					; 00000074H
	DB	101					; 00000065H
	DB	79					; 0000004fH
	DB	117					; 00000075H
	DB	116					; 00000074H
	DB	99					; 00000063H
	DB	111					; 0000006fH
	DB	109					; 0000006dH
	DB	101					; 00000065H
	DB	0
?RequestClass@@YAXPAVBitStream@RakNet@@PAUPacket@2@@Z ENDP ; RequestClass
_TEXT	ENDS
PUBLIC	??0Vector3@@QAE@XZ				; Vector3::Vector3
; Function compile flags: /Odtp /RTCsu /ZI
;	COMDAT ??0_PLAYER_SPAWN_INFO@@QAE@XZ
_TEXT	SEGMENT
_this$ = -8						; size = 4
??0_PLAYER_SPAWN_INFO@@QAE@XZ PROC			; _PLAYER_SPAWN_INFO::_PLAYER_SPAWN_INFO, COMDAT
; _this$ = ecx
	push	ebp
	mov	ebp, esp
	sub	esp, 204				; 000000ccH
	push	ebx
	push	esi
	push	edi
	push	ecx
	lea	edi, DWORD PTR [ebp-204]
	mov	ecx, 51					; 00000033H
	mov	eax, -858993460				; ccccccccH
	rep stosd
	pop	ecx
	mov	DWORD PTR _this$[ebp], ecx
	mov	ecx, DWORD PTR _this$[ebp]
	add	ecx, 4
	call	??0Vector3@@QAE@XZ			; Vector3::Vector3
	mov	eax, DWORD PTR _this$[ebp]
	pop	edi
	pop	esi
	pop	ebx
	add	esp, 204				; 000000ccH
	cmp	ebp, esp
	call	__RTC_CheckEsp
	mov	esp, ebp
	pop	ebp
	ret	0
??0_PLAYER_SPAWN_INFO@@QAE@XZ ENDP			; _PLAYER_SPAWN_INFO::_PLAYER_SPAWN_INFO
_TEXT	ENDS
PUBLIC	__real@00000000
PUBLIC	?Spawn@@YAXPAVBitStream@RakNet@@PAUPacket@2@@Z	; Spawn
EXTRN	?SpawnPlayer@CRemotePlayer@@QAEHEEPAUVector3@@MHHHHHH@Z:PROC ; CRemotePlayer::SpawnPlayer
EXTRN	__fltused:DWORD
;	COMDAT __real@00000000
CONST	SEGMENT
__real@00000000 DD 000000000r			; 0
; Function compile flags: /Odtp /RTCsu /ZI
CONST	ENDS
;	COMDAT ?Spawn@@YAXPAVBitStream@RakNet@@PAUPacket@2@@Z
_TEXT	SEGMENT
_iSpawnWeaponsAmmo3$ = -160				; size = 4
_iSpawnWeaponsAmmo2$ = -148				; size = 4
_iSpawnWeaponsAmmo1$ = -136				; size = 4
_iSpawnWeapons3$ = -124					; size = 4
_iSpawnWeapons2$ = -112					; size = 4
_iSpawnWeapons1$ = -100					; size = 4
_byteOnGround$ = -85					; size = 1
_fRotation$ = -76					; size = 4
_vecPos$ = -64						; size = 12
_byteSkin$ = -41					; size = 1
_byteTeam$ = -29					; size = 1
_playerID$ = -17					; size = 1
_pRemotePlayer$ = -8					; size = 4
_bitStream$ = 8						; size = 4
_packet$ = 12						; size = 4
?Spawn@@YAXPAVBitStream@RakNet@@PAUPacket@2@@Z PROC	; Spawn, COMDAT

; 167  : {

	push	ebp
	mov	ebp, esp
	sub	esp, 356				; 00000164H
	push	ebx
	push	esi
	push	edi
	lea	edi, DWORD PTR [ebp-356]
	mov	ecx, 89					; 00000059H
	mov	eax, -858993460				; ccccccccH
	rep stosd

; 168  : 	CRemotePlayer *pRemotePlayer;
; 169  : 
; 170  : 	EntityId playerID=0;

	mov	BYTE PTR _playerID$[ebp], 0

; 171  : 	BYTE byteTeam=0;

	mov	BYTE PTR _byteTeam$[ebp], 0

; 172  : 	BYTE byteSkin=0;

	mov	BYTE PTR _byteSkin$[ebp], 0

; 173  : 	Vector3 vecPos;

	lea	ecx, DWORD PTR _vecPos$[ebp]
	call	??0Vector3@@QAE@XZ			; Vector3::Vector3

; 174  : 	float fRotation=0;

	fldz
	fstp	DWORD PTR _fRotation$[ebp]

; 175  : 	BYTE byteOnGround=0;

	mov	BYTE PTR _byteOnGround$[ebp], 0

; 176  : 	int iSpawnWeapons1,iSpawnWeapons2,iSpawnWeapons3;
; 177  : 	int iSpawnWeaponsAmmo1,iSpawnWeaponsAmmo2,iSpawnWeaponsAmmo3;
; 178  : 
; 179  : 	bitStream->Read(playerID);

	lea	eax, DWORD PTR _playerID$[ebp]
	push	eax
	mov	ecx, DWORD PTR _bitStream$[ebp]
	call	??$Read@E@BitStream@RakNet@@QAE_NAAE@Z	; RakNet::BitStream::Read<unsigned char>

; 180  : 	bitStream->Read(byteTeam);

	lea	eax, DWORD PTR _byteTeam$[ebp]
	push	eax
	mov	ecx, DWORD PTR _bitStream$[ebp]
	call	??$Read@E@BitStream@RakNet@@QAE_NAAE@Z	; RakNet::BitStream::Read<unsigned char>

; 181  : 	bitStream->Read(byteSkin);

	lea	eax, DWORD PTR _byteSkin$[ebp]
	push	eax
	mov	ecx, DWORD PTR _bitStream$[ebp]
	call	??$Read@E@BitStream@RakNet@@QAE_NAAE@Z	; RakNet::BitStream::Read<unsigned char>

; 182  : 	bitStream->Read(vecPos.X);

	lea	eax, DWORD PTR _vecPos$[ebp]
	push	eax
	mov	ecx, DWORD PTR _bitStream$[ebp]
	call	??$Read@M@BitStream@RakNet@@QAE_NAAM@Z	; RakNet::BitStream::Read<float>

; 183  : 	bitStream->Read(vecPos.Y);

	lea	eax, DWORD PTR _vecPos$[ebp+4]
	push	eax
	mov	ecx, DWORD PTR _bitStream$[ebp]
	call	??$Read@M@BitStream@RakNet@@QAE_NAAM@Z	; RakNet::BitStream::Read<float>

; 184  : 	bitStream->Read(vecPos.Z);

	lea	eax, DWORD PTR _vecPos$[ebp+8]
	push	eax
	mov	ecx, DWORD PTR _bitStream$[ebp]
	call	??$Read@M@BitStream@RakNet@@QAE_NAAM@Z	; RakNet::BitStream::Read<float>

; 185  : 	bitStream->Read(fRotation);

	lea	eax, DWORD PTR _fRotation$[ebp]
	push	eax
	mov	ecx, DWORD PTR _bitStream$[ebp]
	call	??$Read@M@BitStream@RakNet@@QAE_NAAM@Z	; RakNet::BitStream::Read<float>

; 186  : 	bitStream->Read(iSpawnWeapons1);

	lea	eax, DWORD PTR _iSpawnWeapons1$[ebp]
	push	eax
	mov	ecx, DWORD PTR _bitStream$[ebp]
	call	??$Read@H@BitStream@RakNet@@QAE_NAAH@Z	; RakNet::BitStream::Read<int>

; 187  : 	bitStream->Read(iSpawnWeaponsAmmo1);

	lea	eax, DWORD PTR _iSpawnWeaponsAmmo1$[ebp]
	push	eax
	mov	ecx, DWORD PTR _bitStream$[ebp]
	call	??$Read@H@BitStream@RakNet@@QAE_NAAH@Z	; RakNet::BitStream::Read<int>

; 188  : 	bitStream->Read(iSpawnWeapons2);

	lea	eax, DWORD PTR _iSpawnWeapons2$[ebp]
	push	eax
	mov	ecx, DWORD PTR _bitStream$[ebp]
	call	??$Read@H@BitStream@RakNet@@QAE_NAAH@Z	; RakNet::BitStream::Read<int>

; 189  : 	bitStream->Read(iSpawnWeaponsAmmo2);

	lea	eax, DWORD PTR _iSpawnWeaponsAmmo2$[ebp]
	push	eax
	mov	ecx, DWORD PTR _bitStream$[ebp]
	call	??$Read@H@BitStream@RakNet@@QAE_NAAH@Z	; RakNet::BitStream::Read<int>

; 190  : 	bitStream->Read(iSpawnWeapons3);

	lea	eax, DWORD PTR _iSpawnWeapons3$[ebp]
	push	eax
	mov	ecx, DWORD PTR _bitStream$[ebp]
	call	??$Read@H@BitStream@RakNet@@QAE_NAAH@Z	; RakNet::BitStream::Read<int>

; 191  : 	bitStream->Read(iSpawnWeaponsAmmo3);

	lea	eax, DWORD PTR _iSpawnWeaponsAmmo3$[ebp]
	push	eax
	mov	ecx, DWORD PTR _bitStream$[ebp]
	call	??$Read@H@BitStream@RakNet@@QAE_NAAH@Z	; RakNet::BitStream::Read<int>

; 192  : 
; 193  : 	pRemotePlayer = pNetowkManager->GetPlayerManager()->GetAt(playerID);

	movzx	eax, BYTE PTR _playerID$[ebp]
	push	eax
	mov	ecx, DWORD PTR ?pNetowkManager@@3PAVCNetworkManager@@A ; pNetowkManager
	call	?GetPlayerManager@CNetworkManager@@QAEPAVCPlayerManager@@XZ ; CNetworkManager::GetPlayerManager
	mov	ecx, eax
	call	?GetAt@CPlayerManager@@QAEPAVCRemotePlayer@@E@Z ; CPlayerManager::GetAt
	mov	DWORD PTR _pRemotePlayer$[ebp], eax

; 194  : 
; 195  : 	if(pRemotePlayer) {

	cmp	DWORD PTR _pRemotePlayer$[ebp], 0
	je	SHORT $LN1@Spawn

; 196  : 		pRemotePlayer->SpawnPlayer(byteTeam,byteSkin,&vecPos,fRotation,
; 197  : 			iSpawnWeapons1,iSpawnWeaponsAmmo1,
; 198  : 			iSpawnWeapons2,iSpawnWeaponsAmmo2,
; 199  : 			iSpawnWeapons3,iSpawnWeaponsAmmo3);

	mov	eax, DWORD PTR _iSpawnWeaponsAmmo3$[ebp]
	push	eax
	mov	ecx, DWORD PTR _iSpawnWeapons3$[ebp]
	push	ecx
	mov	edx, DWORD PTR _iSpawnWeaponsAmmo2$[ebp]
	push	edx
	mov	eax, DWORD PTR _iSpawnWeapons2$[ebp]
	push	eax
	mov	ecx, DWORD PTR _iSpawnWeaponsAmmo1$[ebp]
	push	ecx
	mov	edx, DWORD PTR _iSpawnWeapons1$[ebp]
	push	edx
	push	ecx
	fld	DWORD PTR _fRotation$[ebp]
	fstp	DWORD PTR [esp]
	lea	eax, DWORD PTR _vecPos$[ebp]
	push	eax
	movzx	ecx, BYTE PTR _byteSkin$[ebp]
	push	ecx
	movzx	edx, BYTE PTR _byteTeam$[ebp]
	push	edx
	mov	ecx, DWORD PTR _pRemotePlayer$[ebp]
	call	?SpawnPlayer@CRemotePlayer@@QAEHEEPAUVector3@@MHHHHHH@Z ; CRemotePlayer::SpawnPlayer
$LN1@Spawn:

; 200  : 	}		
; 201  : }

	push	edx
	mov	ecx, ebp
	push	eax
	lea	edx, DWORD PTR $LN16@Spawn
	call	@_RTC_CheckStackVars@8
	pop	eax
	pop	edx
	pop	edi
	pop	esi
	pop	ebx
	add	esp, 356				; 00000164H
	cmp	ebp, esp
	call	__RTC_CheckEsp
	mov	esp, ebp
	pop	ebp
	ret	0
	npad	1
$LN16@Spawn:
	DD	11					; 0000000bH
	DD	$LN15@Spawn
$LN15@Spawn:
	DD	-17					; ffffffefH
	DD	1
	DD	$LN4@Spawn
	DD	-29					; ffffffe3H
	DD	1
	DD	$LN5@Spawn
	DD	-41					; ffffffd7H
	DD	1
	DD	$LN6@Spawn
	DD	-64					; ffffffc0H
	DD	12					; 0000000cH
	DD	$LN7@Spawn
	DD	-76					; ffffffb4H
	DD	4
	DD	$LN8@Spawn
	DD	-100					; ffffff9cH
	DD	4
	DD	$LN9@Spawn
	DD	-112					; ffffff90H
	DD	4
	DD	$LN10@Spawn
	DD	-124					; ffffff84H
	DD	4
	DD	$LN11@Spawn
	DD	-136					; ffffff78H
	DD	4
	DD	$LN12@Spawn
	DD	-148					; ffffff6cH
	DD	4
	DD	$LN13@Spawn
	DD	-160					; ffffff60H
	DD	4
	DD	$LN14@Spawn
$LN14@Spawn:
	DB	105					; 00000069H
	DB	83					; 00000053H
	DB	112					; 00000070H
	DB	97					; 00000061H
	DB	119					; 00000077H
	DB	110					; 0000006eH
	DB	87					; 00000057H
	DB	101					; 00000065H
	DB	97					; 00000061H
	DB	112					; 00000070H
	DB	111					; 0000006fH
	DB	110					; 0000006eH
	DB	115					; 00000073H
	DB	65					; 00000041H
	DB	109					; 0000006dH
	DB	109					; 0000006dH
	DB	111					; 0000006fH
	DB	51					; 00000033H
	DB	0
$LN13@Spawn:
	DB	105					; 00000069H
	DB	83					; 00000053H
	DB	112					; 00000070H
	DB	97					; 00000061H
	DB	119					; 00000077H
	DB	110					; 0000006eH
	DB	87					; 00000057H
	DB	101					; 00000065H
	DB	97					; 00000061H
	DB	112					; 00000070H
	DB	111					; 0000006fH
	DB	110					; 0000006eH
	DB	115					; 00000073H
	DB	65					; 00000041H
	DB	109					; 0000006dH
	DB	109					; 0000006dH
	DB	111					; 0000006fH
	DB	50					; 00000032H
	DB	0
$LN12@Spawn:
	DB	105					; 00000069H
	DB	83					; 00000053H
	DB	112					; 00000070H
	DB	97					; 00000061H
	DB	119					; 00000077H
	DB	110					; 0000006eH
	DB	87					; 00000057H
	DB	101					; 00000065H
	DB	97					; 00000061H
	DB	112					; 00000070H
	DB	111					; 0000006fH
	DB	110					; 0000006eH
	DB	115					; 00000073H
	DB	65					; 00000041H
	DB	109					; 0000006dH
	DB	109					; 0000006dH
	DB	111					; 0000006fH
	DB	49					; 00000031H
	DB	0
$LN11@Spawn:
	DB	105					; 00000069H
	DB	83					; 00000053H
	DB	112					; 00000070H
	DB	97					; 00000061H
	DB	119					; 00000077H
	DB	110					; 0000006eH
	DB	87					; 00000057H
	DB	101					; 00000065H
	DB	97					; 00000061H
	DB	112					; 00000070H
	DB	111					; 0000006fH
	DB	110					; 0000006eH
	DB	115					; 00000073H
	DB	51					; 00000033H
	DB	0
$LN10@Spawn:
	DB	105					; 00000069H
	DB	83					; 00000053H
	DB	112					; 00000070H
	DB	97					; 00000061H
	DB	119					; 00000077H
	DB	110					; 0000006eH
	DB	87					; 00000057H
	DB	101					; 00000065H
	DB	97					; 00000061H
	DB	112					; 00000070H
	DB	111					; 0000006fH
	DB	110					; 0000006eH
	DB	115					; 00000073H
	DB	50					; 00000032H
	DB	0
$LN9@Spawn:
	DB	105					; 00000069H
	DB	83					; 00000053H
	DB	112					; 00000070H
	DB	97					; 00000061H
	DB	119					; 00000077H
	DB	110					; 0000006eH
	DB	87					; 00000057H
	DB	101					; 00000065H
	DB	97					; 00000061H
	DB	112					; 00000070H
	DB	111					; 0000006fH
	DB	110					; 0000006eH
	DB	115					; 00000073H
	DB	49					; 00000031H
	DB	0
$LN8@Spawn:
	DB	102					; 00000066H
	DB	82					; 00000052H
	DB	111					; 0000006fH
	DB	116					; 00000074H
	DB	97					; 00000061H
	DB	116					; 00000074H
	DB	105					; 00000069H
	DB	111					; 0000006fH
	DB	110					; 0000006eH
	DB	0
$LN7@Spawn:
	DB	118					; 00000076H
	DB	101					; 00000065H
	DB	99					; 00000063H
	DB	80					; 00000050H
	DB	111					; 0000006fH
	DB	115					; 00000073H
	DB	0
$LN6@Spawn:
	DB	98					; 00000062H
	DB	121					; 00000079H
	DB	116					; 00000074H
	DB	101					; 00000065H
	DB	83					; 00000053H
	DB	107					; 0000006bH
	DB	105					; 00000069H
	DB	110					; 0000006eH
	DB	0
$LN5@Spawn:
	DB	98					; 00000062H
	DB	121					; 00000079H
	DB	116					; 00000074H
	DB	101					; 00000065H
	DB	84					; 00000054H
	DB	101					; 00000065H
	DB	97					; 00000061H
	DB	109					; 0000006dH
	DB	0
$LN4@Spawn:
	DB	112					; 00000070H
	DB	108					; 0000006cH
	DB	97					; 00000061H
	DB	121					; 00000079H
	DB	101					; 00000065H
	DB	114					; 00000072H
	DB	73					; 00000049H
	DB	68					; 00000044H
	DB	0
?Spawn@@YAXPAVBitStream@RakNet@@PAUPacket@2@@Z ENDP	; Spawn
_TEXT	ENDS
PUBLIC	?Death@@YAXPAVBitStream@RakNet@@PAUPacket@2@@Z	; Death
EXTRN	?HandleDeath@CRemotePlayer@@QAEXEEE@Z:PROC	; CRemotePlayer::HandleDeath
; Function compile flags: /Odtp /RTCsu /ZI
;	COMDAT ?Death@@YAXPAVBitStream@RakNet@@PAUPacket@2@@Z
_TEXT	SEGMENT
_pRemotePlayer$ = -56					; size = 4
_byteScoringModifier$ = -41				; size = 1
_byteWhoKilled$ = -29					; size = 1
_byteReason$ = -17					; size = 1
_playerID$ = -5						; size = 1
_bitStream$ = 8						; size = 4
_packet$ = 12						; size = 4
?Death@@YAXPAVBitStream@RakNet@@PAUPacket@2@@Z PROC	; Death, COMDAT

; 207  : {

	push	ebp
	mov	ebp, esp
	sub	esp, 252				; 000000fcH
	push	ebx
	push	esi
	push	edi
	lea	edi, DWORD PTR [ebp-252]
	mov	ecx, 63					; 0000003fH
	mov	eax, -858993460				; ccccccccH
	rep stosd

; 208  : 	EntityId playerID=0;

	mov	BYTE PTR _playerID$[ebp], 0

; 209  : 	BYTE byteReason;
; 210  : 	BYTE byteWhoKilled;
; 211  : 	BYTE byteScoringModifier;
; 212  : 
; 213  : 	bitStream->Read(playerID);

	lea	eax, DWORD PTR _playerID$[ebp]
	push	eax
	mov	ecx, DWORD PTR _bitStream$[ebp]
	call	??$Read@E@BitStream@RakNet@@QAE_NAAE@Z	; RakNet::BitStream::Read<unsigned char>

; 214  : 	bitStream->Read(byteReason);

	lea	eax, DWORD PTR _byteReason$[ebp]
	push	eax
	mov	ecx, DWORD PTR _bitStream$[ebp]
	call	??$Read@E@BitStream@RakNet@@QAE_NAAE@Z	; RakNet::BitStream::Read<unsigned char>

; 215  : 	bitStream->Read(byteWhoKilled);

	lea	eax, DWORD PTR _byteWhoKilled$[ebp]
	push	eax
	mov	ecx, DWORD PTR _bitStream$[ebp]
	call	??$Read@E@BitStream@RakNet@@QAE_NAAE@Z	; RakNet::BitStream::Read<unsigned char>

; 216  : 	bitStream->Read(byteScoringModifier);

	lea	eax, DWORD PTR _byteScoringModifier$[ebp]
	push	eax
	mov	ecx, DWORD PTR _bitStream$[ebp]
	call	??$Read@E@BitStream@RakNet@@QAE_NAAE@Z	; RakNet::BitStream::Read<unsigned char>

; 217  : 
; 218  : 	CRemotePlayer *pRemotePlayer = pNetowkManager->GetPlayerManager()->GetAt(playerID);

	movzx	eax, BYTE PTR _playerID$[ebp]
	push	eax
	mov	ecx, DWORD PTR ?pNetowkManager@@3PAVCNetworkManager@@A ; pNetowkManager
	call	?GetPlayerManager@CNetworkManager@@QAEPAVCPlayerManager@@XZ ; CNetworkManager::GetPlayerManager
	mov	ecx, eax
	call	?GetAt@CPlayerManager@@QAEPAVCRemotePlayer@@E@Z ; CPlayerManager::GetAt
	mov	DWORD PTR _pRemotePlayer$[ebp], eax

; 219  : 	if(pRemotePlayer) {

	cmp	DWORD PTR _pRemotePlayer$[ebp], 0
	je	SHORT $LN2@Death

; 220  : 		pRemotePlayer->HandleDeath(byteReason,byteWhoKilled,byteScoringModifier);

	movzx	eax, BYTE PTR _byteScoringModifier$[ebp]
	push	eax
	movzx	ecx, BYTE PTR _byteWhoKilled$[ebp]
	push	ecx
	movzx	edx, BYTE PTR _byteReason$[ebp]
	push	edx
	mov	ecx, DWORD PTR _pRemotePlayer$[ebp]
	call	?HandleDeath@CRemotePlayer@@QAEXEEE@Z	; CRemotePlayer::HandleDeath
$LN2@Death:

; 221  : 	}
; 222  : }

	push	edx
	mov	ecx, ebp
	push	eax
	lea	edx, DWORD PTR $LN9@Death
	call	@_RTC_CheckStackVars@8
	pop	eax
	pop	edx
	pop	edi
	pop	esi
	pop	ebx
	add	esp, 252				; 000000fcH
	cmp	ebp, esp
	call	__RTC_CheckEsp
	mov	esp, ebp
	pop	ebp
	ret	0
	npad	2
$LN9@Death:
	DD	4
	DD	$LN8@Death
$LN8@Death:
	DD	-5					; fffffffbH
	DD	1
	DD	$LN4@Death
	DD	-17					; ffffffefH
	DD	1
	DD	$LN5@Death
	DD	-29					; ffffffe3H
	DD	1
	DD	$LN6@Death
	DD	-41					; ffffffd7H
	DD	1
	DD	$LN7@Death
$LN7@Death:
	DB	98					; 00000062H
	DB	121					; 00000079H
	DB	116					; 00000074H
	DB	101					; 00000065H
	DB	83					; 00000053H
	DB	99					; 00000063H
	DB	111					; 0000006fH
	DB	114					; 00000072H
	DB	105					; 00000069H
	DB	110					; 0000006eH
	DB	103					; 00000067H
	DB	77					; 0000004dH
	DB	111					; 0000006fH
	DB	100					; 00000064H
	DB	105					; 00000069H
	DB	102					; 00000066H
	DB	105					; 00000069H
	DB	101					; 00000065H
	DB	114					; 00000072H
	DB	0
$LN6@Death:
	DB	98					; 00000062H
	DB	121					; 00000079H
	DB	116					; 00000074H
	DB	101					; 00000065H
	DB	87					; 00000057H
	DB	104					; 00000068H
	DB	111					; 0000006fH
	DB	75					; 0000004bH
	DB	105					; 00000069H
	DB	108					; 0000006cH
	DB	108					; 0000006cH
	DB	101					; 00000065H
	DB	100					; 00000064H
	DB	0
$LN5@Death:
	DB	98					; 00000062H
	DB	121					; 00000079H
	DB	116					; 00000074H
	DB	101					; 00000065H
	DB	82					; 00000052H
	DB	101					; 00000065H
	DB	97					; 00000061H
	DB	115					; 00000073H
	DB	111					; 0000006fH
	DB	110					; 0000006eH
	DB	0
$LN4@Death:
	DB	112					; 00000070H
	DB	108					; 0000006cH
	DB	97					; 00000061H
	DB	121					; 00000079H
	DB	101					; 00000065H
	DB	114					; 00000072H
	DB	73					; 00000049H
	DB	68					; 00000044H
	DB	0
?Death@@YAXPAVBitStream@RakNet@@PAUPacket@2@@Z ENDP	; Death
_TEXT	ENDS
PUBLIC	?GetPlayerPed@CRemotePlayer@@QAEPAVCPlayerPed@@XZ ; CRemotePlayer::GetPlayerPed
PUBLIC	?GetVehicleManager@CNetworkManager@@QAEPAVCVehicleManager@@XZ ; CNetworkManager::GetVehicleManager
PUBLIC	?EnterVehicle@@YAXPAVBitStream@RakNet@@PAUPacket@2@@Z ; EnterVehicle
EXTRN	?EnterVehicleAsPassenger@CPlayerPed@@QAEXH@Z:PROC ; CPlayerPed::EnterVehicleAsPassenger
EXTRN	?EnterVehicleAsDriver@CPlayerPed@@QAEXH@Z:PROC	; CPlayerPed::EnterVehicleAsDriver
EXTRN	?FindGtaIDFromID@CVehicleManager@@QAEHE@Z:PROC	; CVehicleManager::FindGtaIDFromID
; Function compile flags: /Odtp /RTCsu /ZI
;	COMDAT ?EnterVehicle@@YAXPAVBitStream@RakNet@@PAUPacket@2@@Z
_TEXT	SEGMENT
_pVehicleManager$ = -56					; size = 4
_pRemotePlayer$ = -44					; size = 4
_bytePassenger$ = -29					; size = 1
_vehicleID$ = -17					; size = 1
_playerID$ = -5						; size = 1
_bitStream$ = 8						; size = 4
_packet$ = 12						; size = 4
?EnterVehicle@@YAXPAVBitStream@RakNet@@PAUPacket@2@@Z PROC ; EnterVehicle, COMDAT

; 228  : {

	push	ebp
	mov	ebp, esp
	sub	esp, 252				; 000000fcH
	push	ebx
	push	esi
	push	edi
	lea	edi, DWORD PTR [ebp-252]
	mov	ecx, 63					; 0000003fH
	mov	eax, -858993460				; ccccccccH
	rep stosd

; 229  : 	EntityId playerID=0;

	mov	BYTE PTR _playerID$[ebp], 0

; 230  : 	EntityId vehicleID=0;

	mov	BYTE PTR _vehicleID$[ebp], 0

; 231  : 	BYTE bytePassenger=0;

	mov	BYTE PTR _bytePassenger$[ebp], 0

; 232  : 
; 233  : 	bitStream->Read(playerID);

	lea	eax, DWORD PTR _playerID$[ebp]
	push	eax
	mov	ecx, DWORD PTR _bitStream$[ebp]
	call	??$Read@E@BitStream@RakNet@@QAE_NAAE@Z	; RakNet::BitStream::Read<unsigned char>

; 234  : 	bitStream->Read(vehicleID);

	lea	eax, DWORD PTR _vehicleID$[ebp]
	push	eax
	mov	ecx, DWORD PTR _bitStream$[ebp]
	call	??$Read@E@BitStream@RakNet@@QAE_NAAE@Z	; RakNet::BitStream::Read<unsigned char>

; 235  : 	bitStream->Read(bytePassenger);

	lea	eax, DWORD PTR _bytePassenger$[ebp]
	push	eax
	mov	ecx, DWORD PTR _bitStream$[ebp]
	call	??$Read@E@BitStream@RakNet@@QAE_NAAE@Z	; RakNet::BitStream::Read<unsigned char>

; 236  : 
; 237  : 	CRemotePlayer *pRemotePlayer = pNetowkManager->GetPlayerManager()->GetAt(playerID);

	movzx	eax, BYTE PTR _playerID$[ebp]
	push	eax
	mov	ecx, DWORD PTR ?pNetowkManager@@3PAVCNetworkManager@@A ; pNetowkManager
	call	?GetPlayerManager@CNetworkManager@@QAEPAVCPlayerManager@@XZ ; CNetworkManager::GetPlayerManager
	mov	ecx, eax
	call	?GetAt@CPlayerManager@@QAEPAVCRemotePlayer@@E@Z ; CPlayerManager::GetAt
	mov	DWORD PTR _pRemotePlayer$[ebp], eax

; 238  : 	CVehicleManager *pVehicleManager = pNetowkManager->GetVehicleManager();

	mov	ecx, DWORD PTR ?pNetowkManager@@3PAVCNetworkManager@@A ; pNetowkManager
	call	?GetVehicleManager@CNetworkManager@@QAEPAVCVehicleManager@@XZ ; CNetworkManager::GetVehicleManager
	mov	DWORD PTR _pVehicleManager$[ebp], eax

; 239  : 
; 240  : 	if(pRemotePlayer) {

	cmp	DWORD PTR _pRemotePlayer$[ebp], 0
	je	SHORT $LN4@EnterVehic

; 241  : 		if(!bytePassenger) {

	movzx	eax, BYTE PTR _bytePassenger$[ebp]
	test	eax, eax
	jne	SHORT $LN2@EnterVehic

; 242  : 			pRemotePlayer->GetPlayerPed()->EnterVehicleAsDriver(pVehicleManager->FindGtaIDFromID(vehicleID));

	movzx	eax, BYTE PTR _vehicleID$[ebp]
	push	eax
	mov	ecx, DWORD PTR _pVehicleManager$[ebp]
	call	?FindGtaIDFromID@CVehicleManager@@QAEHE@Z ; CVehicleManager::FindGtaIDFromID
	push	eax
	mov	ecx, DWORD PTR _pRemotePlayer$[ebp]
	call	?GetPlayerPed@CRemotePlayer@@QAEPAVCPlayerPed@@XZ ; CRemotePlayer::GetPlayerPed
	mov	ecx, eax
	call	?EnterVehicleAsDriver@CPlayerPed@@QAEXH@Z ; CPlayerPed::EnterVehicleAsDriver

; 243  : 		} else {

	jmp	SHORT $LN4@EnterVehic
$LN2@EnterVehic:

; 244  : 			pRemotePlayer->GetPlayerPed()->EnterVehicleAsPassenger(pVehicleManager->FindGtaIDFromID(vehicleID));

	movzx	eax, BYTE PTR _vehicleID$[ebp]
	push	eax
	mov	ecx, DWORD PTR _pVehicleManager$[ebp]
	call	?FindGtaIDFromID@CVehicleManager@@QAEHE@Z ; CVehicleManager::FindGtaIDFromID
	push	eax
	mov	ecx, DWORD PTR _pRemotePlayer$[ebp]
	call	?GetPlayerPed@CRemotePlayer@@QAEPAVCPlayerPed@@XZ ; CRemotePlayer::GetPlayerPed
	mov	ecx, eax
	call	?EnterVehicleAsPassenger@CPlayerPed@@QAEXH@Z ; CPlayerPed::EnterVehicleAsPassenger
$LN4@EnterVehic:

; 245  : 		}
; 246  : 	}
; 247  : }

	push	edx
	mov	ecx, ebp
	push	eax
	lea	edx, DWORD PTR $LN10@EnterVehic
	call	@_RTC_CheckStackVars@8
	pop	eax
	pop	edx
	pop	edi
	pop	esi
	pop	ebx
	add	esp, 252				; 000000fcH
	cmp	ebp, esp
	call	__RTC_CheckEsp
	mov	esp, ebp
	pop	ebp
	ret	0
	npad	3
$LN10@EnterVehic:
	DD	3
	DD	$LN9@EnterVehic
$LN9@EnterVehic:
	DD	-5					; fffffffbH
	DD	1
	DD	$LN6@EnterVehic
	DD	-17					; ffffffefH
	DD	1
	DD	$LN7@EnterVehic
	DD	-29					; ffffffe3H
	DD	1
	DD	$LN8@EnterVehic
$LN8@EnterVehic:
	DB	98					; 00000062H
	DB	121					; 00000079H
	DB	116					; 00000074H
	DB	101					; 00000065H
	DB	80					; 00000050H
	DB	97					; 00000061H
	DB	115					; 00000073H
	DB	115					; 00000073H
	DB	101					; 00000065H
	DB	110					; 0000006eH
	DB	103					; 00000067H
	DB	101					; 00000065H
	DB	114					; 00000072H
	DB	0
$LN7@EnterVehic:
	DB	118					; 00000076H
	DB	101					; 00000065H
	DB	104					; 00000068H
	DB	105					; 00000069H
	DB	99					; 00000063H
	DB	108					; 0000006cH
	DB	101					; 00000065H
	DB	73					; 00000049H
	DB	68					; 00000044H
	DB	0
$LN6@EnterVehic:
	DB	112					; 00000070H
	DB	108					; 0000006cH
	DB	97					; 00000061H
	DB	121					; 00000079H
	DB	101					; 00000065H
	DB	114					; 00000072H
	DB	73					; 00000049H
	DB	68					; 00000044H
	DB	0
?EnterVehicle@@YAXPAVBitStream@RakNet@@PAUPacket@2@@Z ENDP ; EnterVehicle
_TEXT	ENDS
PUBLIC	?ExitVehicle@@YAXPAVBitStream@RakNet@@PAUPacket@2@@Z ; ExitVehicle
EXTRN	?ExitCurrentVehicle@CPlayerPed@@QAEXXZ:PROC	; CPlayerPed::ExitCurrentVehicle
; Function compile flags: /Odtp /RTCsu /ZI
;	COMDAT ?ExitVehicle@@YAXPAVBitStream@RakNet@@PAUPacket@2@@Z
_TEXT	SEGMENT
_pVehicleManager$ = -44					; size = 4
_pRemotePlayer$ = -32					; size = 4
_vehicleID$ = -17					; size = 1
_playerID$ = -5						; size = 1
_bitStream$ = 8						; size = 4
_packet$ = 12						; size = 4
?ExitVehicle@@YAXPAVBitStream@RakNet@@PAUPacket@2@@Z PROC ; ExitVehicle, COMDAT

; 253  : {

	push	ebp
	mov	ebp, esp
	sub	esp, 240				; 000000f0H
	push	ebx
	push	esi
	push	edi
	lea	edi, DWORD PTR [ebp-240]
	mov	ecx, 60					; 0000003cH
	mov	eax, -858993460				; ccccccccH
	rep stosd

; 254  : 	EntityId playerID=0;

	mov	BYTE PTR _playerID$[ebp], 0

; 255  : 	EntityId vehicleID=0;

	mov	BYTE PTR _vehicleID$[ebp], 0

; 256  : 
; 257  : 	bitStream->Read(playerID);

	lea	eax, DWORD PTR _playerID$[ebp]
	push	eax
	mov	ecx, DWORD PTR _bitStream$[ebp]
	call	??$Read@E@BitStream@RakNet@@QAE_NAAE@Z	; RakNet::BitStream::Read<unsigned char>

; 258  : 	bitStream->Read(vehicleID);

	lea	eax, DWORD PTR _vehicleID$[ebp]
	push	eax
	mov	ecx, DWORD PTR _bitStream$[ebp]
	call	??$Read@E@BitStream@RakNet@@QAE_NAAE@Z	; RakNet::BitStream::Read<unsigned char>

; 259  : 
; 260  : 	CRemotePlayer *pRemotePlayer = pNetowkManager->GetPlayerManager()->GetAt(playerID);

	movzx	eax, BYTE PTR _playerID$[ebp]
	push	eax
	mov	ecx, DWORD PTR ?pNetowkManager@@3PAVCNetworkManager@@A ; pNetowkManager
	call	?GetPlayerManager@CNetworkManager@@QAEPAVCPlayerManager@@XZ ; CNetworkManager::GetPlayerManager
	mov	ecx, eax
	call	?GetAt@CPlayerManager@@QAEPAVCRemotePlayer@@E@Z ; CPlayerManager::GetAt
	mov	DWORD PTR _pRemotePlayer$[ebp], eax

; 261  : 	CVehicleManager *pVehicleManager = pNetowkManager->GetVehicleManager();

	mov	ecx, DWORD PTR ?pNetowkManager@@3PAVCNetworkManager@@A ; pNetowkManager
	call	?GetVehicleManager@CNetworkManager@@QAEPAVCVehicleManager@@XZ ; CNetworkManager::GetVehicleManager
	mov	DWORD PTR _pVehicleManager$[ebp], eax

; 262  : 
; 263  : 	if(pRemotePlayer) {

	cmp	DWORD PTR _pRemotePlayer$[ebp], 0
	je	SHORT $LN2@ExitVehicl

; 264  : 		pRemotePlayer->GetPlayerPed()->ExitCurrentVehicle();

	mov	ecx, DWORD PTR _pRemotePlayer$[ebp]
	call	?GetPlayerPed@CRemotePlayer@@QAEPAVCPlayerPed@@XZ ; CRemotePlayer::GetPlayerPed
	mov	ecx, eax
	call	?ExitCurrentVehicle@CPlayerPed@@QAEXXZ	; CPlayerPed::ExitCurrentVehicle
$LN2@ExitVehicl:

; 265  : 	}
; 266  : }

	push	edx
	mov	ecx, ebp
	push	eax
	lea	edx, DWORD PTR $LN7@ExitVehicl
	call	@_RTC_CheckStackVars@8
	pop	eax
	pop	edx
	pop	edi
	pop	esi
	pop	ebx
	add	esp, 240				; 000000f0H
	cmp	ebp, esp
	call	__RTC_CheckEsp
	mov	esp, ebp
	pop	ebp
	ret	0
$LN7@ExitVehicl:
	DD	2
	DD	$LN6@ExitVehicl
$LN6@ExitVehicl:
	DD	-5					; fffffffbH
	DD	1
	DD	$LN4@ExitVehicl
	DD	-17					; ffffffefH
	DD	1
	DD	$LN5@ExitVehicl
$LN5@ExitVehicl:
	DB	118					; 00000076H
	DB	101					; 00000065H
	DB	104					; 00000068H
	DB	105					; 00000069H
	DB	99					; 00000063H
	DB	108					; 0000006cH
	DB	101					; 00000065H
	DB	73					; 00000049H
	DB	68					; 00000044H
	DB	0
$LN4@ExitVehicl:
	DB	112					; 00000070H
	DB	108					; 0000006cH
	DB	97					; 00000061H
	DB	121					; 00000079H
	DB	101					; 00000065H
	DB	114					; 00000072H
	DB	73					; 00000049H
	DB	68					; 00000044H
	DB	0
?ExitVehicle@@YAXPAVBitStream@RakNet@@PAUPacket@2@@Z ENDP ; ExitVehicle
_TEXT	ENDS
PUBLIC	?VehicleSpawn@@YAXPAVBitStream@RakNet@@PAUPacket@2@@Z ; VehicleSpawn
EXTRN	?New@CVehicleManager@@QAEHEEPAUVector3@@MHH0M@Z:PROC ; CVehicleManager::New
; Function compile flags: /Odtp /RTCsu /ZI
;	COMDAT ?VehicleSpawn@@YAXPAVBitStream@RakNet@@PAUPacket@2@@Z
_TEXT	SEGMENT
_iColor2$ = -132					; size = 4
_iColor1$ = -120					; size = 4
_fHealth$ = -108					; size = 4
_fSpawnRotation$ = -96					; size = 4
_fRotation$ = -84					; size = 4
_vecSpawnPos$ = -72					; size = 12
_vecPos$ = -52						; size = 12
_byteVehicleType$ = -29					; size = 1
_vehicleID$ = -17					; size = 1
_pVehicleManager$ = -8					; size = 4
_bitStream$ = 8						; size = 4
_packet$ = 12						; size = 4
?VehicleSpawn@@YAXPAVBitStream@RakNet@@PAUPacket@2@@Z PROC ; VehicleSpawn, COMDAT

; 271  : {

	push	ebp
	mov	ebp, esp
	sub	esp, 328				; 00000148H
	push	ebx
	push	esi
	push	edi
	lea	edi, DWORD PTR [ebp-328]
	mov	ecx, 82					; 00000052H
	mov	eax, -858993460				; ccccccccH
	rep stosd

; 272  : 	CVehicleManager *pVehicleManager = pNetowkManager->GetVehicleManager();

	mov	ecx, DWORD PTR ?pNetowkManager@@3PAVCNetworkManager@@A ; pNetowkManager
	call	?GetVehicleManager@CNetworkManager@@QAEPAVCVehicleManager@@XZ ; CNetworkManager::GetVehicleManager
	mov	DWORD PTR _pVehicleManager$[ebp], eax

; 273  : 	EntityId vehicleID=0;

	mov	BYTE PTR _vehicleID$[ebp], 0

; 274  : 	BYTE byteVehicleType;
; 275  : 	Vector3 vecPos;

	lea	ecx, DWORD PTR _vecPos$[ebp]
	call	??0Vector3@@QAE@XZ			; Vector3::Vector3

; 276  : 	Vector3 vecSpawnPos;

	lea	ecx, DWORD PTR _vecSpawnPos$[ebp]
	call	??0Vector3@@QAE@XZ			; Vector3::Vector3

; 277  : 	float fRotation;
; 278  : 	float fSpawnRotation;
; 279  : 	float fHealth;
; 280  : 	int iColor1, iColor2;
; 281  : 
; 282  : 	bitStream->Read(vehicleID);

	lea	eax, DWORD PTR _vehicleID$[ebp]
	push	eax
	mov	ecx, DWORD PTR _bitStream$[ebp]
	call	??$Read@E@BitStream@RakNet@@QAE_NAAE@Z	; RakNet::BitStream::Read<unsigned char>

; 283  : 	bitStream->Read(byteVehicleType);

	lea	eax, DWORD PTR _byteVehicleType$[ebp]
	push	eax
	mov	ecx, DWORD PTR _bitStream$[ebp]
	call	??$Read@E@BitStream@RakNet@@QAE_NAAE@Z	; RakNet::BitStream::Read<unsigned char>

; 284  : 	bitStream->Read(vecPos.X);

	lea	eax, DWORD PTR _vecPos$[ebp]
	push	eax
	mov	ecx, DWORD PTR _bitStream$[ebp]
	call	??$Read@M@BitStream@RakNet@@QAE_NAAM@Z	; RakNet::BitStream::Read<float>

; 285  : 	bitStream->Read(vecPos.Y);

	lea	eax, DWORD PTR _vecPos$[ebp+4]
	push	eax
	mov	ecx, DWORD PTR _bitStream$[ebp]
	call	??$Read@M@BitStream@RakNet@@QAE_NAAM@Z	; RakNet::BitStream::Read<float>

; 286  : 	bitStream->Read(vecPos.Z);

	lea	eax, DWORD PTR _vecPos$[ebp+8]
	push	eax
	mov	ecx, DWORD PTR _bitStream$[ebp]
	call	??$Read@M@BitStream@RakNet@@QAE_NAAM@Z	; RakNet::BitStream::Read<float>

; 287  : 	bitStream->Read(fRotation);

	lea	eax, DWORD PTR _fRotation$[ebp]
	push	eax
	mov	ecx, DWORD PTR _bitStream$[ebp]
	call	??$Read@M@BitStream@RakNet@@QAE_NAAM@Z	; RakNet::BitStream::Read<float>

; 288  : 	bitStream->Read(iColor1);

	lea	eax, DWORD PTR _iColor1$[ebp]
	push	eax
	mov	ecx, DWORD PTR _bitStream$[ebp]
	call	??$Read@H@BitStream@RakNet@@QAE_NAAH@Z	; RakNet::BitStream::Read<int>

; 289  : 	bitStream->Read(iColor2);

	lea	eax, DWORD PTR _iColor2$[ebp]
	push	eax
	mov	ecx, DWORD PTR _bitStream$[ebp]
	call	??$Read@H@BitStream@RakNet@@QAE_NAAH@Z	; RakNet::BitStream::Read<int>

; 290  : 	bitStream->Read(fHealth);

	lea	eax, DWORD PTR _fHealth$[ebp]
	push	eax
	mov	ecx, DWORD PTR _bitStream$[ebp]
	call	??$Read@M@BitStream@RakNet@@QAE_NAAM@Z	; RakNet::BitStream::Read<float>

; 291  : 	bitStream->Read(vecSpawnPos.X);

	lea	eax, DWORD PTR _vecSpawnPos$[ebp]
	push	eax
	mov	ecx, DWORD PTR _bitStream$[ebp]
	call	??$Read@M@BitStream@RakNet@@QAE_NAAM@Z	; RakNet::BitStream::Read<float>

; 292  : 	bitStream->Read(vecSpawnPos.Y);

	lea	eax, DWORD PTR _vecSpawnPos$[ebp+4]
	push	eax
	mov	ecx, DWORD PTR _bitStream$[ebp]
	call	??$Read@M@BitStream@RakNet@@QAE_NAAM@Z	; RakNet::BitStream::Read<float>

; 293  : 	bitStream->Read(vecSpawnPos.Z);

	lea	eax, DWORD PTR _vecSpawnPos$[ebp+8]
	push	eax
	mov	ecx, DWORD PTR _bitStream$[ebp]
	call	??$Read@M@BitStream@RakNet@@QAE_NAAM@Z	; RakNet::BitStream::Read<float>

; 294  : 	bitStream->Read(fSpawnRotation);

	lea	eax, DWORD PTR _fSpawnRotation$[ebp]
	push	eax
	mov	ecx, DWORD PTR _bitStream$[ebp]
	call	??$Read@M@BitStream@RakNet@@QAE_NAAM@Z	; RakNet::BitStream::Read<float>

; 295  : 
; 296  : 	pVehicleManager->New(vehicleID,byteVehicleType,
; 297  : 		&vecPos,fRotation,iColor1,iColor2,&vecSpawnPos,fSpawnRotation);

	push	ecx
	fld	DWORD PTR _fSpawnRotation$[ebp]
	fstp	DWORD PTR [esp]
	lea	eax, DWORD PTR _vecSpawnPos$[ebp]
	push	eax
	mov	ecx, DWORD PTR _iColor2$[ebp]
	push	ecx
	mov	edx, DWORD PTR _iColor1$[ebp]
	push	edx
	push	ecx
	fld	DWORD PTR _fRotation$[ebp]
	fstp	DWORD PTR [esp]
	lea	eax, DWORD PTR _vecPos$[ebp]
	push	eax
	movzx	ecx, BYTE PTR _byteVehicleType$[ebp]
	push	ecx
	movzx	edx, BYTE PTR _vehicleID$[ebp]
	push	edx
	mov	ecx, DWORD PTR _pVehicleManager$[ebp]
	call	?New@CVehicleManager@@QAEHEEPAUVector3@@MHH0M@Z ; CVehicleManager::New

; 298  : 	//pVehicleManager->GetAt(vehicleID)->SetHealth(fHealth);
; 299  : }

	push	edx
	mov	ecx, ebp
	push	eax
	lea	edx, DWORD PTR $LN13@VehicleSpa
	call	@_RTC_CheckStackVars@8
	pop	eax
	pop	edx
	pop	edi
	pop	esi
	pop	ebx
	add	esp, 328				; 00000148H
	cmp	ebp, esp
	call	__RTC_CheckEsp
	mov	esp, ebp
	pop	ebp
	ret	0
	npad	1
$LN13@VehicleSpa:
	DD	9
	DD	$LN12@VehicleSpa
$LN12@VehicleSpa:
	DD	-17					; ffffffefH
	DD	1
	DD	$LN3@VehicleSpa
	DD	-29					; ffffffe3H
	DD	1
	DD	$LN4@VehicleSpa
	DD	-52					; ffffffccH
	DD	12					; 0000000cH
	DD	$LN5@VehicleSpa
	DD	-72					; ffffffb8H
	DD	12					; 0000000cH
	DD	$LN6@VehicleSpa
	DD	-84					; ffffffacH
	DD	4
	DD	$LN7@VehicleSpa
	DD	-96					; ffffffa0H
	DD	4
	DD	$LN8@VehicleSpa
	DD	-108					; ffffff94H
	DD	4
	DD	$LN9@VehicleSpa
	DD	-120					; ffffff88H
	DD	4
	DD	$LN10@VehicleSpa
	DD	-132					; ffffff7cH
	DD	4
	DD	$LN11@VehicleSpa
$LN11@VehicleSpa:
	DB	105					; 00000069H
	DB	67					; 00000043H
	DB	111					; 0000006fH
	DB	108					; 0000006cH
	DB	111					; 0000006fH
	DB	114					; 00000072H
	DB	50					; 00000032H
	DB	0
$LN10@VehicleSpa:
	DB	105					; 00000069H
	DB	67					; 00000043H
	DB	111					; 0000006fH
	DB	108					; 0000006cH
	DB	111					; 0000006fH
	DB	114					; 00000072H
	DB	49					; 00000031H
	DB	0
$LN9@VehicleSpa:
	DB	102					; 00000066H
	DB	72					; 00000048H
	DB	101					; 00000065H
	DB	97					; 00000061H
	DB	108					; 0000006cH
	DB	116					; 00000074H
	DB	104					; 00000068H
	DB	0
$LN8@VehicleSpa:
	DB	102					; 00000066H
	DB	83					; 00000053H
	DB	112					; 00000070H
	DB	97					; 00000061H
	DB	119					; 00000077H
	DB	110					; 0000006eH
	DB	82					; 00000052H
	DB	111					; 0000006fH
	DB	116					; 00000074H
	DB	97					; 00000061H
	DB	116					; 00000074H
	DB	105					; 00000069H
	DB	111					; 0000006fH
	DB	110					; 0000006eH
	DB	0
$LN7@VehicleSpa:
	DB	102					; 00000066H
	DB	82					; 00000052H
	DB	111					; 0000006fH
	DB	116					; 00000074H
	DB	97					; 00000061H
	DB	116					; 00000074H
	DB	105					; 00000069H
	DB	111					; 0000006fH
	DB	110					; 0000006eH
	DB	0
$LN6@VehicleSpa:
	DB	118					; 00000076H
	DB	101					; 00000065H
	DB	99					; 00000063H
	DB	83					; 00000053H
	DB	112					; 00000070H
	DB	97					; 00000061H
	DB	119					; 00000077H
	DB	110					; 0000006eH
	DB	80					; 00000050H
	DB	111					; 0000006fH
	DB	115					; 00000073H
	DB	0
$LN5@VehicleSpa:
	DB	118					; 00000076H
	DB	101					; 00000065H
	DB	99					; 00000063H
	DB	80					; 00000050H
	DB	111					; 0000006fH
	DB	115					; 00000073H
	DB	0
$LN4@VehicleSpa:
	DB	98					; 00000062H
	DB	121					; 00000079H
	DB	116					; 00000074H
	DB	101					; 00000065H
	DB	86					; 00000056H
	DB	101					; 00000065H
	DB	104					; 00000068H
	DB	105					; 00000069H
	DB	99					; 00000063H
	DB	108					; 0000006cH
	DB	101					; 00000065H
	DB	84					; 00000054H
	DB	121					; 00000079H
	DB	112					; 00000070H
	DB	101					; 00000065H
	DB	0
$LN3@VehicleSpa:
	DB	118					; 00000076H
	DB	101					; 00000065H
	DB	104					; 00000068H
	DB	105					; 00000069H
	DB	99					; 00000063H
	DB	108					; 0000006cH
	DB	101					; 00000065H
	DB	73					; 00000049H
	DB	68					; 00000044H
	DB	0
?VehicleSpawn@@YAXPAVBitStream@RakNet@@PAUPacket@2@@Z ENDP ; VehicleSpawn
_TEXT	ENDS
PUBLIC	?VehicleDestroy@@YAXPAVBitStream@RakNet@@PAUPacket@2@@Z ; VehicleDestroy
EXTRN	?Delete@CVehicleManager@@QAEHE@Z:PROC		; CVehicleManager::Delete
; Function compile flags: /Odtp /RTCsu /ZI
;	COMDAT ?VehicleDestroy@@YAXPAVBitStream@RakNet@@PAUPacket@2@@Z
_TEXT	SEGMENT
_vehicleID$ = -17					; size = 1
_pVehicleManager$ = -8					; size = 4
_bitStream$ = 8						; size = 4
_packet$ = 12						; size = 4
?VehicleDestroy@@YAXPAVBitStream@RakNet@@PAUPacket@2@@Z PROC ; VehicleDestroy, COMDAT

; 304  : {

	push	ebp
	mov	ebp, esp
	sub	esp, 216				; 000000d8H
	push	ebx
	push	esi
	push	edi
	lea	edi, DWORD PTR [ebp-216]
	mov	ecx, 54					; 00000036H
	mov	eax, -858993460				; ccccccccH
	rep stosd

; 305  : 	CVehicleManager *pVehicleManager = pNetowkManager->GetVehicleManager();

	mov	ecx, DWORD PTR ?pNetowkManager@@3PAVCNetworkManager@@A ; pNetowkManager
	call	?GetVehicleManager@CNetworkManager@@QAEPAVCVehicleManager@@XZ ; CNetworkManager::GetVehicleManager
	mov	DWORD PTR _pVehicleManager$[ebp], eax

; 306  : 	EntityId vehicleID=0;

	mov	BYTE PTR _vehicleID$[ebp], 0

; 307  : 
; 308  : 	bitStream->Read(vehicleID);

	lea	eax, DWORD PTR _vehicleID$[ebp]
	push	eax
	mov	ecx, DWORD PTR _bitStream$[ebp]
	call	??$Read@E@BitStream@RakNet@@QAE_NAAE@Z	; RakNet::BitStream::Read<unsigned char>

; 309  : 
; 310  : 	pVehicleManager->Delete(vehicleID);

	movzx	eax, BYTE PTR _vehicleID$[ebp]
	push	eax
	mov	ecx, DWORD PTR _pVehicleManager$[ebp]
	call	?Delete@CVehicleManager@@QAEHE@Z	; CVehicleManager::Delete

; 311  : }

	push	edx
	mov	ecx, ebp
	push	eax
	lea	edx, DWORD PTR $LN5@VehicleDes
	call	@_RTC_CheckStackVars@8
	pop	eax
	pop	edx
	pop	edi
	pop	esi
	pop	ebx
	add	esp, 216				; 000000d8H
	cmp	ebp, esp
	call	__RTC_CheckEsp
	mov	esp, ebp
	pop	ebp
	ret	0
	npad	2
$LN5@VehicleDes:
	DD	1
	DD	$LN4@VehicleDes
$LN4@VehicleDes:
	DD	-17					; ffffffefH
	DD	1
	DD	$LN3@VehicleDes
$LN3@VehicleDes:
	DB	118					; 00000076H
	DB	101					; 00000065H
	DB	104					; 00000068H
	DB	105					; 00000069H
	DB	99					; 00000063H
	DB	108					; 0000006cH
	DB	101					; 00000065H
	DB	73					; 00000049H
	DB	68					; 00000044H
	DB	0
?VehicleDestroy@@YAXPAVBitStream@RakNet@@PAUPacket@2@@Z ENDP ; VehicleDestroy
_TEXT	ENDS
PUBLIC	?UpdateIPAddress@CPlayerManager@@QAEXEK@Z	; CPlayerManager::UpdateIPAddress
PUBLIC	?UpdatePing@CPlayerManager@@QAEXEH@Z		; CPlayerManager::UpdatePing
PUBLIC	?UpdateScore@CPlayerManager@@QAEXEH@Z		; CPlayerManager::UpdateScore
PUBLIC	?GetSlotState@CPlayerManager@@QAEHE@Z		; CPlayerManager::GetSlotState
PUBLIC	??$Read@K@BitStream@RakNet@@QAE_NAAK@Z		; RakNet::BitStream::Read<unsigned long>
PUBLIC	?UpdateScoreAndPing@@YAXPAVBitStream@RakNet@@PAUPacket@2@@Z ; UpdateScoreAndPing
; Function compile flags: /Odtp /RTCsu /ZI
;	COMDAT ?UpdateScoreAndPing@@YAXPAVBitStream@RakNet@@PAUPacket@2@@Z
_TEXT	SEGMENT
_ulIp$ = -56						; size = 4
_iPlayerPing$ = -44					; size = 4
_iPlayerScore$ = -32					; size = 4
_playerID$ = -17					; size = 1
_pPlayerManager$ = -8					; size = 4
_bitStream$ = 8						; size = 4
_packet$ = 12						; size = 4
?UpdateScoreAndPing@@YAXPAVBitStream@RakNet@@PAUPacket@2@@Z PROC ; UpdateScoreAndPing, COMDAT

; 316  : {	

	push	ebp
	mov	ebp, esp
	sub	esp, 252				; 000000fcH
	push	ebx
	push	esi
	push	edi
	lea	edi, DWORD PTR [ebp-252]
	mov	ecx, 63					; 0000003fH
	mov	eax, -858993460				; ccccccccH
	rep stosd

; 317  : 	CPlayerManager * pPlayerManager = pNetowkManager->GetPlayerManager();

	mov	ecx, DWORD PTR ?pNetowkManager@@3PAVCNetworkManager@@A ; pNetowkManager
	call	?GetPlayerManager@CNetworkManager@@QAEPAVCPlayerManager@@XZ ; CNetworkManager::GetPlayerManager
	mov	DWORD PTR _pPlayerManager$[ebp], eax
$LN4@UpdateScor:

; 318  : 	EntityId playerID;
; 319  : 	int iPlayerScore;
; 320  : 	int iPlayerPing;
; 321  : 	unsigned long ulIp;
; 322  : 
; 323  : 	while(bitStream->Read(playerID))

	lea	eax, DWORD PTR _playerID$[ebp]
	push	eax
	mov	ecx, DWORD PTR _bitStream$[ebp]
	call	??$Read@E@BitStream@RakNet@@QAE_NAAE@Z	; RakNet::BitStream::Read<unsigned char>
	movzx	ecx, al
	test	ecx, ecx
	je	$LN5@UpdateScor

; 324  : 	{
; 325  : 		bitStream->Read(iPlayerScore);

	lea	eax, DWORD PTR _iPlayerScore$[ebp]
	push	eax
	mov	ecx, DWORD PTR _bitStream$[ebp]
	call	??$Read@H@BitStream@RakNet@@QAE_NAAH@Z	; RakNet::BitStream::Read<int>

; 326  : 		bitStream->Read(iPlayerPing);

	lea	eax, DWORD PTR _iPlayerPing$[ebp]
	push	eax
	mov	ecx, DWORD PTR _bitStream$[ebp]
	call	??$Read@H@BitStream@RakNet@@QAE_NAAH@Z	; RakNet::BitStream::Read<int>

; 327  : 		bitStream->Read(ulIp);

	lea	eax, DWORD PTR _ulIp$[ebp]
	push	eax
	mov	ecx, DWORD PTR _bitStream$[ebp]
	call	??$Read@K@BitStream@RakNet@@QAE_NAAK@Z	; RakNet::BitStream::Read<unsigned long>

; 328  : 
; 329  : 		if(pPlayerManager->GetSlotState(playerID) || playerID == pPlayerManager->GetLocalPlayerID())

	movzx	eax, BYTE PTR _playerID$[ebp]
	push	eax
	mov	ecx, DWORD PTR _pPlayerManager$[ebp]
	call	?GetSlotState@CPlayerManager@@QAEHE@Z	; CPlayerManager::GetSlotState
	test	eax, eax
	jne	SHORT $LN1@UpdateScor
	movzx	esi, BYTE PTR _playerID$[ebp]
	mov	ecx, DWORD PTR _pPlayerManager$[ebp]
	call	?GetLocalPlayerID@CPlayerManager@@QAEEXZ ; CPlayerManager::GetLocalPlayerID
	movzx	eax, al
	cmp	esi, eax
	jne	SHORT $LN2@UpdateScor
$LN1@UpdateScor:

; 330  : 		{
; 331  : 			pPlayerManager->UpdateScore(playerID, iPlayerScore);

	mov	eax, DWORD PTR _iPlayerScore$[ebp]
	push	eax
	movzx	ecx, BYTE PTR _playerID$[ebp]
	push	ecx
	mov	ecx, DWORD PTR _pPlayerManager$[ebp]
	call	?UpdateScore@CPlayerManager@@QAEXEH@Z	; CPlayerManager::UpdateScore

; 332  : 			pPlayerManager->UpdatePing(playerID, iPlayerPing);

	mov	eax, DWORD PTR _iPlayerPing$[ebp]
	push	eax
	movzx	ecx, BYTE PTR _playerID$[ebp]
	push	ecx
	mov	ecx, DWORD PTR _pPlayerManager$[ebp]
	call	?UpdatePing@CPlayerManager@@QAEXEH@Z	; CPlayerManager::UpdatePing

; 333  : 			pPlayerManager->UpdateIPAddress(playerID, ulIp);

	mov	eax, DWORD PTR _ulIp$[ebp]
	push	eax
	movzx	ecx, BYTE PTR _playerID$[ebp]
	push	ecx
	mov	ecx, DWORD PTR _pPlayerManager$[ebp]
	call	?UpdateIPAddress@CPlayerManager@@QAEXEK@Z ; CPlayerManager::UpdateIPAddress
$LN2@UpdateScor:

; 334  : 		}
; 335  : 	}

	jmp	$LN4@UpdateScor
$LN5@UpdateScor:

; 336  : }

	push	edx
	mov	ecx, ebp
	push	eax
	lea	edx, DWORD PTR $LN12@UpdateScor
	call	@_RTC_CheckStackVars@8
	pop	eax
	pop	edx
	pop	edi
	pop	esi
	pop	ebx
	add	esp, 252				; 000000fcH
	cmp	ebp, esp
	call	__RTC_CheckEsp
	mov	esp, ebp
	pop	ebp
	ret	0
$LN12@UpdateScor:
	DD	4
	DD	$LN11@UpdateScor
$LN11@UpdateScor:
	DD	-17					; ffffffefH
	DD	1
	DD	$LN7@UpdateScor
	DD	-32					; ffffffe0H
	DD	4
	DD	$LN8@UpdateScor
	DD	-44					; ffffffd4H
	DD	4
	DD	$LN9@UpdateScor
	DD	-56					; ffffffc8H
	DD	4
	DD	$LN10@UpdateScor
$LN10@UpdateScor:
	DB	117					; 00000075H
	DB	108					; 0000006cH
	DB	73					; 00000049H
	DB	112					; 00000070H
	DB	0
$LN9@UpdateScor:
	DB	105					; 00000069H
	DB	80					; 00000050H
	DB	108					; 0000006cH
	DB	97					; 00000061H
	DB	121					; 00000079H
	DB	101					; 00000065H
	DB	114					; 00000072H
	DB	80					; 00000050H
	DB	105					; 00000069H
	DB	110					; 0000006eH
	DB	103					; 00000067H
	DB	0
$LN8@UpdateScor:
	DB	105					; 00000069H
	DB	80					; 00000050H
	DB	108					; 0000006cH
	DB	97					; 00000061H
	DB	121					; 00000079H
	DB	101					; 00000065H
	DB	114					; 00000072H
	DB	83					; 00000053H
	DB	99					; 00000063H
	DB	111					; 0000006fH
	DB	114					; 00000072H
	DB	101					; 00000065H
	DB	0
$LN7@UpdateScor:
	DB	112					; 00000070H
	DB	108					; 0000006cH
	DB	97					; 00000061H
	DB	121					; 00000079H
	DB	101					; 00000065H
	DB	114					; 00000072H
	DB	73					; 00000049H
	DB	68					; 00000044H
	DB	0
?UpdateScoreAndPing@@YAXPAVBitStream@RakNet@@PAUPacket@2@@Z ENDP ; UpdateScoreAndPing
_TEXT	ENDS
PUBLIC	??_C@_0BJ@BCLMHIDJ@YOUR?5NICKNAME?5IS?5INVALID?$AA@ ; `string'
PUBLIC	??_C@_0CD@DHKKPPLC@YOU?8RE?5USING?5AN?5INCORRECT?5VERSIO@ ; `string'
PUBLIC	??_C@_0BE@OCOLJLIB@CONNECTION?5REJECTED?$AA@	; `string'
PUBLIC	?ConnectionRejected@@YAXPAVBitStream@RakNet@@PAUPacket@2@@Z ; ConnectionRejected
EXTRN	?Shutdown@CNetworkManager@@QAEXXZ:PROC		; CNetworkManager::Shutdown
EXTRN	?AddInfoMessage@CChatWindow@@QAAXPADZZ:PROC	; CChatWindow::AddInfoMessage
;	COMDAT ??_C@_0BJ@BCLMHIDJ@YOUR?5NICKNAME?5IS?5INVALID?$AA@
CONST	SEGMENT
??_C@_0BJ@BCLMHIDJ@YOUR?5NICKNAME?5IS?5INVALID?$AA@ DB 'YOUR NICKNAME IS '
	DB	'INVALID', 00H				; `string'
CONST	ENDS
;	COMDAT ??_C@_0CD@DHKKPPLC@YOU?8RE?5USING?5AN?5INCORRECT?5VERSIO@
CONST	SEGMENT
??_C@_0CD@DHKKPPLC@YOU?8RE?5USING?5AN?5INCORRECT?5VERSIO@ DB 'YOU''RE USI'
	DB	'NG AN INCORRECT VERSION!', 00H		; `string'
CONST	ENDS
;	COMDAT ??_C@_0BE@OCOLJLIB@CONNECTION?5REJECTED?$AA@
CONST	SEGMENT
??_C@_0BE@OCOLJLIB@CONNECTION?5REJECTED?$AA@ DB 'CONNECTION REJECTED', 00H ; `string'
; Function compile flags: /Odtp /RTCsu /ZI
CONST	ENDS
;	COMDAT ?ConnectionRejected@@YAXPAVBitStream@RakNet@@PAUPacket@2@@Z
_TEXT	SEGMENT
_byteRejectReason$ = -5					; size = 1
_bitStream$ = 8						; size = 4
_packet$ = 12						; size = 4
?ConnectionRejected@@YAXPAVBitStream@RakNet@@PAUPacket@2@@Z PROC ; ConnectionRejected, COMDAT

; 341  : {

	push	ebp
	mov	ebp, esp
	sub	esp, 204				; 000000ccH
	push	ebx
	push	esi
	push	edi
	lea	edi, DWORD PTR [ebp-204]
	mov	ecx, 51					; 00000033H
	mov	eax, -858993460				; ccccccccH
	rep stosd

; 342  : 	BYTE byteRejectReason;
; 343  : 
; 344  : 	bitStream->Read(byteRejectReason);

	lea	eax, DWORD PTR _byteRejectReason$[ebp]
	push	eax
	mov	ecx, DWORD PTR _bitStream$[ebp]
	call	??$Read@E@BitStream@RakNet@@QAE_NAAE@Z	; RakNet::BitStream::Read<unsigned char>

; 345  : 
; 346  : 	if(byteRejectReason==REJECT_REASON_BAD_VERSION) {

	movzx	eax, BYTE PTR _byteRejectReason$[ebp]
	cmp	eax, 1
	jne	SHORT $LN4@Connection

; 347  : 		pChatWindow->AddInfoMessage("CONNECTION REJECTED");

	push	OFFSET ??_C@_0BE@OCOLJLIB@CONNECTION?5REJECTED?$AA@
	mov	eax, DWORD PTR ?pChatWindow@@3PAVCChatWindow@@A ; pChatWindow
	push	eax
	call	?AddInfoMessage@CChatWindow@@QAAXPADZZ	; CChatWindow::AddInfoMessage
	add	esp, 8

; 348  : 		pChatWindow->AddInfoMessage("YOU'RE USING AN INCORRECT VERSION!");

	push	OFFSET ??_C@_0CD@DHKKPPLC@YOU?8RE?5USING?5AN?5INCORRECT?5VERSIO@
	mov	eax, DWORD PTR ?pChatWindow@@3PAVCChatWindow@@A ; pChatWindow
	push	eax
	call	?AddInfoMessage@CChatWindow@@QAAXPADZZ	; CChatWindow::AddInfoMessage
	add	esp, 8
	jmp	SHORT $LN3@Connection
$LN4@Connection:

; 349  : 	}
; 350  : 	else if(byteRejectReason==REJECT_REASON_BAD_NICKNAME)

	movzx	eax, BYTE PTR _byteRejectReason$[ebp]
	cmp	eax, 2
	jne	SHORT $LN3@Connection

; 351  : 	{
; 352  : 		pChatWindow->AddInfoMessage("CONNECTION REJECTED");

	push	OFFSET ??_C@_0BE@OCOLJLIB@CONNECTION?5REJECTED?$AA@
	mov	eax, DWORD PTR ?pChatWindow@@3PAVCChatWindow@@A ; pChatWindow
	push	eax
	call	?AddInfoMessage@CChatWindow@@QAAXPADZZ	; CChatWindow::AddInfoMessage
	add	esp, 8

; 353  : 		pChatWindow->AddInfoMessage("YOUR NICKNAME IS INVALID");

	push	OFFSET ??_C@_0BJ@BCLMHIDJ@YOUR?5NICKNAME?5IS?5INVALID?$AA@
	mov	eax, DWORD PTR ?pChatWindow@@3PAVCChatWindow@@A ; pChatWindow
	push	eax
	call	?AddInfoMessage@CChatWindow@@QAAXPADZZ	; CChatWindow::AddInfoMessage
	add	esp, 8
$LN3@Connection:

; 354  : 	}
; 355  : 
; 356  : 	if(pNetowkManager) {

	cmp	DWORD PTR ?pNetowkManager@@3PAVCNetworkManager@@A, 0 ; pNetowkManager
	je	SHORT $LN5@Connection

; 357  : 		pNetowkManager->Shutdown();

	mov	ecx, DWORD PTR ?pNetowkManager@@3PAVCNetworkManager@@A ; pNetowkManager
	call	?Shutdown@CNetworkManager@@QAEXXZ	; CNetworkManager::Shutdown
$LN5@Connection:

; 358  : 	}
; 359  : }

	push	edx
	mov	ecx, ebp
	push	eax
	lea	edx, DWORD PTR $LN9@Connection
	call	@_RTC_CheckStackVars@8
	pop	eax
	pop	edx
	pop	edi
	pop	esi
	pop	ebx
	add	esp, 204				; 000000ccH
	cmp	ebp, esp
	call	__RTC_CheckEsp
	mov	esp, ebp
	pop	ebp
	ret	0
	npad	1
$LN9@Connection:
	DD	1
	DD	$LN8@Connection
$LN8@Connection:
	DD	-5					; fffffffbH
	DD	1
	DD	$LN7@Connection
$LN7@Connection:
	DB	98					; 00000062H
	DB	121					; 00000079H
	DB	116					; 00000074H
	DB	101					; 00000065H
	DB	82					; 00000052H
	DB	101					; 00000065H
	DB	106					; 0000006aH
	DB	101					; 00000065H
	DB	99					; 00000063H
	DB	116					; 00000074H
	DB	82					; 00000052H
	DB	101					; 00000065H
	DB	97					; 00000061H
	DB	115					; 00000073H
	DB	111					; 0000006fH
	DB	110					; 0000006eH
	DB	0
?ConnectionRejected@@YAXPAVBitStream@RakNet@@PAUPacket@2@@Z ENDP ; ConnectionRejected
_TEXT	ENDS
PUBLIC	?SetGameTime@@YAXPAVBitStream@RakNet@@PAUPacket@2@@Z ; SetGameTime
EXTRN	?SetGameTime@CGame@@QAEXHH@Z:PROC		; CGame::SetGameTime
; Function compile flags: /Odtp /RTCsu /ZI
;	COMDAT ?SetGameTime@@YAXPAVBitStream@RakNet@@PAUPacket@2@@Z
_TEXT	SEGMENT
_m$ = -17						; size = 1
_h$ = -5						; size = 1
_bitStream$ = 8						; size = 4
_packet$ = 12						; size = 4
?SetGameTime@@YAXPAVBitStream@RakNet@@PAUPacket@2@@Z PROC ; SetGameTime, COMDAT

; 364  : {

	push	ebp
	mov	ebp, esp
	sub	esp, 216				; 000000d8H
	push	ebx
	push	esi
	push	edi
	lea	edi, DWORD PTR [ebp-216]
	mov	ecx, 54					; 00000036H
	mov	eax, -858993460				; ccccccccH
	rep stosd

; 365  : 	BYTE h, m;
; 366  : 	bitStream->Read(h);

	lea	eax, DWORD PTR _h$[ebp]
	push	eax
	mov	ecx, DWORD PTR _bitStream$[ebp]
	call	??$Read@E@BitStream@RakNet@@QAE_NAAE@Z	; RakNet::BitStream::Read<unsigned char>

; 367  : 	bitStream->Read(m);

	lea	eax, DWORD PTR _m$[ebp]
	push	eax
	mov	ecx, DWORD PTR _bitStream$[ebp]
	call	??$Read@E@BitStream@RakNet@@QAE_NAAE@Z	; RakNet::BitStream::Read<unsigned char>

; 368  : 
; 369  : 	pGame->SetGameTime(h, m);

	movzx	eax, BYTE PTR _m$[ebp]
	push	eax
	movzx	ecx, BYTE PTR _h$[ebp]
	push	ecx
	mov	ecx, DWORD PTR ?pGame@@3PAVCGame@@A	; pGame
	call	?SetGameTime@CGame@@QAEXHH@Z		; CGame::SetGameTime

; 370  : }

	push	edx
	mov	ecx, ebp
	push	eax
	lea	edx, DWORD PTR $LN6@SetGameTim
	call	@_RTC_CheckStackVars@8
	pop	eax
	pop	edx
	pop	edi
	pop	esi
	pop	ebx
	add	esp, 216				; 000000d8H
	cmp	ebp, esp
	call	__RTC_CheckEsp
	mov	esp, ebp
	pop	ebp
	ret	0
$LN6@SetGameTim:
	DD	2
	DD	$LN5@SetGameTim
$LN5@SetGameTim:
	DD	-5					; fffffffbH
	DD	1
	DD	$LN3@SetGameTim
	DD	-17					; ffffffefH
	DD	1
	DD	$LN4@SetGameTim
$LN4@SetGameTim:
	DB	109					; 0000006dH
	DB	0
$LN3@SetGameTim:
	DB	104					; 00000068H
	DB	0
?SetGameTime@@YAXPAVBitStream@RakNet@@PAUPacket@2@@Z ENDP ; SetGameTime
_TEXT	ENDS
PUBLIC	?GetCamera@CGame@@QAEPAVCCamera@@XZ		; CGame::GetCamera
PUBLIC	?SetCameraPosition@@YAXPAVBitStream@RakNet@@PAUPacket@2@@Z ; SetCameraPosition
EXTRN	?SetPosition@CCamera@@QAEXUVector3@@@Z:PROC	; CCamera::SetPosition
; Function compile flags: /Odtp /RTCsu /ZI
;	COMDAT ?SetCameraPosition@@YAXPAVBitStream@RakNet@@PAUPacket@2@@Z
_TEXT	SEGMENT
_vPos$ = -16						; size = 12
_bitStream$ = 8						; size = 4
_packet$ = 12						; size = 4
?SetCameraPosition@@YAXPAVBitStream@RakNet@@PAUPacket@2@@Z PROC ; SetCameraPosition, COMDAT

; 375  : {

	push	ebp
	mov	ebp, esp
	sub	esp, 212				; 000000d4H
	push	ebx
	push	esi
	push	edi
	lea	edi, DWORD PTR [ebp-212]
	mov	ecx, 53					; 00000035H
	mov	eax, -858993460				; ccccccccH
	rep stosd

; 376  : 	Vector3 vPos;

	lea	ecx, DWORD PTR _vPos$[ebp]
	call	??0Vector3@@QAE@XZ			; Vector3::Vector3

; 377  : 	bitStream->Read(vPos.X);

	lea	eax, DWORD PTR _vPos$[ebp]
	push	eax
	mov	ecx, DWORD PTR _bitStream$[ebp]
	call	??$Read@M@BitStream@RakNet@@QAE_NAAM@Z	; RakNet::BitStream::Read<float>

; 378  : 	bitStream->Read(vPos.Y);

	lea	eax, DWORD PTR _vPos$[ebp+4]
	push	eax
	mov	ecx, DWORD PTR _bitStream$[ebp]
	call	??$Read@M@BitStream@RakNet@@QAE_NAAM@Z	; RakNet::BitStream::Read<float>

; 379  : 	bitStream->Read(vPos.Z);

	lea	eax, DWORD PTR _vPos$[ebp+8]
	push	eax
	mov	ecx, DWORD PTR _bitStream$[ebp]
	call	??$Read@M@BitStream@RakNet@@QAE_NAAM@Z	; RakNet::BitStream::Read<float>

; 380  : 
; 381  : 	pGame->GetCamera()->SetPosition(vPos);

	sub	esp, 12					; 0000000cH
	mov	eax, esp
	mov	ecx, DWORD PTR _vPos$[ebp]
	mov	DWORD PTR [eax], ecx
	mov	edx, DWORD PTR _vPos$[ebp+4]
	mov	DWORD PTR [eax+4], edx
	mov	ecx, DWORD PTR _vPos$[ebp+8]
	mov	DWORD PTR [eax+8], ecx
	mov	ecx, DWORD PTR ?pGame@@3PAVCGame@@A	; pGame
	call	?GetCamera@CGame@@QAEPAVCCamera@@XZ	; CGame::GetCamera
	mov	ecx, eax
	call	?SetPosition@CCamera@@QAEXUVector3@@@Z	; CCamera::SetPosition

; 382  : }

	push	edx
	mov	ecx, ebp
	push	eax
	lea	edx, DWORD PTR $LN5@SetCameraP
	call	@_RTC_CheckStackVars@8
	pop	eax
	pop	edx
	pop	edi
	pop	esi
	pop	ebx
	add	esp, 212				; 000000d4H
	cmp	ebp, esp
	call	__RTC_CheckEsp
	mov	esp, ebp
	pop	ebp
	ret	0
	npad	1
$LN5@SetCameraP:
	DD	1
	DD	$LN4@SetCameraP
$LN4@SetCameraP:
	DD	-16					; fffffff0H
	DD	12					; 0000000cH
	DD	$LN3@SetCameraP
$LN3@SetCameraP:
	DB	118					; 00000076H
	DB	80					; 00000050H
	DB	111					; 0000006fH
	DB	115					; 00000073H
	DB	0
?SetCameraPosition@@YAXPAVBitStream@RakNet@@PAUPacket@2@@Z ENDP ; SetCameraPosition
_TEXT	ENDS
PUBLIC	?SetCameraRotation@@YAXPAVBitStream@RakNet@@PAUPacket@2@@Z ; SetCameraRotation
EXTRN	?SetRotation@CCamera@@QAEXUVector3@@@Z:PROC	; CCamera::SetRotation
; Function compile flags: /Odtp /RTCsu /ZI
;	COMDAT ?SetCameraRotation@@YAXPAVBitStream@RakNet@@PAUPacket@2@@Z
_TEXT	SEGMENT
_vRot$ = -16						; size = 12
_bitStream$ = 8						; size = 4
_packet$ = 12						; size = 4
?SetCameraRotation@@YAXPAVBitStream@RakNet@@PAUPacket@2@@Z PROC ; SetCameraRotation, COMDAT

; 387  : {

	push	ebp
	mov	ebp, esp
	sub	esp, 212				; 000000d4H
	push	ebx
	push	esi
	push	edi
	lea	edi, DWORD PTR [ebp-212]
	mov	ecx, 53					; 00000035H
	mov	eax, -858993460				; ccccccccH
	rep stosd

; 388  : 	Vector3 vRot;

	lea	ecx, DWORD PTR _vRot$[ebp]
	call	??0Vector3@@QAE@XZ			; Vector3::Vector3

; 389  : 	bitStream->Read(vRot.X);

	lea	eax, DWORD PTR _vRot$[ebp]
	push	eax
	mov	ecx, DWORD PTR _bitStream$[ebp]
	call	??$Read@M@BitStream@RakNet@@QAE_NAAM@Z	; RakNet::BitStream::Read<float>

; 390  : 	bitStream->Read(vRot.Y);

	lea	eax, DWORD PTR _vRot$[ebp+4]
	push	eax
	mov	ecx, DWORD PTR _bitStream$[ebp]
	call	??$Read@M@BitStream@RakNet@@QAE_NAAM@Z	; RakNet::BitStream::Read<float>

; 391  : 	bitStream->Read(vRot.Z);

	lea	eax, DWORD PTR _vRot$[ebp+8]
	push	eax
	mov	ecx, DWORD PTR _bitStream$[ebp]
	call	??$Read@M@BitStream@RakNet@@QAE_NAAM@Z	; RakNet::BitStream::Read<float>

; 392  : 
; 393  : 	pGame->GetCamera()->SetRotation(vRot);

	sub	esp, 12					; 0000000cH
	mov	eax, esp
	mov	ecx, DWORD PTR _vRot$[ebp]
	mov	DWORD PTR [eax], ecx
	mov	edx, DWORD PTR _vRot$[ebp+4]
	mov	DWORD PTR [eax+4], edx
	mov	ecx, DWORD PTR _vRot$[ebp+8]
	mov	DWORD PTR [eax+8], ecx
	mov	ecx, DWORD PTR ?pGame@@3PAVCGame@@A	; pGame
	call	?GetCamera@CGame@@QAEPAVCCamera@@XZ	; CGame::GetCamera
	mov	ecx, eax
	call	?SetRotation@CCamera@@QAEXUVector3@@@Z	; CCamera::SetRotation

; 394  : }

	push	edx
	mov	ecx, ebp
	push	eax
	lea	edx, DWORD PTR $LN5@SetCameraR
	call	@_RTC_CheckStackVars@8
	pop	eax
	pop	edx
	pop	edi
	pop	esi
	pop	ebx
	add	esp, 212				; 000000d4H
	cmp	ebp, esp
	call	__RTC_CheckEsp
	mov	esp, ebp
	pop	ebp
	ret	0
	npad	1
$LN5@SetCameraR:
	DD	1
	DD	$LN4@SetCameraR
$LN4@SetCameraR:
	DD	-16					; fffffff0H
	DD	12					; 0000000cH
	DD	$LN3@SetCameraR
$LN3@SetCameraR:
	DB	118					; 00000076H
	DB	82					; 00000052H
	DB	111					; 0000006fH
	DB	116					; 00000074H
	DB	0
?SetCameraRotation@@YAXPAVBitStream@RakNet@@PAUPacket@2@@Z ENDP ; SetCameraRotation
_TEXT	ENDS
PUBLIC	?SetCameraLookAt@@YAXPAVBitStream@RakNet@@PAUPacket@2@@Z ; SetCameraLookAt
EXTRN	?LookAtPoint@CCamera@@QAEXUVector3@@H@Z:PROC	; CCamera::LookAtPoint
; Function compile flags: /Odtp /RTCsu /ZI
;	COMDAT ?SetCameraLookAt@@YAXPAVBitStream@RakNet@@PAUPacket@2@@Z
_TEXT	SEGMENT
_vPoint$ = -16						; size = 12
_bitStream$ = 8						; size = 4
_packet$ = 12						; size = 4
?SetCameraLookAt@@YAXPAVBitStream@RakNet@@PAUPacket@2@@Z PROC ; SetCameraLookAt, COMDAT

; 399  : {

	push	ebp
	mov	ebp, esp
	sub	esp, 212				; 000000d4H
	push	ebx
	push	esi
	push	edi
	lea	edi, DWORD PTR [ebp-212]
	mov	ecx, 53					; 00000035H
	mov	eax, -858993460				; ccccccccH
	rep stosd

; 400  : 	Vector3 vPoint;

	lea	ecx, DWORD PTR _vPoint$[ebp]
	call	??0Vector3@@QAE@XZ			; Vector3::Vector3

; 401  : 	bitStream->Read(vPoint.X);

	lea	eax, DWORD PTR _vPoint$[ebp]
	push	eax
	mov	ecx, DWORD PTR _bitStream$[ebp]
	call	??$Read@M@BitStream@RakNet@@QAE_NAAM@Z	; RakNet::BitStream::Read<float>

; 402  : 	bitStream->Read(vPoint.Y);

	lea	eax, DWORD PTR _vPoint$[ebp+4]
	push	eax
	mov	ecx, DWORD PTR _bitStream$[ebp]
	call	??$Read@M@BitStream@RakNet@@QAE_NAAM@Z	; RakNet::BitStream::Read<float>

; 403  : 	bitStream->Read(vPoint.Z);

	lea	eax, DWORD PTR _vPoint$[ebp+8]
	push	eax
	mov	ecx, DWORD PTR _bitStream$[ebp]
	call	??$Read@M@BitStream@RakNet@@QAE_NAAM@Z	; RakNet::BitStream::Read<float>

; 404  : 
; 405  : 	pGame->GetCamera()->LookAtPoint(vPoint, 1);

	push	1
	sub	esp, 12					; 0000000cH
	mov	eax, esp
	mov	ecx, DWORD PTR _vPoint$[ebp]
	mov	DWORD PTR [eax], ecx
	mov	edx, DWORD PTR _vPoint$[ebp+4]
	mov	DWORD PTR [eax+4], edx
	mov	ecx, DWORD PTR _vPoint$[ebp+8]
	mov	DWORD PTR [eax+8], ecx
	mov	ecx, DWORD PTR ?pGame@@3PAVCGame@@A	; pGame
	call	?GetCamera@CGame@@QAEPAVCCamera@@XZ	; CGame::GetCamera
	mov	ecx, eax
	call	?LookAtPoint@CCamera@@QAEXUVector3@@H@Z	; CCamera::LookAtPoint

; 406  : }

	push	edx
	mov	ecx, ebp
	push	eax
	lea	edx, DWORD PTR $LN5@SetCameraL
	call	@_RTC_CheckStackVars@8
	pop	eax
	pop	edx
	pop	edi
	pop	esi
	pop	ebx
	add	esp, 212				; 000000d4H
	cmp	ebp, esp
	call	__RTC_CheckEsp
	mov	esp, ebp
	pop	ebp
	ret	0
	npad	3
$LN5@SetCameraL:
	DD	1
	DD	$LN4@SetCameraL
$LN4@SetCameraL:
	DD	-16					; fffffff0H
	DD	12					; 0000000cH
	DD	$LN3@SetCameraL
$LN3@SetCameraL:
	DB	118					; 00000076H
	DB	80					; 00000050H
	DB	111					; 0000006fH
	DB	105					; 00000069H
	DB	110					; 0000006eH
	DB	116					; 00000074H
	DB	0
?SetCameraLookAt@@YAXPAVBitStream@RakNet@@PAUPacket@2@@Z ENDP ; SetCameraLookAt
_TEXT	ENDS
PUBLIC	?SetCameraBehindPlayer@@YAXPAVBitStream@RakNet@@PAUPacket@2@@Z ; SetCameraBehindPlayer
EXTRN	?SetBehindPlayer@CCamera@@QAEXXZ:PROC		; CCamera::SetBehindPlayer
; Function compile flags: /Odtp /RTCsu /ZI
;	COMDAT ?SetCameraBehindPlayer@@YAXPAVBitStream@RakNet@@PAUPacket@2@@Z
_TEXT	SEGMENT
_bitStream$ = 8						; size = 4
_packet$ = 12						; size = 4
?SetCameraBehindPlayer@@YAXPAVBitStream@RakNet@@PAUPacket@2@@Z PROC ; SetCameraBehindPlayer, COMDAT

; 411  : {

	push	ebp
	mov	ebp, esp
	sub	esp, 192				; 000000c0H
	push	ebx
	push	esi
	push	edi
	lea	edi, DWORD PTR [ebp-192]
	mov	ecx, 48					; 00000030H
	mov	eax, -858993460				; ccccccccH
	rep stosd

; 412  : 	pGame->GetCamera()->SetBehindPlayer();

	mov	ecx, DWORD PTR ?pGame@@3PAVCGame@@A	; pGame
	call	?GetCamera@CGame@@QAEPAVCCamera@@XZ	; CGame::GetCamera
	mov	ecx, eax
	call	?SetBehindPlayer@CCamera@@QAEXXZ	; CCamera::SetBehindPlayer

; 413  : }

	pop	edi
	pop	esi
	pop	ebx
	add	esp, 192				; 000000c0H
	cmp	ebp, esp
	call	__RTC_CheckEsp
	mov	esp, ebp
	pop	ebp
	ret	0
?SetCameraBehindPlayer@@YAXPAVBitStream@RakNet@@PAUPacket@2@@Z ENDP ; SetCameraBehindPlayer
_TEXT	ENDS
PUBLIC	??1?$basic_string@DU?$char_traits@D@std@@V?$allocator@D@2@@std@@QAE@XZ ; std::basic_string<char,std::char_traits<char>,std::allocator<char> >::~basic_string<char,std::char_traits<char>,std::allocator<char> >
PUBLIC	??_C@_02DKCKIIND@?$CFs?$AA@			; `string'
PUBLIC	?c_str@?$basic_string@DU?$char_traits@D@std@@V?$allocator@D@2@@std@@QBEPBDXZ ; std::basic_string<char,std::char_traits<char>,std::allocator<char> >::c_str
PUBLIC	??_C@_02GMLFBBN@wb?$AA@				; `string'
PUBLIC	?append@?$basic_string@DU?$char_traits@D@std@@V?$allocator@D@2@@std@@QAEAAV12@PBD@Z ; std::basic_string<char,std::char_traits<char>,std::allocator<char> >::append
PUBLIC	??$Read@J@BitStream@RakNet@@QAE_NAAJ@Z		; RakNet::BitStream::Read<long>
PUBLIC	??0?$basic_string@DU?$char_traits@D@std@@V?$allocator@D@2@@std@@QAE@PBD@Z ; std::basic_string<char,std::char_traits<char>,std::allocator<char> >::basic_string<char,std::char_traits<char>,std::allocator<char> >
PUBLIC	??_C@_0BE@ILADIHLB@vc?9p?1clientscripts?1?$AA@	; `string'
PUBLIC	__$ArrayPad$
PUBLIC	?UploadClientScript@@YAXPAVBitStream@RakNet@@PAUPacket@2@@Z ; UploadClientScript
EXTRN	?onInit@CScripts@@QAEXH@Z:PROC			; CScripts::onInit
EXTRN	?LoadScript@CScripts@@QAEHPBD@Z:PROC		; CScripts::LoadScript
EXTRN	?pScripts@@3PAVCScripts@@A:DWORD		; pScripts
EXTRN	_fclose:PROC
EXTRN	_ftell:PROC
EXTRN	_fseek:PROC
EXTRN	_rewind:PROC
EXTRN	_fprintf:PROC
EXTRN	_fopen:PROC
EXTRN	??_U@YAPAXI@Z:PROC				; operator new[]
EXTRN	___CxxFrameHandler3:PROC
;	COMDAT ??_C@_02DKCKIIND@?$CFs?$AA@
CONST	SEGMENT
??_C@_02DKCKIIND@?$CFs?$AA@ DB '%s', 00H		; `string'
CONST	ENDS
;	COMDAT ??_C@_02GMLFBBN@wb?$AA@
CONST	SEGMENT
??_C@_02GMLFBBN@wb?$AA@ DB 'wb', 00H			; `string'
CONST	ENDS
;	COMDAT ??_C@_0BE@ILADIHLB@vc?9p?1clientscripts?1?$AA@
CONST	SEGMENT
??_C@_0BE@ILADIHLB@vc?9p?1clientscripts?1?$AA@ DB 'vc-p/clientscripts/', 00H ; `string'
CONST	ENDS
;	COMDAT xdata$x
xdata$x	SEGMENT
__unwindtable$?UploadClientScript@@YAXPAVBitStream@RakNet@@PAUPacket@2@@Z DD 0ffffffffH
	DD	FLAT:__unwindfunclet$?UploadClientScript@@YAXPAVBitStream@RakNet@@PAUPacket@2@@Z$0
__ehfuncinfo$?UploadClientScript@@YAXPAVBitStream@RakNet@@PAUPacket@2@@Z DD 019930522H
	DD	01H
	DD	FLAT:__unwindtable$?UploadClientScript@@YAXPAVBitStream@RakNet@@PAUPacket@2@@Z
	DD	2 DUP(00H)
	DD	2 DUP(00H)
	DD	00H
	DD	01H
; Function compile flags: /Odtp /RTCsu /ZI
xdata$x	ENDS
;	COMDAT ?UploadClientScript@@YAXPAVBitStream@RakNet@@PAUPacket@2@@Z
_TEXT	SEGMENT
$T210433 = -604						; size = 4
_iSlot$209469 = -400					; size = 4
_length$209467 = -388					; size = 4
_f$ = -376						; size = 4
_szScript$ = -364					; size = 4
_str$ = -352						; size = 32
_szScriptName$ = -312					; size = 256
_uiScriptLength$ = -48					; size = 4
_uiLength$ = -36					; size = 4
_uiLengthName$ = -24					; size = 4
__$ArrayPad$ = -16					; size = 4
__$EHRec$ = -12						; size = 12
_bitStream$ = 8						; size = 4
_packet$ = 12						; size = 4
?UploadClientScript@@YAXPAVBitStream@RakNet@@PAUPacket@2@@Z PROC ; UploadClientScript, COMDAT

; 418  : {

	push	ebp
	mov	ebp, esp
	push	-1
	push	__ehhandler$?UploadClientScript@@YAXPAVBitStream@RakNet@@PAUPacket@2@@Z
	mov	eax, DWORD PTR fs:0
	push	eax
	sub	esp, 596				; 00000254H
	push	ebx
	push	esi
	push	edi
	lea	edi, DWORD PTR [ebp-608]
	mov	ecx, 149				; 00000095H
	mov	eax, -858993460				; ccccccccH
	rep stosd
	mov	eax, DWORD PTR ___security_cookie
	xor	eax, ebp
	mov	DWORD PTR __$ArrayPad$[ebp], eax
	push	eax
	lea	eax, DWORD PTR __$EHRec$[ebp]
	mov	DWORD PTR fs:0, eax

; 419  : 	long uiLengthName;
; 420  : 	long uiLength;
; 421  : 	long uiScriptLength;
; 422  : 	char szScriptName[256];
; 423  : 	std::string str = "vc-p/clientscripts/";

	push	OFFSET ??_C@_0BE@ILADIHLB@vc?9p?1clientscripts?1?$AA@
	lea	ecx, DWORD PTR _str$[ebp]
	call	??0?$basic_string@DU?$char_traits@D@std@@V?$allocator@D@2@@std@@QAE@PBD@Z ; std::basic_string<char,std::char_traits<char>,std::allocator<char> >::basic_string<char,std::char_traits<char>,std::allocator<char> >
	mov	DWORD PTR __$EHRec$[ebp+8], 0

; 424  : 
; 425  : 	bitStream->Read(uiLengthName);

	lea	eax, DWORD PTR _uiLengthName$[ebp]
	push	eax
	mov	ecx, DWORD PTR _bitStream$[ebp]
	call	??$Read@J@BitStream@RakNet@@QAE_NAAJ@Z	; RakNet::BitStream::Read<long>

; 426  : 	bitStream->Read(uiLength);

	lea	eax, DWORD PTR _uiLength$[ebp]
	push	eax
	mov	ecx, DWORD PTR _bitStream$[ebp]
	call	??$Read@J@BitStream@RakNet@@QAE_NAAJ@Z	; RakNet::BitStream::Read<long>

; 427  : 	bitStream->Read(uiScriptLength);

	lea	eax, DWORD PTR _uiScriptLength$[ebp]
	push	eax
	mov	ecx, DWORD PTR _bitStream$[ebp]
	call	??$Read@J@BitStream@RakNet@@QAE_NAAJ@Z	; RakNet::BitStream::Read<long>

; 428  : 
; 429  : 	char *szScript = new char[uiLength+1];

	mov	eax, DWORD PTR _uiLength$[ebp]
	add	eax, 1
	push	eax
	call	??_U@YAPAXI@Z				; operator new[]
	add	esp, 4
	mov	DWORD PTR $T210433[ebp], eax
	mov	ecx, DWORD PTR $T210433[ebp]
	mov	DWORD PTR _szScript$[ebp], ecx

; 430  : 	bitStream->Read(szScriptName, uiLengthName);

	mov	eax, DWORD PTR _uiLengthName$[ebp]
	push	eax
	lea	ecx, DWORD PTR _szScriptName$[ebp]
	push	ecx
	mov	ecx, DWORD PTR _bitStream$[ebp]
	call	?Read@BitStream@RakNet@@QAE_NPADI@Z	; RakNet::BitStream::Read

; 431  : 	bitStream->Read(szScript, uiLength);

	mov	eax, DWORD PTR _uiLength$[ebp]
	push	eax
	mov	ecx, DWORD PTR _szScript$[ebp]
	push	ecx
	mov	ecx, DWORD PTR _bitStream$[ebp]
	call	?Read@BitStream@RakNet@@QAE_NPADI@Z	; RakNet::BitStream::Read

; 432  : 
; 433  : 	szScriptName[uiLengthName] = '\0';

	mov	eax, DWORD PTR _uiLengthName$[ebp]
	mov	BYTE PTR _szScriptName$[ebp+eax], 0

; 434  : 	szScript[uiLength] = '\0';

	mov	eax, DWORD PTR _szScript$[ebp]
	add	eax, DWORD PTR _uiLength$[ebp]
	mov	BYTE PTR [eax], 0

; 435  : 	str.append(szScriptName);

	lea	eax, DWORD PTR _szScriptName$[ebp]
	push	eax
	lea	ecx, DWORD PTR _str$[ebp]
	call	?append@?$basic_string@DU?$char_traits@D@std@@V?$allocator@D@2@@std@@QAEAAV12@PBD@Z ; std::basic_string<char,std::char_traits<char>,std::allocator<char> >::append

; 436  : 
; 437  : 	FILE *f = fopen(str.c_str(), "wb");

	push	OFFSET ??_C@_02GMLFBBN@wb?$AA@
	lea	ecx, DWORD PTR _str$[ebp]
	call	?c_str@?$basic_string@DU?$char_traits@D@std@@V?$allocator@D@2@@std@@QBEPBDXZ ; std::basic_string<char,std::char_traits<char>,std::allocator<char> >::c_str
	push	eax
	call	_fopen
	add	esp, 8
	mov	DWORD PTR _f$[ebp], eax

; 438  : 	if(f)

	cmp	DWORD PTR _f$[ebp], 0
	je	$LN2@UploadClie

; 439  : 	{
; 440  : 		fprintf(f, "%s", szScript);

	mov	eax, DWORD PTR _szScript$[ebp]
	push	eax
	push	OFFSET ??_C@_02DKCKIIND@?$CFs?$AA@
	mov	ecx, DWORD PTR _f$[ebp]
	push	ecx
	call	_fprintf
	add	esp, 12					; 0000000cH

; 441  : 		rewind(f);

	mov	eax, DWORD PTR _f$[ebp]
	push	eax
	call	_rewind
	add	esp, 4

; 442  : 		fseek(f, 0, SEEK_END);

	push	2
	push	0
	mov	eax, DWORD PTR _f$[ebp]
	push	eax
	call	_fseek
	add	esp, 12					; 0000000cH

; 443  : 		long length = ftell(f);

	mov	eax, DWORD PTR _f$[ebp]
	push	eax
	call	_ftell
	add	esp, 4
	mov	DWORD PTR _length$209467[ebp], eax

; 444  : 		rewind(f);

	mov	eax, DWORD PTR _f$[ebp]
	push	eax
	call	_rewind
	add	esp, 4

; 445  : 		fclose(f);

	mov	eax, DWORD PTR _f$[ebp]
	push	eax
	call	_fclose
	add	esp, 4

; 446  : 		if(length >= uiScriptLength)

	mov	eax, DWORD PTR _length$209467[ebp]
	cmp	eax, DWORD PTR _uiScriptLength$[ebp]
	jl	SHORT $LN2@UploadClie

; 447  : 		{
; 448  : 			int iSlot = pScripts->LoadScript(szScriptName);

	lea	eax, DWORD PTR _szScriptName$[ebp]
	push	eax
	mov	ecx, DWORD PTR ?pScripts@@3PAVCScripts@@A ; pScripts
	call	?LoadScript@CScripts@@QAEHPBD@Z		; CScripts::LoadScript
	mov	DWORD PTR _iSlot$209469[ebp], eax

; 449  : 			pScripts->onInit(iSlot);

	mov	eax, DWORD PTR _iSlot$209469[ebp]
	push	eax
	mov	ecx, DWORD PTR ?pScripts@@3PAVCScripts@@A ; pScripts
	call	?onInit@CScripts@@QAEXH@Z		; CScripts::onInit
$LN2@UploadClie:

; 450  : 		}
; 451  : 	}
; 452  : }

	mov	DWORD PTR __$EHRec$[ebp+8], -1
	lea	ecx, DWORD PTR _str$[ebp]
	call	??1?$basic_string@DU?$char_traits@D@std@@V?$allocator@D@2@@std@@QAE@XZ ; std::basic_string<char,std::char_traits<char>,std::allocator<char> >::~basic_string<char,std::char_traits<char>,std::allocator<char> >
	push	edx
	mov	ecx, ebp
	push	eax
	lea	edx, DWORD PTR $LN13@UploadClie
	call	@_RTC_CheckStackVars@8
	pop	eax
	pop	edx
	mov	ecx, DWORD PTR __$EHRec$[ebp]
	mov	DWORD PTR fs:0, ecx
	pop	ecx
	pop	edi
	pop	esi
	pop	ebx
	mov	ecx, DWORD PTR __$ArrayPad$[ebp]
	xor	ecx, ebp
	call	@__security_check_cookie@4
	add	esp, 608				; 00000260H
	cmp	ebp, esp
	call	__RTC_CheckEsp
	mov	esp, ebp
	pop	ebp
	ret	0
$LN13@UploadClie:
	DD	5
	DD	$LN12@UploadClie
$LN12@UploadClie:
	DD	-24					; ffffffe8H
	DD	4
	DD	$LN6@UploadClie
	DD	-36					; ffffffdcH
	DD	4
	DD	$LN7@UploadClie
	DD	-48					; ffffffd0H
	DD	4
	DD	$LN8@UploadClie
	DD	-312					; fffffec8H
	DD	256					; 00000100H
	DD	$LN9@UploadClie
	DD	-352					; fffffea0H
	DD	32					; 00000020H
	DD	$LN10@UploadClie
$LN10@UploadClie:
	DB	115					; 00000073H
	DB	116					; 00000074H
	DB	114					; 00000072H
	DB	0
$LN9@UploadClie:
	DB	115					; 00000073H
	DB	122					; 0000007aH
	DB	83					; 00000053H
	DB	99					; 00000063H
	DB	114					; 00000072H
	DB	105					; 00000069H
	DB	112					; 00000070H
	DB	116					; 00000074H
	DB	78					; 0000004eH
	DB	97					; 00000061H
	DB	109					; 0000006dH
	DB	101					; 00000065H
	DB	0
$LN8@UploadClie:
	DB	117					; 00000075H
	DB	105					; 00000069H
	DB	83					; 00000053H
	DB	99					; 00000063H
	DB	114					; 00000072H
	DB	105					; 00000069H
	DB	112					; 00000070H
	DB	116					; 00000074H
	DB	76					; 0000004cH
	DB	101					; 00000065H
	DB	110					; 0000006eH
	DB	103					; 00000067H
	DB	116					; 00000074H
	DB	104					; 00000068H
	DB	0
$LN7@UploadClie:
	DB	117					; 00000075H
	DB	105					; 00000069H
	DB	76					; 0000004cH
	DB	101					; 00000065H
	DB	110					; 0000006eH
	DB	103					; 00000067H
	DB	116					; 00000074H
	DB	104					; 00000068H
	DB	0
$LN6@UploadClie:
	DB	117					; 00000075H
	DB	105					; 00000069H
	DB	76					; 0000004cH
	DB	101					; 00000065H
	DB	110					; 0000006eH
	DB	103					; 00000067H
	DB	116					; 00000074H
	DB	104					; 00000068H
	DB	78					; 0000004eH
	DB	97					; 00000061H
	DB	109					; 0000006dH
	DB	101					; 00000065H
	DB	0
_TEXT	ENDS
;	COMDAT text$x
text$x	SEGMENT
__unwindfunclet$?UploadClientScript@@YAXPAVBitStream@RakNet@@PAUPacket@2@@Z$0:
	lea	ecx, DWORD PTR _str$[ebp]
	jmp	??1?$basic_string@DU?$char_traits@D@std@@V?$allocator@D@2@@std@@QAE@XZ ; std::basic_string<char,std::char_traits<char>,std::allocator<char> >::~basic_string<char,std::char_traits<char>,std::allocator<char> >
__ehhandler$?UploadClientScript@@YAXPAVBitStream@RakNet@@PAUPacket@2@@Z:
	mov	edx, DWORD PTR [esp+8]
	lea	eax, DWORD PTR [edx+12]
	mov	ecx, DWORD PTR [edx-612]
	xor	ecx, eax
	call	@__security_check_cookie@4
	mov	ecx, DWORD PTR [edx-4]
	xor	ecx, eax
	call	@__security_check_cookie@4
	mov	eax, OFFSET __ehfuncinfo$?UploadClientScript@@YAXPAVBitStream@RakNet@@PAUPacket@2@@Z
	jmp	___CxxFrameHandler3
text$x	ENDS
?UploadClientScript@@YAXPAVBitStream@RakNet@@PAUPacket@2@@Z ENDP ; UploadClientScript
PUBLIC	??$Read@UVector3@@@BitStream@RakNet@@QAE_NAAUVector3@@@Z ; RakNet::BitStream::Read<Vector3>
PUBLIC	?GetObjectManager@CNetworkManager@@QAEPAVCObjectManager@@XZ ; CNetworkManager::GetObjectManager
PUBLIC	?ObjectSpawn@@YAXPAVBitStream@RakNet@@PAUPacket@2@@Z ; ObjectSpawn
EXTRN	?New@CObjectManager@@QAEHEHUVector3@@0@Z:PROC	; CObjectManager::New
; Function compile flags: /Odtp /RTCsu /ZI
;	COMDAT ?ObjectSpawn@@YAXPAVBitStream@RakNet@@PAUPacket@2@@Z
_TEXT	SEGMENT
_vecRot$ = -72						; size = 12
_vecPos$ = -52						; size = 12
_iModel$ = -32						; size = 4
_ObjectID$ = -17					; size = 1
_pObjectManager$ = -8					; size = 4
_bitStream$ = 8						; size = 4
_packet$ = 12						; size = 4
?ObjectSpawn@@YAXPAVBitStream@RakNet@@PAUPacket@2@@Z PROC ; ObjectSpawn, COMDAT

; 455  : {

	push	ebp
	mov	ebp, esp
	sub	esp, 268				; 0000010cH
	push	ebx
	push	esi
	push	edi
	lea	edi, DWORD PTR [ebp-268]
	mov	ecx, 67					; 00000043H
	mov	eax, -858993460				; ccccccccH
	rep stosd

; 456  : 	CObjectManager *pObjectManager = pNetowkManager->GetObjectManager();

	mov	ecx, DWORD PTR ?pNetowkManager@@3PAVCNetworkManager@@A ; pNetowkManager
	call	?GetObjectManager@CNetworkManager@@QAEPAVCObjectManager@@XZ ; CNetworkManager::GetObjectManager
	mov	DWORD PTR _pObjectManager$[ebp], eax

; 457  : 	EntityId ObjectID=0;

	mov	BYTE PTR _ObjectID$[ebp], 0

; 458  : 	int iModel;
; 459  : 	Vector3 vecPos, vecRot;

	lea	ecx, DWORD PTR _vecPos$[ebp]
	call	??0Vector3@@QAE@XZ			; Vector3::Vector3
	lea	ecx, DWORD PTR _vecRot$[ebp]
	call	??0Vector3@@QAE@XZ			; Vector3::Vector3

; 460  : 	bitStream->Read(ObjectID);

	lea	eax, DWORD PTR _ObjectID$[ebp]
	push	eax
	mov	ecx, DWORD PTR _bitStream$[ebp]
	call	??$Read@E@BitStream@RakNet@@QAE_NAAE@Z	; RakNet::BitStream::Read<unsigned char>

; 461  : 	bitStream->Read(iModel);

	lea	eax, DWORD PTR _iModel$[ebp]
	push	eax
	mov	ecx, DWORD PTR _bitStream$[ebp]
	call	??$Read@H@BitStream@RakNet@@QAE_NAAH@Z	; RakNet::BitStream::Read<int>

; 462  : 	bitStream->Read(vecPos);

	lea	eax, DWORD PTR _vecPos$[ebp]
	push	eax
	mov	ecx, DWORD PTR _bitStream$[ebp]
	call	??$Read@UVector3@@@BitStream@RakNet@@QAE_NAAUVector3@@@Z ; RakNet::BitStream::Read<Vector3>

; 463  : 	bitStream->Read(vecRot);

	lea	eax, DWORD PTR _vecRot$[ebp]
	push	eax
	mov	ecx, DWORD PTR _bitStream$[ebp]
	call	??$Read@UVector3@@@BitStream@RakNet@@QAE_NAAUVector3@@@Z ; RakNet::BitStream::Read<Vector3>

; 464  : 
; 465  : 	pObjectManager->New(ObjectID, iModel, vecPos, vecRot);

	sub	esp, 12					; 0000000cH
	mov	eax, esp
	mov	ecx, DWORD PTR _vecRot$[ebp]
	mov	DWORD PTR [eax], ecx
	mov	edx, DWORD PTR _vecRot$[ebp+4]
	mov	DWORD PTR [eax+4], edx
	mov	ecx, DWORD PTR _vecRot$[ebp+8]
	mov	DWORD PTR [eax+8], ecx
	sub	esp, 12					; 0000000cH
	mov	edx, esp
	mov	eax, DWORD PTR _vecPos$[ebp]
	mov	DWORD PTR [edx], eax
	mov	ecx, DWORD PTR _vecPos$[ebp+4]
	mov	DWORD PTR [edx+4], ecx
	mov	eax, DWORD PTR _vecPos$[ebp+8]
	mov	DWORD PTR [edx+8], eax
	mov	ecx, DWORD PTR _iModel$[ebp]
	push	ecx
	movzx	edx, BYTE PTR _ObjectID$[ebp]
	push	edx
	mov	ecx, DWORD PTR _pObjectManager$[ebp]
	call	?New@CObjectManager@@QAEHEHUVector3@@0@Z ; CObjectManager::New

; 466  : }

	push	edx
	mov	ecx, ebp
	push	eax
	lea	edx, DWORD PTR $LN8@ObjectSpaw
	call	@_RTC_CheckStackVars@8
	pop	eax
	pop	edx
	pop	edi
	pop	esi
	pop	ebx
	add	esp, 268				; 0000010cH
	cmp	ebp, esp
	call	__RTC_CheckEsp
	mov	esp, ebp
	pop	ebp
	ret	0
	npad	2
$LN8@ObjectSpaw:
	DD	4
	DD	$LN7@ObjectSpaw
$LN7@ObjectSpaw:
	DD	-17					; ffffffefH
	DD	1
	DD	$LN3@ObjectSpaw
	DD	-32					; ffffffe0H
	DD	4
	DD	$LN4@ObjectSpaw
	DD	-52					; ffffffccH
	DD	12					; 0000000cH
	DD	$LN5@ObjectSpaw
	DD	-72					; ffffffb8H
	DD	12					; 0000000cH
	DD	$LN6@ObjectSpaw
$LN6@ObjectSpaw:
	DB	118					; 00000076H
	DB	101					; 00000065H
	DB	99					; 00000063H
	DB	82					; 00000052H
	DB	111					; 0000006fH
	DB	116					; 00000074H
	DB	0
$LN5@ObjectSpaw:
	DB	118					; 00000076H
	DB	101					; 00000065H
	DB	99					; 00000063H
	DB	80					; 00000050H
	DB	111					; 0000006fH
	DB	115					; 00000073H
	DB	0
$LN4@ObjectSpaw:
	DB	105					; 00000069H
	DB	77					; 0000004dH
	DB	111					; 0000006fH
	DB	100					; 00000064H
	DB	101					; 00000065H
	DB	108					; 0000006cH
	DB	0
$LN3@ObjectSpaw:
	DB	79					; 0000004fH
	DB	98					; 00000062H
	DB	106					; 0000006aH
	DB	101					; 00000065H
	DB	99					; 00000063H
	DB	116					; 00000074H
	DB	73					; 00000049H
	DB	68					; 00000044H
	DB	0
?ObjectSpawn@@YAXPAVBitStream@RakNet@@PAUPacket@2@@Z ENDP ; ObjectSpawn
_TEXT	ENDS
PUBLIC	?ObjectDestroy@@YAXPAVBitStream@RakNet@@PAUPacket@2@@Z ; ObjectDestroy
EXTRN	?Delete@CObjectManager@@QAEHE@Z:PROC		; CObjectManager::Delete
; Function compile flags: /Odtp /RTCsu /ZI
;	COMDAT ?ObjectDestroy@@YAXPAVBitStream@RakNet@@PAUPacket@2@@Z
_TEXT	SEGMENT
_objId$ = -17						; size = 1
_pObjectManager$ = -8					; size = 4
_bitStream$ = 8						; size = 4
_packet$ = 12						; size = 4
?ObjectDestroy@@YAXPAVBitStream@RakNet@@PAUPacket@2@@Z PROC ; ObjectDestroy, COMDAT

; 469  : {

	push	ebp
	mov	ebp, esp
	sub	esp, 216				; 000000d8H
	push	ebx
	push	esi
	push	edi
	lea	edi, DWORD PTR [ebp-216]
	mov	ecx, 54					; 00000036H
	mov	eax, -858993460				; ccccccccH
	rep stosd

; 470  : 	CObjectManager *pObjectManager = pNetowkManager->GetObjectManager();

	mov	ecx, DWORD PTR ?pNetowkManager@@3PAVCNetworkManager@@A ; pNetowkManager
	call	?GetObjectManager@CNetworkManager@@QAEPAVCObjectManager@@XZ ; CNetworkManager::GetObjectManager
	mov	DWORD PTR _pObjectManager$[ebp], eax

; 471  : 	EntityId objId=0;

	mov	BYTE PTR _objId$[ebp], 0

; 472  : 
; 473  : 	bitStream->Read(objId);

	lea	eax, DWORD PTR _objId$[ebp]
	push	eax
	mov	ecx, DWORD PTR _bitStream$[ebp]
	call	??$Read@E@BitStream@RakNet@@QAE_NAAE@Z	; RakNet::BitStream::Read<unsigned char>

; 474  : 
; 475  : 	pObjectManager->Delete(objId);

	movzx	eax, BYTE PTR _objId$[ebp]
	push	eax
	mov	ecx, DWORD PTR _pObjectManager$[ebp]
	call	?Delete@CObjectManager@@QAEHE@Z		; CObjectManager::Delete

; 476  : }

	push	edx
	mov	ecx, ebp
	push	eax
	lea	edx, DWORD PTR $LN5@ObjectDest
	call	@_RTC_CheckStackVars@8
	pop	eax
	pop	edx
	pop	edi
	pop	esi
	pop	ebx
	add	esp, 216				; 000000d8H
	cmp	ebp, esp
	call	__RTC_CheckEsp
	mov	esp, ebp
	pop	ebp
	ret	0
	npad	2
$LN5@ObjectDest:
	DD	1
	DD	$LN4@ObjectDest
$LN4@ObjectDest:
	DD	-17					; ffffffefH
	DD	1
	DD	$LN3@ObjectDest
$LN3@ObjectDest:
	DB	111					; 0000006fH
	DB	98					; 00000062H
	DB	106					; 0000006aH
	DB	73					; 00000049H
	DB	100					; 00000064H
	DB	0
?ObjectDestroy@@YAXPAVBitStream@RakNet@@PAUPacket@2@@Z ENDP ; ObjectDestroy
_TEXT	ENDS
PUBLIC	?GetPickupManager@CNetworkManager@@QAEPAVCPickupManager@@XZ ; CNetworkManager::GetPickupManager
PUBLIC	?PickupSpawn@@YAXPAVBitStream@RakNet@@PAUPacket@2@@Z ; PickupSpawn
EXTRN	?New@CPickupManager@@QAE_NEHHPAUVector3@@@Z:PROC ; CPickupManager::New
; Function compile flags: /Odtp /RTCsu /ZI
;	COMDAT ?PickupSpawn@@YAXPAVBitStream@RakNet@@PAUPacket@2@@Z
_TEXT	SEGMENT
_vecPos$ = -64						; size = 12
_iType$ = -44						; size = 4
_iModel$ = -32						; size = 4
_PickupID$ = -17					; size = 1
_pPickupManager$ = -8					; size = 4
_bitStream$ = 8						; size = 4
_packet$ = 12						; size = 4
?PickupSpawn@@YAXPAVBitStream@RakNet@@PAUPacket@2@@Z PROC ; PickupSpawn, COMDAT

; 479  : {

	push	ebp
	mov	ebp, esp
	sub	esp, 260				; 00000104H
	push	ebx
	push	esi
	push	edi
	lea	edi, DWORD PTR [ebp-260]
	mov	ecx, 65					; 00000041H
	mov	eax, -858993460				; ccccccccH
	rep stosd

; 480  : 	CPickupManager *pPickupManager = pNetowkManager->GetPickupManager();

	mov	ecx, DWORD PTR ?pNetowkManager@@3PAVCNetworkManager@@A ; pNetowkManager
	call	?GetPickupManager@CNetworkManager@@QAEPAVCPickupManager@@XZ ; CNetworkManager::GetPickupManager
	mov	DWORD PTR _pPickupManager$[ebp], eax

; 481  : 	EntityId PickupID=0;

	mov	BYTE PTR _PickupID$[ebp], 0

; 482  : 	int iModel, iType;
; 483  : 	Vector3 vecPos;

	lea	ecx, DWORD PTR _vecPos$[ebp]
	call	??0Vector3@@QAE@XZ			; Vector3::Vector3

; 484  : 	bitStream->Read(PickupID);

	lea	eax, DWORD PTR _PickupID$[ebp]
	push	eax
	mov	ecx, DWORD PTR _bitStream$[ebp]
	call	??$Read@E@BitStream@RakNet@@QAE_NAAE@Z	; RakNet::BitStream::Read<unsigned char>

; 485  : 	bitStream->Read(iModel);

	lea	eax, DWORD PTR _iModel$[ebp]
	push	eax
	mov	ecx, DWORD PTR _bitStream$[ebp]
	call	??$Read@H@BitStream@RakNet@@QAE_NAAH@Z	; RakNet::BitStream::Read<int>

; 486  : 	bitStream->Read(iType);

	lea	eax, DWORD PTR _iType$[ebp]
	push	eax
	mov	ecx, DWORD PTR _bitStream$[ebp]
	call	??$Read@H@BitStream@RakNet@@QAE_NAAH@Z	; RakNet::BitStream::Read<int>

; 487  : 	bitStream->Read((char*)&vecPos, sizeof(Vector3));

	push	12					; 0000000cH
	lea	eax, DWORD PTR _vecPos$[ebp]
	push	eax
	mov	ecx, DWORD PTR _bitStream$[ebp]
	call	?Read@BitStream@RakNet@@QAE_NPADI@Z	; RakNet::BitStream::Read

; 488  : 
; 489  : 	pPickupManager->New(PickupID, iModel, iType, &vecPos);

	lea	eax, DWORD PTR _vecPos$[ebp]
	push	eax
	mov	ecx, DWORD PTR _iType$[ebp]
	push	ecx
	mov	edx, DWORD PTR _iModel$[ebp]
	push	edx
	movzx	eax, BYTE PTR _PickupID$[ebp]
	push	eax
	mov	ecx, DWORD PTR _pPickupManager$[ebp]
	call	?New@CPickupManager@@QAE_NEHHPAUVector3@@@Z ; CPickupManager::New

; 490  : }

	push	edx
	mov	ecx, ebp
	push	eax
	lea	edx, DWORD PTR $LN8@PickupSpaw
	call	@_RTC_CheckStackVars@8
	pop	eax
	pop	edx
	pop	edi
	pop	esi
	pop	ebx
	add	esp, 260				; 00000104H
	cmp	ebp, esp
	call	__RTC_CheckEsp
	mov	esp, ebp
	pop	ebp
	ret	0
$LN8@PickupSpaw:
	DD	4
	DD	$LN7@PickupSpaw
$LN7@PickupSpaw:
	DD	-17					; ffffffefH
	DD	1
	DD	$LN3@PickupSpaw
	DD	-32					; ffffffe0H
	DD	4
	DD	$LN4@PickupSpaw
	DD	-44					; ffffffd4H
	DD	4
	DD	$LN5@PickupSpaw
	DD	-64					; ffffffc0H
	DD	12					; 0000000cH
	DD	$LN6@PickupSpaw
$LN6@PickupSpaw:
	DB	118					; 00000076H
	DB	101					; 00000065H
	DB	99					; 00000063H
	DB	80					; 00000050H
	DB	111					; 0000006fH
	DB	115					; 00000073H
	DB	0
$LN5@PickupSpaw:
	DB	105					; 00000069H
	DB	84					; 00000054H
	DB	121					; 00000079H
	DB	112					; 00000070H
	DB	101					; 00000065H
	DB	0
$LN4@PickupSpaw:
	DB	105					; 00000069H
	DB	77					; 0000004dH
	DB	111					; 0000006fH
	DB	100					; 00000064H
	DB	101					; 00000065H
	DB	108					; 0000006cH
	DB	0
$LN3@PickupSpaw:
	DB	80					; 00000050H
	DB	105					; 00000069H
	DB	99					; 00000063H
	DB	107					; 0000006bH
	DB	117					; 00000075H
	DB	112					; 00000070H
	DB	73					; 00000049H
	DB	68					; 00000044H
	DB	0
?PickupSpawn@@YAXPAVBitStream@RakNet@@PAUPacket@2@@Z ENDP ; PickupSpawn
_TEXT	ENDS
PUBLIC	?PickupDestroy@@YAXPAVBitStream@RakNet@@PAUPacket@2@@Z ; PickupDestroy
EXTRN	?Delete@CPickupManager@@QAE_NE@Z:PROC		; CPickupManager::Delete
; Function compile flags: /Odtp /RTCsu /ZI
;	COMDAT ?PickupDestroy@@YAXPAVBitStream@RakNet@@PAUPacket@2@@Z
_TEXT	SEGMENT
_PickupID$ = -17					; size = 1
_pPickupManager$ = -8					; size = 4
_bitStream$ = 8						; size = 4
_packet$ = 12						; size = 4
?PickupDestroy@@YAXPAVBitStream@RakNet@@PAUPacket@2@@Z PROC ; PickupDestroy, COMDAT

; 493  : {

	push	ebp
	mov	ebp, esp
	sub	esp, 216				; 000000d8H
	push	ebx
	push	esi
	push	edi
	lea	edi, DWORD PTR [ebp-216]
	mov	ecx, 54					; 00000036H
	mov	eax, -858993460				; ccccccccH
	rep stosd

; 494  : 	CPickupManager *pPickupManager = pNetowkManager->GetPickupManager();

	mov	ecx, DWORD PTR ?pNetowkManager@@3PAVCNetworkManager@@A ; pNetowkManager
	call	?GetPickupManager@CNetworkManager@@QAEPAVCPickupManager@@XZ ; CNetworkManager::GetPickupManager
	mov	DWORD PTR _pPickupManager$[ebp], eax

; 495  : 	EntityId PickupID=0;

	mov	BYTE PTR _PickupID$[ebp], 0

; 496  : 
; 497  : 	bitStream->Read(PickupID);

	lea	eax, DWORD PTR _PickupID$[ebp]
	push	eax
	mov	ecx, DWORD PTR _bitStream$[ebp]
	call	??$Read@E@BitStream@RakNet@@QAE_NAAE@Z	; RakNet::BitStream::Read<unsigned char>

; 498  : 
; 499  : 	pPickupManager->Delete(PickupID);

	movzx	eax, BYTE PTR _PickupID$[ebp]
	push	eax
	mov	ecx, DWORD PTR _pPickupManager$[ebp]
	call	?Delete@CPickupManager@@QAE_NE@Z	; CPickupManager::Delete

; 500  : }

	push	edx
	mov	ecx, ebp
	push	eax
	lea	edx, DWORD PTR $LN5@PickupDest
	call	@_RTC_CheckStackVars@8
	pop	eax
	pop	edx
	pop	edi
	pop	esi
	pop	ebx
	add	esp, 216				; 000000d8H
	cmp	ebp, esp
	call	__RTC_CheckEsp
	mov	esp, ebp
	pop	ebp
	ret	0
	npad	2
$LN5@PickupDest:
	DD	1
	DD	$LN4@PickupDest
$LN4@PickupDest:
	DD	-17					; ffffffefH
	DD	1
	DD	$LN3@PickupDest
$LN3@PickupDest:
	DB	80					; 00000050H
	DB	105					; 00000069H
	DB	99					; 00000063H
	DB	107					; 0000006bH
	DB	117					; 00000075H
	DB	112					; 00000070H
	DB	73					; 00000049H
	DB	68					; 00000044H
	DB	0
?PickupDestroy@@YAXPAVBitStream@RakNet@@PAUPacket@2@@Z ENDP ; PickupDestroy
_TEXT	ENDS
PUBLIC	?FindPlayerPed@CGame@@QAEPAVCPlayerPed@@XZ	; CGame::FindPlayerPed
PUBLIC	?Script_SetHealth@@YAXPAVBitStream@RakNet@@PAUPacket@2@@Z ; Script_SetHealth
EXTRN	?SetHealth@CPlayerPed@@QAEXM@Z:PROC		; CPlayerPed::SetHealth
; Function compile flags: /Odtp /RTCsu /ZI
;	COMDAT ?Script_SetHealth@@YAXPAVBitStream@RakNet@@PAUPacket@2@@Z
_TEXT	SEGMENT
_playerHealth$ = -20					; size = 4
_pPlayer$ = -8						; size = 4
_bitStream$ = 8						; size = 4
_packet$ = 12						; size = 4
?Script_SetHealth@@YAXPAVBitStream@RakNet@@PAUPacket@2@@Z PROC ; Script_SetHealth, COMDAT

; 507  : {

	push	ebp
	mov	ebp, esp
	sub	esp, 216				; 000000d8H
	push	ebx
	push	esi
	push	edi
	lea	edi, DWORD PTR [ebp-216]
	mov	ecx, 54					; 00000036H
	mov	eax, -858993460				; ccccccccH
	rep stosd

; 508  : 	CPlayerPed *pPlayer = pGame->FindPlayerPed();

	mov	ecx, DWORD PTR ?pGame@@3PAVCGame@@A	; pGame
	call	?FindPlayerPed@CGame@@QAEPAVCPlayerPed@@XZ ; CGame::FindPlayerPed
	mov	DWORD PTR _pPlayer$[ebp], eax

; 509  : 
; 510  : 	float playerHealth;
; 511  : 
; 512  : 	bitStream->Read(playerHealth);

	lea	eax, DWORD PTR _playerHealth$[ebp]
	push	eax
	mov	ecx, DWORD PTR _bitStream$[ebp]
	call	??$Read@M@BitStream@RakNet@@QAE_NAAM@Z	; RakNet::BitStream::Read<float>

; 513  : 
; 514  : 	pPlayer->SetHealth(playerHealth);

	push	ecx
	fld	DWORD PTR _playerHealth$[ebp]
	fstp	DWORD PTR [esp]
	mov	ecx, DWORD PTR _pPlayer$[ebp]
	call	?SetHealth@CPlayerPed@@QAEXM@Z		; CPlayerPed::SetHealth

; 515  : }

	push	edx
	mov	ecx, ebp
	push	eax
	lea	edx, DWORD PTR $LN5@Script_Set
	call	@_RTC_CheckStackVars@8
	pop	eax
	pop	edx
	pop	edi
	pop	esi
	pop	ebx
	add	esp, 216				; 000000d8H
	cmp	ebp, esp
	call	__RTC_CheckEsp
	mov	esp, ebp
	pop	ebp
	ret	0
$LN5@Script_Set:
	DD	1
	DD	$LN4@Script_Set
$LN4@Script_Set:
	DD	-20					; ffffffecH
	DD	4
	DD	$LN3@Script_Set
$LN3@Script_Set:
	DB	112					; 00000070H
	DB	108					; 0000006cH
	DB	97					; 00000061H
	DB	121					; 00000079H
	DB	101					; 00000065H
	DB	114					; 00000072H
	DB	72					; 00000048H
	DB	101					; 00000065H
	DB	97					; 00000061H
	DB	108					; 0000006cH
	DB	116					; 00000074H
	DB	104					; 00000068H
	DB	0
?Script_SetHealth@@YAXPAVBitStream@RakNet@@PAUPacket@2@@Z ENDP ; Script_SetHealth
_TEXT	ENDS
PUBLIC	?GetAt@CVehicleManager@@QAEPAVCVehicle@@E@Z	; CVehicleManager::GetAt
PUBLIC	?Script_SetVehicleHealth@@YAXPAVBitStream@RakNet@@PAUPacket@2@@Z ; Script_SetVehicleHealth
EXTRN	?SetHealth@CVehicle@@QAEXM@Z:PROC		; CVehicle::SetHealth
; Function compile flags: /Odtp /RTCsu /ZI
;	COMDAT ?Script_SetVehicleHealth@@YAXPAVBitStream@RakNet@@PAUPacket@2@@Z
_TEXT	SEGMENT
_pVehicle$ = -32					; size = 4
_newHealth$ = -20					; size = 4
_vehicle$ = -5						; size = 1
_bitStream$ = 8						; size = 4
_packet$ = 12						; size = 4
?Script_SetVehicleHealth@@YAXPAVBitStream@RakNet@@PAUPacket@2@@Z PROC ; Script_SetVehicleHealth, COMDAT

; 519  : {

	push	ebp
	mov	ebp, esp
	sub	esp, 228				; 000000e4H
	push	ebx
	push	esi
	push	edi
	lea	edi, DWORD PTR [ebp-228]
	mov	ecx, 57					; 00000039H
	mov	eax, -858993460				; ccccccccH
	rep stosd

; 520  : 	BYTE vehicle;
; 521  : 	float newHealth;
; 522  : 	bitStream->Read(vehicle);

	lea	eax, DWORD PTR _vehicle$[ebp]
	push	eax
	mov	ecx, DWORD PTR _bitStream$[ebp]
	call	??$Read@E@BitStream@RakNet@@QAE_NAAE@Z	; RakNet::BitStream::Read<unsigned char>

; 523  : 	bitStream->Read(newHealth);

	lea	eax, DWORD PTR _newHealth$[ebp]
	push	eax
	mov	ecx, DWORD PTR _bitStream$[ebp]
	call	??$Read@M@BitStream@RakNet@@QAE_NAAM@Z	; RakNet::BitStream::Read<float>

; 524  : 	
; 525  : 	CVehicle *pVehicle = pNetowkManager->GetVehicleManager()->GetAt(vehicle);

	movzx	eax, BYTE PTR _vehicle$[ebp]
	push	eax
	mov	ecx, DWORD PTR ?pNetowkManager@@3PAVCNetworkManager@@A ; pNetowkManager
	call	?GetVehicleManager@CNetworkManager@@QAEPAVCVehicleManager@@XZ ; CNetworkManager::GetVehicleManager
	mov	ecx, eax
	call	?GetAt@CVehicleManager@@QAEPAVCVehicle@@E@Z ; CVehicleManager::GetAt
	mov	DWORD PTR _pVehicle$[ebp], eax

; 526  : 	pVehicle->SetHealth(newHealth);

	push	ecx
	fld	DWORD PTR _newHealth$[ebp]
	fstp	DWORD PTR [esp]
	mov	ecx, DWORD PTR _pVehicle$[ebp]
	call	?SetHealth@CVehicle@@QAEXM@Z		; CVehicle::SetHealth

; 527  : }

	push	edx
	mov	ecx, ebp
	push	eax
	lea	edx, DWORD PTR $LN6@Script_Set@2
	call	@_RTC_CheckStackVars@8
	pop	eax
	pop	edx
	pop	edi
	pop	esi
	pop	ebx
	add	esp, 228				; 000000e4H
	cmp	ebp, esp
	call	__RTC_CheckEsp
	mov	esp, ebp
	pop	ebp
	ret	0
$LN6@Script_Set@2:
	DD	2
	DD	$LN5@Script_Set@2
$LN5@Script_Set@2:
	DD	-5					; fffffffbH
	DD	1
	DD	$LN3@Script_Set@2
	DD	-20					; ffffffecH
	DD	4
	DD	$LN4@Script_Set@2
$LN4@Script_Set@2:
	DB	110					; 0000006eH
	DB	101					; 00000065H
	DB	119					; 00000077H
	DB	72					; 00000048H
	DB	101					; 00000065H
	DB	97					; 00000061H
	DB	108					; 0000006cH
	DB	116					; 00000074H
	DB	104					; 00000068H
	DB	0
$LN3@Script_Set@2:
	DB	118					; 00000076H
	DB	101					; 00000065H
	DB	104					; 00000068H
	DB	105					; 00000069H
	DB	99					; 00000063H
	DB	108					; 0000006cH
	DB	101					; 00000065H
	DB	0
?Script_SetVehicleHealth@@YAXPAVBitStream@RakNet@@PAUPacket@2@@Z ENDP ; Script_SetVehicleHealth
_TEXT	ENDS
PUBLIC	?Script_SetArmour@@YAXPAVBitStream@RakNet@@PAUPacket@2@@Z ; Script_SetArmour
EXTRN	?SetArmour@CPlayerPed@@QAEXM@Z:PROC		; CPlayerPed::SetArmour
; Function compile flags: /Odtp /RTCsu /ZI
;	COMDAT ?Script_SetArmour@@YAXPAVBitStream@RakNet@@PAUPacket@2@@Z
_TEXT	SEGMENT
_playerArmour$ = -20					; size = 4
_pPlayer$ = -8						; size = 4
_bitStream$ = 8						; size = 4
_packet$ = 12						; size = 4
?Script_SetArmour@@YAXPAVBitStream@RakNet@@PAUPacket@2@@Z PROC ; Script_SetArmour, COMDAT

; 531  : {

	push	ebp
	mov	ebp, esp
	sub	esp, 216				; 000000d8H
	push	ebx
	push	esi
	push	edi
	lea	edi, DWORD PTR [ebp-216]
	mov	ecx, 54					; 00000036H
	mov	eax, -858993460				; ccccccccH
	rep stosd

; 532  : 	CPlayerPed *pPlayer = pGame->FindPlayerPed();

	mov	ecx, DWORD PTR ?pGame@@3PAVCGame@@A	; pGame
	call	?FindPlayerPed@CGame@@QAEPAVCPlayerPed@@XZ ; CGame::FindPlayerPed
	mov	DWORD PTR _pPlayer$[ebp], eax

; 533  : 
; 534  : 	float playerArmour;
; 535  : 
; 536  : 	bitStream->Read(playerArmour);

	lea	eax, DWORD PTR _playerArmour$[ebp]
	push	eax
	mov	ecx, DWORD PTR _bitStream$[ebp]
	call	??$Read@M@BitStream@RakNet@@QAE_NAAM@Z	; RakNet::BitStream::Read<float>

; 537  : 
; 538  : 	pPlayer->SetArmour(playerArmour);

	push	ecx
	fld	DWORD PTR _playerArmour$[ebp]
	fstp	DWORD PTR [esp]
	mov	ecx, DWORD PTR _pPlayer$[ebp]
	call	?SetArmour@CPlayerPed@@QAEXM@Z		; CPlayerPed::SetArmour

; 539  : }

	push	edx
	mov	ecx, ebp
	push	eax
	lea	edx, DWORD PTR $LN5@Script_Set@3
	call	@_RTC_CheckStackVars@8
	pop	eax
	pop	edx
	pop	edi
	pop	esi
	pop	ebx
	add	esp, 216				; 000000d8H
	cmp	ebp, esp
	call	__RTC_CheckEsp
	mov	esp, ebp
	pop	ebp
	ret	0
$LN5@Script_Set@3:
	DD	1
	DD	$LN4@Script_Set@3
$LN4@Script_Set@3:
	DD	-20					; ffffffecH
	DD	4
	DD	$LN3@Script_Set@3
$LN3@Script_Set@3:
	DB	112					; 00000070H
	DB	108					; 0000006cH
	DB	97					; 00000061H
	DB	121					; 00000079H
	DB	101					; 00000065H
	DB	114					; 00000072H
	DB	65					; 00000041H
	DB	114					; 00000072H
	DB	109					; 0000006dH
	DB	111					; 0000006fH
	DB	117					; 00000075H
	DB	114					; 00000072H
	DB	0
?Script_SetArmour@@YAXPAVBitStream@RakNet@@PAUPacket@2@@Z ENDP ; Script_SetArmour
_TEXT	ENDS
PUBLIC	?Script_SetPos@@YAXPAVBitStream@RakNet@@PAUPacket@2@@Z ; Script_SetPos
EXTRN	?Teleport@CEntity@@QAEXMMM@Z:PROC		; CEntity::Teleport
; Function compile flags: /Odtp /RTCsu /ZI
;	COMDAT ?Script_SetPos@@YAXPAVBitStream@RakNet@@PAUPacket@2@@Z
_TEXT	SEGMENT
_playerPos$ = -28					; size = 12
_pPlayer$ = -8						; size = 4
_bitStream$ = 8						; size = 4
_packet$ = 12						; size = 4
?Script_SetPos@@YAXPAVBitStream@RakNet@@PAUPacket@2@@Z PROC ; Script_SetPos, COMDAT

; 543  : {

	push	ebp
	mov	ebp, esp
	sub	esp, 224				; 000000e0H
	push	ebx
	push	esi
	push	edi
	lea	edi, DWORD PTR [ebp-224]
	mov	ecx, 56					; 00000038H
	mov	eax, -858993460				; ccccccccH
	rep stosd

; 544  : 	CPlayerPed *pPlayer = pGame->FindPlayerPed();

	mov	ecx, DWORD PTR ?pGame@@3PAVCGame@@A	; pGame
	call	?FindPlayerPed@CGame@@QAEPAVCPlayerPed@@XZ ; CGame::FindPlayerPed
	mov	DWORD PTR _pPlayer$[ebp], eax

; 545  : 
; 546  : 	Vector3 playerPos;

	lea	ecx, DWORD PTR _playerPos$[ebp]
	call	??0Vector3@@QAE@XZ			; Vector3::Vector3

; 547  : 
; 548  : 	bitStream->Read((char *)&playerPos, sizeof(Vector3));

	push	12					; 0000000cH
	lea	eax, DWORD PTR _playerPos$[ebp]
	push	eax
	mov	ecx, DWORD PTR _bitStream$[ebp]
	call	?Read@BitStream@RakNet@@QAE_NPADI@Z	; RakNet::BitStream::Read

; 549  : 
; 550  : 	pPlayer->Teleport(playerPos.X, playerPos.Y, playerPos.Z);

	push	ecx
	fld	DWORD PTR _playerPos$[ebp+8]
	fstp	DWORD PTR [esp]
	push	ecx
	fld	DWORD PTR _playerPos$[ebp+4]
	fstp	DWORD PTR [esp]
	push	ecx
	fld	DWORD PTR _playerPos$[ebp]
	fstp	DWORD PTR [esp]
	mov	ecx, DWORD PTR _pPlayer$[ebp]
	call	?Teleport@CEntity@@QAEXMMM@Z		; CEntity::Teleport

; 551  : }

	push	edx
	mov	ecx, ebp
	push	eax
	lea	edx, DWORD PTR $LN5@Script_Set@4
	call	@_RTC_CheckStackVars@8
	pop	eax
	pop	edx
	pop	edi
	pop	esi
	pop	ebx
	add	esp, 224				; 000000e0H
	cmp	ebp, esp
	call	__RTC_CheckEsp
	mov	esp, ebp
	pop	ebp
	ret	0
$LN5@Script_Set@4:
	DD	1
	DD	$LN4@Script_Set@4
$LN4@Script_Set@4:
	DD	-28					; ffffffe4H
	DD	12					; 0000000cH
	DD	$LN3@Script_Set@4
$LN3@Script_Set@4:
	DB	112					; 00000070H
	DB	108					; 0000006cH
	DB	97					; 00000061H
	DB	121					; 00000079H
	DB	101					; 00000065H
	DB	114					; 00000072H
	DB	80					; 00000050H
	DB	111					; 0000006fH
	DB	115					; 00000073H
	DB	0
?Script_SetPos@@YAXPAVBitStream@RakNet@@PAUPacket@2@@Z ENDP ; Script_SetPos
_TEXT	ENDS
PUBLIC	?Script_SetTurnSpeed@@YAXPAVBitStream@RakNet@@PAUPacket@2@@Z ; Script_SetTurnSpeed
EXTRN	?SetTurnSpeed@CPhysical@@QAEXUVector3@@@Z:PROC	; CPhysical::SetTurnSpeed
; Function compile flags: /Odtp /RTCsu /ZI
;	COMDAT ?Script_SetTurnSpeed@@YAXPAVBitStream@RakNet@@PAUPacket@2@@Z
_TEXT	SEGMENT
_speed$ = -28						; size = 12
_pPlayer$ = -8						; size = 4
_bitStream$ = 8						; size = 4
_packet$ = 12						; size = 4
?Script_SetTurnSpeed@@YAXPAVBitStream@RakNet@@PAUPacket@2@@Z PROC ; Script_SetTurnSpeed, COMDAT

; 555  : {

	push	ebp
	mov	ebp, esp
	sub	esp, 224				; 000000e0H
	push	ebx
	push	esi
	push	edi
	lea	edi, DWORD PTR [ebp-224]
	mov	ecx, 56					; 00000038H
	mov	eax, -858993460				; ccccccccH
	rep stosd

; 556  : 	CPlayerPed *pPlayer = pGame->FindPlayerPed();

	mov	ecx, DWORD PTR ?pGame@@3PAVCGame@@A	; pGame
	call	?FindPlayerPed@CGame@@QAEPAVCPlayerPed@@XZ ; CGame::FindPlayerPed
	mov	DWORD PTR _pPlayer$[ebp], eax

; 557  : 
; 558  : 	Vector3 speed;

	lea	ecx, DWORD PTR _speed$[ebp]
	call	??0Vector3@@QAE@XZ			; Vector3::Vector3

; 559  : 
; 560  : 	bitStream->Read((char *)&speed, sizeof(Vector3));

	push	12					; 0000000cH
	lea	eax, DWORD PTR _speed$[ebp]
	push	eax
	mov	ecx, DWORD PTR _bitStream$[ebp]
	call	?Read@BitStream@RakNet@@QAE_NPADI@Z	; RakNet::BitStream::Read

; 561  : 
; 562  : 	pPlayer->SetTurnSpeed(speed);

	sub	esp, 12					; 0000000cH
	mov	eax, esp
	mov	ecx, DWORD PTR _speed$[ebp]
	mov	DWORD PTR [eax], ecx
	mov	edx, DWORD PTR _speed$[ebp+4]
	mov	DWORD PTR [eax+4], edx
	mov	ecx, DWORD PTR _speed$[ebp+8]
	mov	DWORD PTR [eax+8], ecx
	mov	ecx, DWORD PTR _pPlayer$[ebp]
	call	?SetTurnSpeed@CPhysical@@QAEXUVector3@@@Z ; CPhysical::SetTurnSpeed

; 563  : }

	push	edx
	mov	ecx, ebp
	push	eax
	lea	edx, DWORD PTR $LN5@Script_Set@5
	call	@_RTC_CheckStackVars@8
	pop	eax
	pop	edx
	pop	edi
	pop	esi
	pop	ebx
	add	esp, 224				; 000000e0H
	cmp	ebp, esp
	call	__RTC_CheckEsp
	mov	esp, ebp
	pop	ebp
	ret	0
	npad	3
$LN5@Script_Set@5:
	DD	1
	DD	$LN4@Script_Set@5
$LN4@Script_Set@5:
	DD	-28					; ffffffe4H
	DD	12					; 0000000cH
	DD	$LN3@Script_Set@5
$LN3@Script_Set@5:
	DB	115					; 00000073H
	DB	112					; 00000070H
	DB	101					; 00000065H
	DB	101					; 00000065H
	DB	100					; 00000064H
	DB	0
?Script_SetTurnSpeed@@YAXPAVBitStream@RakNet@@PAUPacket@2@@Z ENDP ; Script_SetTurnSpeed
_TEXT	ENDS
PUBLIC	?Script_SetMoveSpeed@@YAXPAVBitStream@RakNet@@PAUPacket@2@@Z ; Script_SetMoveSpeed
EXTRN	?SetMoveSpeed@CPhysical@@QAEXUVector3@@@Z:PROC	; CPhysical::SetMoveSpeed
; Function compile flags: /Odtp /RTCsu /ZI
;	COMDAT ?Script_SetMoveSpeed@@YAXPAVBitStream@RakNet@@PAUPacket@2@@Z
_TEXT	SEGMENT
_speed$ = -28						; size = 12
_pPlayer$ = -8						; size = 4
_bitStream$ = 8						; size = 4
_packet$ = 12						; size = 4
?Script_SetMoveSpeed@@YAXPAVBitStream@RakNet@@PAUPacket@2@@Z PROC ; Script_SetMoveSpeed, COMDAT

; 567  : {

	push	ebp
	mov	ebp, esp
	sub	esp, 224				; 000000e0H
	push	ebx
	push	esi
	push	edi
	lea	edi, DWORD PTR [ebp-224]
	mov	ecx, 56					; 00000038H
	mov	eax, -858993460				; ccccccccH
	rep stosd

; 568  : 	CPlayerPed *pPlayer = pGame->FindPlayerPed();

	mov	ecx, DWORD PTR ?pGame@@3PAVCGame@@A	; pGame
	call	?FindPlayerPed@CGame@@QAEPAVCPlayerPed@@XZ ; CGame::FindPlayerPed
	mov	DWORD PTR _pPlayer$[ebp], eax

; 569  : 
; 570  : 	Vector3 speed;

	lea	ecx, DWORD PTR _speed$[ebp]
	call	??0Vector3@@QAE@XZ			; Vector3::Vector3

; 571  : 
; 572  : 	bitStream->Read((char *)&speed, sizeof(Vector3));

	push	12					; 0000000cH
	lea	eax, DWORD PTR _speed$[ebp]
	push	eax
	mov	ecx, DWORD PTR _bitStream$[ebp]
	call	?Read@BitStream@RakNet@@QAE_NPADI@Z	; RakNet::BitStream::Read

; 573  : 
; 574  : 	pPlayer->SetMoveSpeed(speed);

	sub	esp, 12					; 0000000cH
	mov	eax, esp
	mov	ecx, DWORD PTR _speed$[ebp]
	mov	DWORD PTR [eax], ecx
	mov	edx, DWORD PTR _speed$[ebp+4]
	mov	DWORD PTR [eax+4], edx
	mov	ecx, DWORD PTR _speed$[ebp+8]
	mov	DWORD PTR [eax+8], ecx
	mov	ecx, DWORD PTR _pPlayer$[ebp]
	call	?SetMoveSpeed@CPhysical@@QAEXUVector3@@@Z ; CPhysical::SetMoveSpeed

; 575  : }

	push	edx
	mov	ecx, ebp
	push	eax
	lea	edx, DWORD PTR $LN5@Script_Set@6
	call	@_RTC_CheckStackVars@8
	pop	eax
	pop	edx
	pop	edi
	pop	esi
	pop	ebx
	add	esp, 224				; 000000e0H
	cmp	ebp, esp
	call	__RTC_CheckEsp
	mov	esp, ebp
	pop	ebp
	ret	0
	npad	3
$LN5@Script_Set@6:
	DD	1
	DD	$LN4@Script_Set@6
$LN4@Script_Set@6:
	DD	-28					; ffffffe4H
	DD	12					; 0000000cH
	DD	$LN3@Script_Set@6
$LN3@Script_Set@6:
	DB	115					; 00000073H
	DB	112					; 00000070H
	DB	101					; 00000065H
	DB	101					; 00000065H
	DB	100					; 00000064H
	DB	0
?Script_SetMoveSpeed@@YAXPAVBitStream@RakNet@@PAUPacket@2@@Z ENDP ; Script_SetMoveSpeed
_TEXT	ENDS
PUBLIC	?Script_PutInVehicle@@YAXPAVBitStream@RakNet@@PAUPacket@2@@Z ; Script_PutInVehicle
EXTRN	?PutDirectlyInVehicle@CPlayerPed@@QAEXH@Z:PROC	; CPlayerPed::PutDirectlyInVehicle
; Function compile flags: /Odtp /RTCsu /ZI
;	COMDAT ?Script_PutInVehicle@@YAXPAVBitStream@RakNet@@PAUPacket@2@@Z
_TEXT	SEGMENT
_vehID$ = -20						; size = 4
_pPlayer$ = -8						; size = 4
_bitStream$ = 8						; size = 4
_packet$ = 12						; size = 4
?Script_PutInVehicle@@YAXPAVBitStream@RakNet@@PAUPacket@2@@Z PROC ; Script_PutInVehicle, COMDAT

; 579  : {

	push	ebp
	mov	ebp, esp
	sub	esp, 216				; 000000d8H
	push	ebx
	push	esi
	push	edi
	lea	edi, DWORD PTR [ebp-216]
	mov	ecx, 54					; 00000036H
	mov	eax, -858993460				; ccccccccH
	rep stosd

; 580  : 	CPlayerPed *pPlayer = pGame->FindPlayerPed();

	mov	ecx, DWORD PTR ?pGame@@3PAVCGame@@A	; pGame
	call	?FindPlayerPed@CGame@@QAEPAVCPlayerPed@@XZ ; CGame::FindPlayerPed
	mov	DWORD PTR _pPlayer$[ebp], eax

; 581  : 
; 582  : 	int vehID;
; 583  : 
; 584  : 	bitStream->Read(vehID);

	lea	eax, DWORD PTR _vehID$[ebp]
	push	eax
	mov	ecx, DWORD PTR _bitStream$[ebp]
	call	??$Read@H@BitStream@RakNet@@QAE_NAAH@Z	; RakNet::BitStream::Read<int>

; 585  : 
; 586  : 	pPlayer->PutDirectlyInVehicle(pNetowkManager->GetVehicleManager()->FindGtaIDFromID(vehID));

	movzx	eax, BYTE PTR _vehID$[ebp]
	push	eax
	mov	ecx, DWORD PTR ?pNetowkManager@@3PAVCNetworkManager@@A ; pNetowkManager
	call	?GetVehicleManager@CNetworkManager@@QAEPAVCVehicleManager@@XZ ; CNetworkManager::GetVehicleManager
	mov	ecx, eax
	call	?FindGtaIDFromID@CVehicleManager@@QAEHE@Z ; CVehicleManager::FindGtaIDFromID
	push	eax
	mov	ecx, DWORD PTR _pPlayer$[ebp]
	call	?PutDirectlyInVehicle@CPlayerPed@@QAEXH@Z ; CPlayerPed::PutDirectlyInVehicle

; 587  : }

	push	edx
	mov	ecx, ebp
	push	eax
	lea	edx, DWORD PTR $LN5@Script_Put
	call	@_RTC_CheckStackVars@8
	pop	eax
	pop	edx
	pop	edi
	pop	esi
	pop	ebx
	add	esp, 216				; 000000d8H
	cmp	ebp, esp
	call	__RTC_CheckEsp
	mov	esp, ebp
	pop	ebp
	ret	0
	npad	3
$LN5@Script_Put:
	DD	1
	DD	$LN4@Script_Put
$LN4@Script_Put:
	DD	-20					; ffffffecH
	DD	4
	DD	$LN3@Script_Put
$LN3@Script_Put:
	DB	118					; 00000076H
	DB	101					; 00000065H
	DB	104					; 00000068H
	DB	73					; 00000049H
	DB	68					; 00000044H
	DB	0
?Script_PutInVehicle@@YAXPAVBitStream@RakNet@@PAUPacket@2@@Z ENDP ; Script_PutInVehicle
_TEXT	ENDS
PUBLIC	?Script_GivePlayerWeapon@@YAXPAVBitStream@RakNet@@PAUPacket@2@@Z ; Script_GivePlayerWeapon
EXTRN	?GiveWeapon@CPlayerPed@@QAEHHH@Z:PROC		; CPlayerPed::GiveWeapon
; Function compile flags: /Odtp /RTCsu /ZI
;	COMDAT ?Script_GivePlayerWeapon@@YAXPAVBitStream@RakNet@@PAUPacket@2@@Z
_TEXT	SEGMENT
_ammoAMT$ = -32						; size = 4
_weaponID$ = -20					; size = 4
_pPlayer$ = -8						; size = 4
_bitStream$ = 8						; size = 4
_packet$ = 12						; size = 4
?Script_GivePlayerWeapon@@YAXPAVBitStream@RakNet@@PAUPacket@2@@Z PROC ; Script_GivePlayerWeapon, COMDAT

; 591  : {

	push	ebp
	mov	ebp, esp
	sub	esp, 228				; 000000e4H
	push	ebx
	push	esi
	push	edi
	lea	edi, DWORD PTR [ebp-228]
	mov	ecx, 57					; 00000039H
	mov	eax, -858993460				; ccccccccH
	rep stosd

; 592  : 	CPlayerPed *pPlayer = pGame->FindPlayerPed();

	mov	ecx, DWORD PTR ?pGame@@3PAVCGame@@A	; pGame
	call	?FindPlayerPed@CGame@@QAEPAVCPlayerPed@@XZ ; CGame::FindPlayerPed
	mov	DWORD PTR _pPlayer$[ebp], eax

; 593  : 
; 594  : 	int weaponID;
; 595  : 	int ammoAMT;
; 596  : 
; 597  : 	bitStream->Read(weaponID);

	lea	eax, DWORD PTR _weaponID$[ebp]
	push	eax
	mov	ecx, DWORD PTR _bitStream$[ebp]
	call	??$Read@H@BitStream@RakNet@@QAE_NAAH@Z	; RakNet::BitStream::Read<int>

; 598  : 	bitStream->Read(ammoAMT);

	lea	eax, DWORD PTR _ammoAMT$[ebp]
	push	eax
	mov	ecx, DWORD PTR _bitStream$[ebp]
	call	??$Read@H@BitStream@RakNet@@QAE_NAAH@Z	; RakNet::BitStream::Read<int>

; 599  : 
; 600  : 	pPlayer->GiveWeapon(weaponID, ammoAMT);

	mov	eax, DWORD PTR _ammoAMT$[ebp]
	push	eax
	mov	ecx, DWORD PTR _weaponID$[ebp]
	push	ecx
	mov	ecx, DWORD PTR _pPlayer$[ebp]
	call	?GiveWeapon@CPlayerPed@@QAEHHH@Z	; CPlayerPed::GiveWeapon

; 601  : }

	push	edx
	mov	ecx, ebp
	push	eax
	lea	edx, DWORD PTR $LN6@Script_Giv
	call	@_RTC_CheckStackVars@8
	pop	eax
	pop	edx
	pop	edi
	pop	esi
	pop	ebx
	add	esp, 228				; 000000e4H
	cmp	ebp, esp
	call	__RTC_CheckEsp
	mov	esp, ebp
	pop	ebp
	ret	0
	npad	3
$LN6@Script_Giv:
	DD	2
	DD	$LN5@Script_Giv
$LN5@Script_Giv:
	DD	-20					; ffffffecH
	DD	4
	DD	$LN3@Script_Giv
	DD	-32					; ffffffe0H
	DD	4
	DD	$LN4@Script_Giv
$LN4@Script_Giv:
	DB	97					; 00000061H
	DB	109					; 0000006dH
	DB	109					; 0000006dH
	DB	111					; 0000006fH
	DB	65					; 00000041H
	DB	77					; 0000004dH
	DB	84					; 00000054H
	DB	0
$LN3@Script_Giv:
	DB	119					; 00000077H
	DB	101					; 00000065H
	DB	97					; 00000061H
	DB	112					; 00000070H
	DB	111					; 0000006fH
	DB	110					; 0000006eH
	DB	73					; 00000049H
	DB	68					; 00000044H
	DB	0
?Script_GivePlayerWeapon@@YAXPAVBitStream@RakNet@@PAUPacket@2@@Z ENDP ; Script_GivePlayerWeapon
_TEXT	ENDS
PUBLIC	?Script_SetPlayerSkin@@YAXPAVBitStream@RakNet@@PAUPacket@2@@Z ; Script_SetPlayerSkin
EXTRN	?SetModel@CPlayerPed@@QAEXH@Z:PROC		; CPlayerPed::SetModel
; Function compile flags: /Odtp /RTCsu /ZI
;	COMDAT ?Script_SetPlayerSkin@@YAXPAVBitStream@RakNet@@PAUPacket@2@@Z
_TEXT	SEGMENT
_skinID$ = -20						; size = 4
_pPlayer$ = -8						; size = 4
_bitStream$ = 8						; size = 4
_packet$ = 12						; size = 4
?Script_SetPlayerSkin@@YAXPAVBitStream@RakNet@@PAUPacket@2@@Z PROC ; Script_SetPlayerSkin, COMDAT

; 605  : {

	push	ebp
	mov	ebp, esp
	sub	esp, 216				; 000000d8H
	push	ebx
	push	esi
	push	edi
	lea	edi, DWORD PTR [ebp-216]
	mov	ecx, 54					; 00000036H
	mov	eax, -858993460				; ccccccccH
	rep stosd

; 606  : 	CPlayerPed *pPlayer = pGame->FindPlayerPed();

	mov	ecx, DWORD PTR ?pGame@@3PAVCGame@@A	; pGame
	call	?FindPlayerPed@CGame@@QAEPAVCPlayerPed@@XZ ; CGame::FindPlayerPed
	mov	DWORD PTR _pPlayer$[ebp], eax

; 607  : 
; 608  : 	int skinID;
; 609  : 
; 610  : 	bitStream->Read(skinID);

	lea	eax, DWORD PTR _skinID$[ebp]
	push	eax
	mov	ecx, DWORD PTR _bitStream$[ebp]
	call	??$Read@H@BitStream@RakNet@@QAE_NAAH@Z	; RakNet::BitStream::Read<int>

; 611  : 
; 612  : 	pPlayer->SetModel(skinID);

	mov	eax, DWORD PTR _skinID$[ebp]
	push	eax
	mov	ecx, DWORD PTR _pPlayer$[ebp]
	call	?SetModel@CPlayerPed@@QAEXH@Z		; CPlayerPed::SetModel

; 613  : }

	push	edx
	mov	ecx, ebp
	push	eax
	lea	edx, DWORD PTR $LN5@Script_Set@7
	call	@_RTC_CheckStackVars@8
	pop	eax
	pop	edx
	pop	edi
	pop	esi
	pop	ebx
	add	esp, 216				; 000000d8H
	cmp	ebp, esp
	call	__RTC_CheckEsp
	mov	esp, ebp
	pop	ebp
	ret	0
	npad	3
$LN5@Script_Set@7:
	DD	1
	DD	$LN4@Script_Set@7
$LN4@Script_Set@7:
	DD	-20					; ffffffecH
	DD	4
	DD	$LN3@Script_Set@7
$LN3@Script_Set@7:
	DB	115					; 00000073H
	DB	107					; 0000006bH
	DB	105					; 00000069H
	DB	110					; 0000006eH
	DB	73					; 00000049H
	DB	68					; 00000044H
	DB	0
?Script_SetPlayerSkin@@YAXPAVBitStream@RakNet@@PAUPacket@2@@Z ENDP ; Script_SetPlayerSkin
_TEXT	ENDS
PUBLIC	?Script_SetPlayerZAngle@@YAXPAVBitStream@RakNet@@PAUPacket@2@@Z ; Script_SetPlayerZAngle
EXTRN	?SetRotation@CPlayerPed@@QAEXM@Z:PROC		; CPlayerPed::SetRotation
; Function compile flags: /Odtp /RTCsu /ZI
;	COMDAT ?Script_SetPlayerZAngle@@YAXPAVBitStream@RakNet@@PAUPacket@2@@Z
_TEXT	SEGMENT
_fRotation$ = -20					; size = 4
_pPlayer$ = -8						; size = 4
_bitStream$ = 8						; size = 4
_packet$ = 12						; size = 4
?Script_SetPlayerZAngle@@YAXPAVBitStream@RakNet@@PAUPacket@2@@Z PROC ; Script_SetPlayerZAngle, COMDAT

; 617  : {

	push	ebp
	mov	ebp, esp
	sub	esp, 216				; 000000d8H
	push	ebx
	push	esi
	push	edi
	lea	edi, DWORD PTR [ebp-216]
	mov	ecx, 54					; 00000036H
	mov	eax, -858993460				; ccccccccH
	rep stosd

; 618  : 	CPlayerPed *pPlayer = pGame->FindPlayerPed();

	mov	ecx, DWORD PTR ?pGame@@3PAVCGame@@A	; pGame
	call	?FindPlayerPed@CGame@@QAEPAVCPlayerPed@@XZ ; CGame::FindPlayerPed
	mov	DWORD PTR _pPlayer$[ebp], eax

; 619  : 	float fRotation;
; 620  : 
; 621  : 	bitStream->Read(fRotation);

	lea	eax, DWORD PTR _fRotation$[ebp]
	push	eax
	mov	ecx, DWORD PTR _bitStream$[ebp]
	call	??$Read@M@BitStream@RakNet@@QAE_NAAM@Z	; RakNet::BitStream::Read<float>

; 622  : 	pPlayer->SetRotation(fRotation);

	push	ecx
	fld	DWORD PTR _fRotation$[ebp]
	fstp	DWORD PTR [esp]
	mov	ecx, DWORD PTR _pPlayer$[ebp]
	call	?SetRotation@CPlayerPed@@QAEXM@Z	; CPlayerPed::SetRotation

; 623  : }

	push	edx
	mov	ecx, ebp
	push	eax
	lea	edx, DWORD PTR $LN5@Script_Set@8
	call	@_RTC_CheckStackVars@8
	pop	eax
	pop	edx
	pop	edi
	pop	esi
	pop	ebx
	add	esp, 216				; 000000d8H
	cmp	ebp, esp
	call	__RTC_CheckEsp
	mov	esp, ebp
	pop	ebp
	ret	0
$LN5@Script_Set@8:
	DD	1
	DD	$LN4@Script_Set@8
$LN4@Script_Set@8:
	DD	-20					; ffffffecH
	DD	4
	DD	$LN3@Script_Set@8
$LN3@Script_Set@8:
	DB	102					; 00000066H
	DB	82					; 00000052H
	DB	111					; 0000006fH
	DB	116					; 00000074H
	DB	97					; 00000061H
	DB	116					; 00000074H
	DB	105					; 00000069H
	DB	111					; 0000006fH
	DB	110					; 0000006eH
	DB	0
?Script_SetPlayerZAngle@@YAXPAVBitStream@RakNet@@PAUPacket@2@@Z ENDP ; Script_SetPlayerZAngle
_TEXT	ENDS
PUBLIC	?Script_SetPlayerAction@@YAXPAVBitStream@RakNet@@PAUPacket@2@@Z ; Script_SetPlayerAction
EXTRN	?SetAction@CPlayerPed@@QAEXE@Z:PROC		; CPlayerPed::SetAction
; Function compile flags: /Odtp /RTCsu /ZI
;	COMDAT ?Script_SetPlayerAction@@YAXPAVBitStream@RakNet@@PAUPacket@2@@Z
_TEXT	SEGMENT
_Action$ = -17						; size = 1
_pPlayer$ = -8						; size = 4
_bitStream$ = 8						; size = 4
_packet$ = 12						; size = 4
?Script_SetPlayerAction@@YAXPAVBitStream@RakNet@@PAUPacket@2@@Z PROC ; Script_SetPlayerAction, COMDAT

; 627  : {

	push	ebp
	mov	ebp, esp
	sub	esp, 216				; 000000d8H
	push	ebx
	push	esi
	push	edi
	lea	edi, DWORD PTR [ebp-216]
	mov	ecx, 54					; 00000036H
	mov	eax, -858993460				; ccccccccH
	rep stosd

; 628  : 	CPlayerPed *pPlayer = pGame->FindPlayerPed();

	mov	ecx, DWORD PTR ?pGame@@3PAVCGame@@A	; pGame
	call	?FindPlayerPed@CGame@@QAEPAVCPlayerPed@@XZ ; CGame::FindPlayerPed
	mov	DWORD PTR _pPlayer$[ebp], eax

; 629  : 	BYTE Action;
; 630  : 
; 631  : 	bitStream->Read(Action);

	lea	eax, DWORD PTR _Action$[ebp]
	push	eax
	mov	ecx, DWORD PTR _bitStream$[ebp]
	call	??$Read@E@BitStream@RakNet@@QAE_NAAE@Z	; RakNet::BitStream::Read<unsigned char>

; 632  : 	pPlayer->SetAction(Action);

	movzx	eax, BYTE PTR _Action$[ebp]
	push	eax
	mov	ecx, DWORD PTR _pPlayer$[ebp]
	call	?SetAction@CPlayerPed@@QAEXE@Z		; CPlayerPed::SetAction

; 633  : }

	push	edx
	mov	ecx, ebp
	push	eax
	lea	edx, DWORD PTR $LN5@Script_Set@9
	call	@_RTC_CheckStackVars@8
	pop	eax
	pop	edx
	pop	edi
	pop	esi
	pop	ebx
	add	esp, 216				; 000000d8H
	cmp	ebp, esp
	call	__RTC_CheckEsp
	mov	esp, ebp
	pop	ebp
	ret	0
	npad	2
$LN5@Script_Set@9:
	DD	1
	DD	$LN4@Script_Set@9
$LN4@Script_Set@9:
	DD	-17					; ffffffefH
	DD	1
	DD	$LN3@Script_Set@9
$LN3@Script_Set@9:
	DB	65					; 00000041H
	DB	99					; 00000063H
	DB	116					; 00000074H
	DB	105					; 00000069H
	DB	111					; 0000006fH
	DB	110					; 0000006eH
	DB	0
?Script_SetPlayerAction@@YAXPAVBitStream@RakNet@@PAUPacket@2@@Z ENDP ; Script_SetPlayerAction
_TEXT	ENDS
PUBLIC	?Script_SetPlayerRotation@@YAXPAVBitStream@RakNet@@PAUPacket@2@@Z ; Script_SetPlayerRotation
; Function compile flags: /Odtp /RTCsu /ZI
;	COMDAT ?Script_SetPlayerRotation@@YAXPAVBitStream@RakNet@@PAUPacket@2@@Z
_TEXT	SEGMENT
_playerRot$ = -20					; size = 4
_pPlayer$ = -8						; size = 4
_bitStream$ = 8						; size = 4
_packet$ = 12						; size = 4
?Script_SetPlayerRotation@@YAXPAVBitStream@RakNet@@PAUPacket@2@@Z PROC ; Script_SetPlayerRotation, COMDAT

; 637  : {

	push	ebp
	mov	ebp, esp
	sub	esp, 216				; 000000d8H
	push	ebx
	push	esi
	push	edi
	lea	edi, DWORD PTR [ebp-216]
	mov	ecx, 54					; 00000036H
	mov	eax, -858993460				; ccccccccH
	rep stosd

; 638  : 	CPlayerPed *pPlayer = pGame->FindPlayerPed();

	mov	ecx, DWORD PTR ?pGame@@3PAVCGame@@A	; pGame
	call	?FindPlayerPed@CGame@@QAEPAVCPlayerPed@@XZ ; CGame::FindPlayerPed
	mov	DWORD PTR _pPlayer$[ebp], eax

; 639  : 	float playerRot;
; 640  : 
; 641  : 	bitStream->Read(playerRot);

	lea	eax, DWORD PTR _playerRot$[ebp]
	push	eax
	mov	ecx, DWORD PTR _bitStream$[ebp]
	call	??$Read@M@BitStream@RakNet@@QAE_NAAM@Z	; RakNet::BitStream::Read<float>

; 642  : 	pPlayer->SetRotation(playerRot);

	push	ecx
	fld	DWORD PTR _playerRot$[ebp]
	fstp	DWORD PTR [esp]
	mov	ecx, DWORD PTR _pPlayer$[ebp]
	call	?SetRotation@CPlayerPed@@QAEXM@Z	; CPlayerPed::SetRotation

; 643  : }

	push	edx
	mov	ecx, ebp
	push	eax
	lea	edx, DWORD PTR $LN5@Script_Set@10
	call	@_RTC_CheckStackVars@8
	pop	eax
	pop	edx
	pop	edi
	pop	esi
	pop	ebx
	add	esp, 216				; 000000d8H
	cmp	ebp, esp
	call	__RTC_CheckEsp
	mov	esp, ebp
	pop	ebp
	ret	0
$LN5@Script_Set@10:
	DD	1
	DD	$LN4@Script_Set@10
$LN4@Script_Set@10:
	DD	-20					; ffffffecH
	DD	4
	DD	$LN3@Script_Set@10
$LN3@Script_Set@10:
	DB	112					; 00000070H
	DB	108					; 0000006cH
	DB	97					; 00000061H
	DB	121					; 00000079H
	DB	101					; 00000065H
	DB	114					; 00000072H
	DB	82					; 00000052H
	DB	111					; 0000006fH
	DB	116					; 00000074H
	DB	0
?Script_SetPlayerRotation@@YAXPAVBitStream@RakNet@@PAUPacket@2@@Z ENDP ; Script_SetPlayerRotation
_TEXT	ENDS
PUBLIC	?Script_ResetWeapons@@YAXPAVBitStream@RakNet@@PAUPacket@2@@Z ; Script_ResetWeapons
EXTRN	?ClearAllWeapons@CPlayerPed@@QAEXXZ:PROC	; CPlayerPed::ClearAllWeapons
; Function compile flags: /Odtp /RTCsu /ZI
;	COMDAT ?Script_ResetWeapons@@YAXPAVBitStream@RakNet@@PAUPacket@2@@Z
_TEXT	SEGMENT
_pPlayer$ = -8						; size = 4
_bitStream$ = 8						; size = 4
_packet$ = 12						; size = 4
?Script_ResetWeapons@@YAXPAVBitStream@RakNet@@PAUPacket@2@@Z PROC ; Script_ResetWeapons, COMDAT

; 647  : {

	push	ebp
	mov	ebp, esp
	sub	esp, 204				; 000000ccH
	push	ebx
	push	esi
	push	edi
	lea	edi, DWORD PTR [ebp-204]
	mov	ecx, 51					; 00000033H
	mov	eax, -858993460				; ccccccccH
	rep stosd

; 648  : 	CPlayerPed *pPlayer = pGame->FindPlayerPed();

	mov	ecx, DWORD PTR ?pGame@@3PAVCGame@@A	; pGame
	call	?FindPlayerPed@CGame@@QAEPAVCPlayerPed@@XZ ; CGame::FindPlayerPed
	mov	DWORD PTR _pPlayer$[ebp], eax

; 649  : 
; 650  : 	pPlayer->ClearAllWeapons();

	mov	ecx, DWORD PTR _pPlayer$[ebp]
	call	?ClearAllWeapons@CPlayerPed@@QAEXXZ	; CPlayerPed::ClearAllWeapons

; 651  : }

	pop	edi
	pop	esi
	pop	ebx
	add	esp, 204				; 000000ccH
	cmp	ebp, esp
	call	__RTC_CheckEsp
	mov	esp, ebp
	pop	ebp
	ret	0
?Script_ResetWeapons@@YAXPAVBitStream@RakNet@@PAUPacket@2@@Z ENDP ; Script_ResetWeapons
_TEXT	ENDS
PUBLIC	?Script_SetArmedWeapon@@YAXPAVBitStream@RakNet@@PAUPacket@2@@Z ; Script_SetArmedWeapon
EXTRN	?SetArmedWeapon@CPlayerPed@@QAEHH@Z:PROC	; CPlayerPed::SetArmedWeapon
; Function compile flags: /Odtp /RTCsu /ZI
;	COMDAT ?Script_SetArmedWeapon@@YAXPAVBitStream@RakNet@@PAUPacket@2@@Z
_TEXT	SEGMENT
_playerWeapon$ = -20					; size = 4
_pPlayer$ = -8						; size = 4
_bitStream$ = 8						; size = 4
_packet$ = 12						; size = 4
?Script_SetArmedWeapon@@YAXPAVBitStream@RakNet@@PAUPacket@2@@Z PROC ; Script_SetArmedWeapon, COMDAT

; 655  : {

	push	ebp
	mov	ebp, esp
	sub	esp, 216				; 000000d8H
	push	ebx
	push	esi
	push	edi
	lea	edi, DWORD PTR [ebp-216]
	mov	ecx, 54					; 00000036H
	mov	eax, -858993460				; ccccccccH
	rep stosd

; 656  : 	CPlayerPed *pPlayer = pGame->FindPlayerPed();

	mov	ecx, DWORD PTR ?pGame@@3PAVCGame@@A	; pGame
	call	?FindPlayerPed@CGame@@QAEPAVCPlayerPed@@XZ ; CGame::FindPlayerPed
	mov	DWORD PTR _pPlayer$[ebp], eax

; 657  : 
; 658  : 	int playerWeapon;
; 659  : 
; 660  : 	bitStream->Read(playerWeapon);

	lea	eax, DWORD PTR _playerWeapon$[ebp]
	push	eax
	mov	ecx, DWORD PTR _bitStream$[ebp]
	call	??$Read@H@BitStream@RakNet@@QAE_NAAH@Z	; RakNet::BitStream::Read<int>

; 661  : 
; 662  : 	pPlayer->SetArmedWeapon(playerWeapon);

	mov	eax, DWORD PTR _playerWeapon$[ebp]
	push	eax
	mov	ecx, DWORD PTR _pPlayer$[ebp]
	call	?SetArmedWeapon@CPlayerPed@@QAEHH@Z	; CPlayerPed::SetArmedWeapon

; 663  : }

	push	edx
	mov	ecx, ebp
	push	eax
	lea	edx, DWORD PTR $LN5@Script_Set@11
	call	@_RTC_CheckStackVars@8
	pop	eax
	pop	edx
	pop	edi
	pop	esi
	pop	ebx
	add	esp, 216				; 000000d8H
	cmp	ebp, esp
	call	__RTC_CheckEsp
	mov	esp, ebp
	pop	ebp
	ret	0
	npad	3
$LN5@Script_Set@11:
	DD	1
	DD	$LN4@Script_Set@11
$LN4@Script_Set@11:
	DD	-20					; ffffffecH
	DD	4
	DD	$LN3@Script_Set@11
$LN3@Script_Set@11:
	DB	112					; 00000070H
	DB	108					; 0000006cH
	DB	97					; 00000061H
	DB	121					; 00000079H
	DB	101					; 00000065H
	DB	114					; 00000072H
	DB	87					; 00000057H
	DB	101					; 00000065H
	DB	97					; 00000061H
	DB	112					; 00000070H
	DB	111					; 0000006fH
	DB	110					; 0000006eH
	DB	0
?Script_SetArmedWeapon@@YAXPAVBitStream@RakNet@@PAUPacket@2@@Z ENDP ; Script_SetArmedWeapon
_TEXT	ENDS
PUBLIC	?Script_RemoveFromVehicle@@YAXPAVBitStream@RakNet@@PAUPacket@2@@Z ; Script_RemoveFromVehicle
; Function compile flags: /Odtp /RTCsu /ZI
;	COMDAT ?Script_RemoveFromVehicle@@YAXPAVBitStream@RakNet@@PAUPacket@2@@Z
_TEXT	SEGMENT
_pPlayer$ = -8						; size = 4
_bitStream$ = 8						; size = 4
_packet$ = 12						; size = 4
?Script_RemoveFromVehicle@@YAXPAVBitStream@RakNet@@PAUPacket@2@@Z PROC ; Script_RemoveFromVehicle, COMDAT

; 667  : {

	push	ebp
	mov	ebp, esp
	sub	esp, 204				; 000000ccH
	push	ebx
	push	esi
	push	edi
	lea	edi, DWORD PTR [ebp-204]
	mov	ecx, 51					; 00000033H
	mov	eax, -858993460				; ccccccccH
	rep stosd

; 668  : 	CPlayerPed *pPlayer = pGame->FindPlayerPed();

	mov	ecx, DWORD PTR ?pGame@@3PAVCGame@@A	; pGame
	call	?FindPlayerPed@CGame@@QAEPAVCPlayerPed@@XZ ; CGame::FindPlayerPed
	mov	DWORD PTR _pPlayer$[ebp], eax

; 669  : 
; 670  : 	pPlayer->ExitCurrentVehicle();

	mov	ecx, DWORD PTR _pPlayer$[ebp]
	call	?ExitCurrentVehicle@CPlayerPed@@QAEXXZ	; CPlayerPed::ExitCurrentVehicle

; 671  : }

	pop	edi
	pop	esi
	pop	ebx
	add	esp, 204				; 000000ccH
	cmp	ebp, esp
	call	__RTC_CheckEsp
	mov	esp, ebp
	pop	ebp
	ret	0
?Script_RemoveFromVehicle@@YAXPAVBitStream@RakNet@@PAUPacket@2@@Z ENDP ; Script_RemoveFromVehicle
_TEXT	ENDS
PUBLIC	?Script_ToggleControls@@YAXPAVBitStream@RakNet@@PAUPacket@2@@Z ; Script_ToggleControls
EXTRN	?TogglePlayerControllable@CPlayerPed@@QAEXH@Z:PROC ; CPlayerPed::TogglePlayerControllable
; Function compile flags: /Odtp /RTCsu /ZI
;	COMDAT ?Script_ToggleControls@@YAXPAVBitStream@RakNet@@PAUPacket@2@@Z
_TEXT	SEGMENT
_ControlValue$ = -20					; size = 4
_pPlayer$ = -8						; size = 4
_bitStream$ = 8						; size = 4
_packet$ = 12						; size = 4
?Script_ToggleControls@@YAXPAVBitStream@RakNet@@PAUPacket@2@@Z PROC ; Script_ToggleControls, COMDAT

; 675  : {

	push	ebp
	mov	ebp, esp
	sub	esp, 216				; 000000d8H
	push	ebx
	push	esi
	push	edi
	lea	edi, DWORD PTR [ebp-216]
	mov	ecx, 54					; 00000036H
	mov	eax, -858993460				; ccccccccH
	rep stosd

; 676  : 	CPlayerPed *pPlayer = pGame->FindPlayerPed();

	mov	ecx, DWORD PTR ?pGame@@3PAVCGame@@A	; pGame
	call	?FindPlayerPed@CGame@@QAEPAVCPlayerPed@@XZ ; CGame::FindPlayerPed
	mov	DWORD PTR _pPlayer$[ebp], eax

; 677  : 
; 678  : 	int ControlValue;
; 679  : 
; 680  : 	bitStream->Read(ControlValue);

	lea	eax, DWORD PTR _ControlValue$[ebp]
	push	eax
	mov	ecx, DWORD PTR _bitStream$[ebp]
	call	??$Read@H@BitStream@RakNet@@QAE_NAAH@Z	; RakNet::BitStream::Read<int>

; 681  : 
; 682  : 	pPlayer->TogglePlayerControllable(ControlValue);

	mov	eax, DWORD PTR _ControlValue$[ebp]
	push	eax
	mov	ecx, DWORD PTR _pPlayer$[ebp]
	call	?TogglePlayerControllable@CPlayerPed@@QAEXH@Z ; CPlayerPed::TogglePlayerControllable

; 683  : }

	push	edx
	mov	ecx, ebp
	push	eax
	lea	edx, DWORD PTR $LN5@Script_Tog
	call	@_RTC_CheckStackVars@8
	pop	eax
	pop	edx
	pop	edi
	pop	esi
	pop	ebx
	add	esp, 216				; 000000d8H
	cmp	ebp, esp
	call	__RTC_CheckEsp
	mov	esp, ebp
	pop	ebp
	ret	0
	npad	3
$LN5@Script_Tog:
	DD	1
	DD	$LN4@Script_Tog
$LN4@Script_Tog:
	DD	-20					; ffffffecH
	DD	4
	DD	$LN3@Script_Tog
$LN3@Script_Tog:
	DB	67					; 00000043H
	DB	111					; 0000006fH
	DB	110					; 0000006eH
	DB	116					; 00000074H
	DB	114					; 00000072H
	DB	111					; 0000006fH
	DB	108					; 0000006cH
	DB	86					; 00000056H
	DB	97					; 00000061H
	DB	108					; 0000006cH
	DB	117					; 00000075H
	DB	101					; 00000065H
	DB	0
?Script_ToggleControls@@YAXPAVBitStream@RakNet@@PAUPacket@2@@Z ENDP ; Script_ToggleControls
_TEXT	ENDS
PUBLIC	__$ArrayPad$
PUBLIC	?Script_ClientMessage@@YAXPAVBitStream@RakNet@@PAUPacket@2@@Z ; Script_ClientMessage
EXTRN	?AddClientMessage@CChatWindow@@QAEXKPAD@Z:PROC	; CChatWindow::AddClientMessage
; Function compile flags: /Odtp /RTCsu /ZI
;	COMDAT ?Script_ClientMessage@@YAXPAVBitStream@RakNet@@PAUPacket@2@@Z
_TEXT	SEGMENT
_uiLength$ = -288					; size = 4
_szMessage$ = -276					; size = 256
_dwColor$ = -12						; size = 4
__$ArrayPad$ = -4					; size = 4
_bitStream$ = 8						; size = 4
_packet$ = 12						; size = 4
?Script_ClientMessage@@YAXPAVBitStream@RakNet@@PAUPacket@2@@Z PROC ; Script_ClientMessage, COMDAT

; 687  : {

	push	ebp
	mov	ebp, esp
	sub	esp, 484				; 000001e4H
	push	ebx
	push	esi
	push	edi
	lea	edi, DWORD PTR [ebp-484]
	mov	ecx, 121				; 00000079H
	mov	eax, -858993460				; ccccccccH
	rep stosd
	mov	eax, DWORD PTR ___security_cookie
	xor	eax, ebp
	mov	DWORD PTR __$ArrayPad$[ebp], eax

; 688  : 	DWORD dwColor;
; 689  : 	CHAR szMessage[256];
; 690  : 	UINT uiLength;
; 691  : 
; 692  : 	bitStream->Read(dwColor);

	lea	eax, DWORD PTR _dwColor$[ebp]
	push	eax
	mov	ecx, DWORD PTR _bitStream$[ebp]
	call	??$Read@K@BitStream@RakNet@@QAE_NAAK@Z	; RakNet::BitStream::Read<unsigned long>

; 693  : 	bitStream->Read(uiLength);

	lea	eax, DWORD PTR _uiLength$[ebp]
	push	eax
	mov	ecx, DWORD PTR _bitStream$[ebp]
	call	??$Read@I@BitStream@RakNet@@QAE_NAAI@Z	; RakNet::BitStream::Read<unsigned int>

; 694  : 	bitStream->Read(szMessage,uiLength);

	mov	eax, DWORD PTR _uiLength$[ebp]
	push	eax
	lea	ecx, DWORD PTR _szMessage$[ebp]
	push	ecx
	mov	ecx, DWORD PTR _bitStream$[ebp]
	call	?Read@BitStream@RakNet@@QAE_NPADI@Z	; RakNet::BitStream::Read

; 695  : 	szMessage[uiLength] = '\0';

	mov	eax, DWORD PTR _uiLength$[ebp]
	mov	BYTE PTR _szMessage$[ebp+eax], 0

; 696  : 
; 697  : 	pChatWindow->AddClientMessage(dwColor,szMessage);

	lea	eax, DWORD PTR _szMessage$[ebp]
	push	eax
	mov	ecx, DWORD PTR _dwColor$[ebp]
	push	ecx
	mov	ecx, DWORD PTR ?pChatWindow@@3PAVCChatWindow@@A ; pChatWindow
	call	?AddClientMessage@CChatWindow@@QAEXKPAD@Z ; CChatWindow::AddClientMessage

; 698  : }

	push	edx
	mov	ecx, ebp
	push	eax
	lea	edx, DWORD PTR $LN7@Script_Cli
	call	@_RTC_CheckStackVars@8
	pop	eax
	pop	edx
	pop	edi
	pop	esi
	pop	ebx
	mov	ecx, DWORD PTR __$ArrayPad$[ebp]
	xor	ecx, ebp
	call	@__security_check_cookie@4
	add	esp, 484				; 000001e4H
	cmp	ebp, esp
	call	__RTC_CheckEsp
	mov	esp, ebp
	pop	ebp
	ret	0
$LN7@Script_Cli:
	DD	3
	DD	$LN6@Script_Cli
$LN6@Script_Cli:
	DD	-12					; fffffff4H
	DD	4
	DD	$LN3@Script_Cli
	DD	-276					; fffffeecH
	DD	256					; 00000100H
	DD	$LN4@Script_Cli
	DD	-288					; fffffee0H
	DD	4
	DD	$LN5@Script_Cli
$LN5@Script_Cli:
	DB	117					; 00000075H
	DB	105					; 00000069H
	DB	76					; 0000004cH
	DB	101					; 00000065H
	DB	110					; 0000006eH
	DB	103					; 00000067H
	DB	116					; 00000074H
	DB	104					; 00000068H
	DB	0
$LN4@Script_Cli:
	DB	115					; 00000073H
	DB	122					; 0000007aH
	DB	77					; 0000004dH
	DB	101					; 00000065H
	DB	115					; 00000073H
	DB	115					; 00000073H
	DB	97					; 00000061H
	DB	103					; 00000067H
	DB	101					; 00000065H
	DB	0
$LN3@Script_Cli:
	DB	100					; 00000064H
	DB	119					; 00000077H
	DB	67					; 00000043H
	DB	111					; 0000006fH
	DB	108					; 0000006cH
	DB	111					; 0000006fH
	DB	114					; 00000072H
	DB	0
?Script_ClientMessage@@YAXPAVBitStream@RakNet@@PAUPacket@2@@Z ENDP ; Script_ClientMessage
_TEXT	ENDS
PUBLIC	?GetTextManager@CNetworkManager@@QAEPAVCTextManager@@XZ ; CNetworkManager::GetTextManager
PUBLIC	__$ArrayPad$
PUBLIC	?CreateText@@YAXPAVBitStream@RakNet@@PAUPacket@2@@Z ; CreateText
EXTRN	?New@CTextManager@@QAEEEKPADHMM0@Z:PROC		; CTextManager::New
; Function compile flags: /Odtp /RTCsu /ZI
;	COMDAT ?CreateText@@YAXPAVBitStream@RakNet@@PAUPacket@2@@Z
_TEXT	SEGMENT
_posY$ = -432						; size = 4
_posX$ = -420						; size = 4
_size$ = -408						; size = 4
_uiLength$ = -396					; size = 4
_uiFLength$ = -384					; size = 4
_szMessage$ = -372					; size = 256
_szFontName$ = -108					; size = 64
_dwColor$ = -36						; size = 4
_TextID$ = -21						; size = 1
_pTextManager$ = -12					; size = 4
__$ArrayPad$ = -4					; size = 4
_bitStream$ = 8						; size = 4
_packet$ = 12						; size = 4
?CreateText@@YAXPAVBitStream@RakNet@@PAUPacket@2@@Z PROC ; CreateText, COMDAT

; 702  : {

	push	ebp
	mov	ebp, esp
	sub	esp, 628				; 00000274H
	push	ebx
	push	esi
	push	edi
	lea	edi, DWORD PTR [ebp-628]
	mov	ecx, 157				; 0000009dH
	mov	eax, -858993460				; ccccccccH
	rep stosd
	mov	eax, DWORD PTR ___security_cookie
	xor	eax, ebp
	mov	DWORD PTR __$ArrayPad$[ebp], eax

; 703  : 	CTextManager *pTextManager = pNetowkManager->GetTextManager();

	mov	ecx, DWORD PTR ?pNetowkManager@@3PAVCNetworkManager@@A ; pNetowkManager
	call	?GetTextManager@CNetworkManager@@QAEPAVCTextManager@@XZ ; CNetworkManager::GetTextManager
	mov	DWORD PTR _pTextManager$[ebp], eax

; 704  : 	EntityId TextID=0;

	mov	BYTE PTR _TextID$[ebp], 0

; 705  : 	DWORD dwColor;
; 706  : 	CHAR szFontName[64], szMessage[256];
; 707  : 	UINT uiFLength, uiLength;
; 708  : 	int size;
; 709  : 	float posX, posY;
; 710  : 
; 711  : 	bitStream->Read(TextID);

	lea	eax, DWORD PTR _TextID$[ebp]
	push	eax
	mov	ecx, DWORD PTR _bitStream$[ebp]
	call	??$Read@E@BitStream@RakNet@@QAE_NAAE@Z	; RakNet::BitStream::Read<unsigned char>

; 712  : 	bitStream->Read(dwColor);

	lea	eax, DWORD PTR _dwColor$[ebp]
	push	eax
	mov	ecx, DWORD PTR _bitStream$[ebp]
	call	??$Read@K@BitStream@RakNet@@QAE_NAAK@Z	; RakNet::BitStream::Read<unsigned long>

; 713  : 	bitStream->Read(uiFLength);

	lea	eax, DWORD PTR _uiFLength$[ebp]
	push	eax
	mov	ecx, DWORD PTR _bitStream$[ebp]
	call	??$Read@I@BitStream@RakNet@@QAE_NAAI@Z	; RakNet::BitStream::Read<unsigned int>

; 714  : 	bitStream->Read(szFontName,uiFLength);

	mov	eax, DWORD PTR _uiFLength$[ebp]
	push	eax
	lea	ecx, DWORD PTR _szFontName$[ebp]
	push	ecx
	mov	ecx, DWORD PTR _bitStream$[ebp]
	call	?Read@BitStream@RakNet@@QAE_NPADI@Z	; RakNet::BitStream::Read

; 715  : 	szFontName[uiFLength] = '\0';

	mov	eax, DWORD PTR _uiFLength$[ebp]
	mov	BYTE PTR _szFontName$[ebp+eax], 0

; 716  : 	bitStream->Read(size);

	lea	eax, DWORD PTR _size$[ebp]
	push	eax
	mov	ecx, DWORD PTR _bitStream$[ebp]
	call	??$Read@H@BitStream@RakNet@@QAE_NAAH@Z	; RakNet::BitStream::Read<int>

; 717  : 	bitStream->Read(posX);

	lea	eax, DWORD PTR _posX$[ebp]
	push	eax
	mov	ecx, DWORD PTR _bitStream$[ebp]
	call	??$Read@M@BitStream@RakNet@@QAE_NAAM@Z	; RakNet::BitStream::Read<float>

; 718  : 	bitStream->Read(posY);

	lea	eax, DWORD PTR _posY$[ebp]
	push	eax
	mov	ecx, DWORD PTR _bitStream$[ebp]
	call	??$Read@M@BitStream@RakNet@@QAE_NAAM@Z	; RakNet::BitStream::Read<float>

; 719  : 	bitStream->Read(uiLength);

	lea	eax, DWORD PTR _uiLength$[ebp]
	push	eax
	mov	ecx, DWORD PTR _bitStream$[ebp]
	call	??$Read@I@BitStream@RakNet@@QAE_NAAI@Z	; RakNet::BitStream::Read<unsigned int>

; 720  : 	bitStream->Read(szMessage,uiLength);

	mov	eax, DWORD PTR _uiLength$[ebp]
	push	eax
	lea	ecx, DWORD PTR _szMessage$[ebp]
	push	ecx
	mov	ecx, DWORD PTR _bitStream$[ebp]
	call	?Read@BitStream@RakNet@@QAE_NPADI@Z	; RakNet::BitStream::Read

; 721  : 	szMessage[uiLength] = '\0';

	mov	eax, DWORD PTR _uiLength$[ebp]
	mov	BYTE PTR _szMessage$[ebp+eax], 0

; 722  : 
; 723  : 	pTextManager->New(TextID, dwColor, szFontName, size, posX, posY, szMessage);

	lea	eax, DWORD PTR _szMessage$[ebp]
	push	eax
	push	ecx
	fld	DWORD PTR _posY$[ebp]
	fstp	DWORD PTR [esp]
	push	ecx
	fld	DWORD PTR _posX$[ebp]
	fstp	DWORD PTR [esp]
	mov	ecx, DWORD PTR _size$[ebp]
	push	ecx
	lea	edx, DWORD PTR _szFontName$[ebp]
	push	edx
	mov	eax, DWORD PTR _dwColor$[ebp]
	push	eax
	movzx	ecx, BYTE PTR _TextID$[ebp]
	push	ecx
	mov	ecx, DWORD PTR _pTextManager$[ebp]
	call	?New@CTextManager@@QAEEEKPADHMM0@Z	; CTextManager::New

; 724  : }

	push	edx
	mov	ecx, ebp
	push	eax
	lea	edx, DWORD PTR $LN13@CreateText
	call	@_RTC_CheckStackVars@8
	pop	eax
	pop	edx
	pop	edi
	pop	esi
	pop	ebx
	mov	ecx, DWORD PTR __$ArrayPad$[ebp]
	xor	ecx, ebp
	call	@__security_check_cookie@4
	add	esp, 628				; 00000274H
	cmp	ebp, esp
	call	__RTC_CheckEsp
	mov	esp, ebp
	pop	ebp
	ret	0
	npad	3
$LN13@CreateText:
	DD	9
	DD	$LN12@CreateText
$LN12@CreateText:
	DD	-21					; ffffffebH
	DD	1
	DD	$LN3@CreateText
	DD	-36					; ffffffdcH
	DD	4
	DD	$LN4@CreateText
	DD	-108					; ffffff94H
	DD	64					; 00000040H
	DD	$LN5@CreateText
	DD	-372					; fffffe8cH
	DD	256					; 00000100H
	DD	$LN6@CreateText
	DD	-384					; fffffe80H
	DD	4
	DD	$LN7@CreateText
	DD	-396					; fffffe74H
	DD	4
	DD	$LN8@CreateText
	DD	-408					; fffffe68H
	DD	4
	DD	$LN9@CreateText
	DD	-420					; fffffe5cH
	DD	4
	DD	$LN10@CreateText
	DD	-432					; fffffe50H
	DD	4
	DD	$LN11@CreateText
$LN11@CreateText:
	DB	112					; 00000070H
	DB	111					; 0000006fH
	DB	115					; 00000073H
	DB	89					; 00000059H
	DB	0
$LN10@CreateText:
	DB	112					; 00000070H
	DB	111					; 0000006fH
	DB	115					; 00000073H
	DB	88					; 00000058H
	DB	0
$LN9@CreateText:
	DB	115					; 00000073H
	DB	105					; 00000069H
	DB	122					; 0000007aH
	DB	101					; 00000065H
	DB	0
$LN8@CreateText:
	DB	117					; 00000075H
	DB	105					; 00000069H
	DB	76					; 0000004cH
	DB	101					; 00000065H
	DB	110					; 0000006eH
	DB	103					; 00000067H
	DB	116					; 00000074H
	DB	104					; 00000068H
	DB	0
$LN7@CreateText:
	DB	117					; 00000075H
	DB	105					; 00000069H
	DB	70					; 00000046H
	DB	76					; 0000004cH
	DB	101					; 00000065H
	DB	110					; 0000006eH
	DB	103					; 00000067H
	DB	116					; 00000074H
	DB	104					; 00000068H
	DB	0
$LN6@CreateText:
	DB	115					; 00000073H
	DB	122					; 0000007aH
	DB	77					; 0000004dH
	DB	101					; 00000065H
	DB	115					; 00000073H
	DB	115					; 00000073H
	DB	97					; 00000061H
	DB	103					; 00000067H
	DB	101					; 00000065H
	DB	0
$LN5@CreateText:
	DB	115					; 00000073H
	DB	122					; 0000007aH
	DB	70					; 00000046H
	DB	111					; 0000006fH
	DB	110					; 0000006eH
	DB	116					; 00000074H
	DB	78					; 0000004eH
	DB	97					; 00000061H
	DB	109					; 0000006dH
	DB	101					; 00000065H
	DB	0
$LN4@CreateText:
	DB	100					; 00000064H
	DB	119					; 00000077H
	DB	67					; 00000043H
	DB	111					; 0000006fH
	DB	108					; 0000006cH
	DB	111					; 0000006fH
	DB	114					; 00000072H
	DB	0
$LN3@CreateText:
	DB	84					; 00000054H
	DB	101					; 00000065H
	DB	120					; 00000078H
	DB	116					; 00000074H
	DB	73					; 00000049H
	DB	68					; 00000044H
	DB	0
?CreateText@@YAXPAVBitStream@RakNet@@PAUPacket@2@@Z ENDP ; CreateText
_TEXT	ENDS
PUBLIC	?DestroyText@@YAXPAVBitStream@RakNet@@PAUPacket@2@@Z ; DestroyText
EXTRN	?Delete@CTextManager@@QAE_NE@Z:PROC		; CTextManager::Delete
; Function compile flags: /Odtp /RTCsu /ZI
;	COMDAT ?DestroyText@@YAXPAVBitStream@RakNet@@PAUPacket@2@@Z
_TEXT	SEGMENT
_text$ = -17						; size = 1
_pTextManager$ = -8					; size = 4
_bitStream$ = 8						; size = 4
_packet$ = 12						; size = 4
?DestroyText@@YAXPAVBitStream@RakNet@@PAUPacket@2@@Z PROC ; DestroyText, COMDAT

; 727  : {

	push	ebp
	mov	ebp, esp
	sub	esp, 216				; 000000d8H
	push	ebx
	push	esi
	push	edi
	lea	edi, DWORD PTR [ebp-216]
	mov	ecx, 54					; 00000036H
	mov	eax, -858993460				; ccccccccH
	rep stosd

; 728  : 	CTextManager *pTextManager = pNetowkManager->GetTextManager();

	mov	ecx, DWORD PTR ?pNetowkManager@@3PAVCNetworkManager@@A ; pNetowkManager
	call	?GetTextManager@CNetworkManager@@QAEPAVCTextManager@@XZ ; CNetworkManager::GetTextManager
	mov	DWORD PTR _pTextManager$[ebp], eax

; 729  : 	EntityId text;
; 730  : 
; 731  : 	bitStream->Read(text);

	lea	eax, DWORD PTR _text$[ebp]
	push	eax
	mov	ecx, DWORD PTR _bitStream$[ebp]
	call	??$Read@E@BitStream@RakNet@@QAE_NAAE@Z	; RakNet::BitStream::Read<unsigned char>

; 732  : 
; 733  : 	pTextManager->Delete(text);

	movzx	eax, BYTE PTR _text$[ebp]
	push	eax
	mov	ecx, DWORD PTR _pTextManager$[ebp]
	call	?Delete@CTextManager@@QAE_NE@Z		; CTextManager::Delete

; 734  : }

	push	edx
	mov	ecx, ebp
	push	eax
	lea	edx, DWORD PTR $LN5@DestroyTex
	call	@_RTC_CheckStackVars@8
	pop	eax
	pop	edx
	pop	edi
	pop	esi
	pop	ebx
	add	esp, 216				; 000000d8H
	cmp	ebp, esp
	call	__RTC_CheckEsp
	mov	esp, ebp
	pop	ebp
	ret	0
	npad	2
$LN5@DestroyTex:
	DD	1
	DD	$LN4@DestroyTex
$LN4@DestroyTex:
	DD	-17					; ffffffefH
	DD	1
	DD	$LN3@DestroyTex
$LN3@DestroyTex:
	DB	116					; 00000074H
	DB	101					; 00000065H
	DB	120					; 00000078H
	DB	116					; 00000074H
	DB	0
?DestroyText@@YAXPAVBitStream@RakNet@@PAUPacket@2@@Z ENDP ; DestroyText
_TEXT	ENDS
PUBLIC	?GetSlotState@CVehicleManager@@QAEHE@Z		; CVehicleManager::GetSlotState
PUBLIC	?InflictDamage@@YAXPAVBitStream@RakNet@@PAUPacket@2@@Z ; InflictDamage
EXTRN	?InflictDamage@CRemotePlayer@@QAEX_NEHMHE@Z:PROC ; CRemotePlayer::InflictDamage
EXTRN	?ReadBit@BitStream@RakNet@@QAE_NXZ:PROC		; RakNet::BitStream::ReadBit
; Function compile flags: /Odtp /RTCsu /ZI
;	COMDAT ?InflictDamage@@YAXPAVBitStream@RakNet@@PAUPacket@2@@Z
_TEXT	SEGMENT
_pPlayer$ = -116					; size = 4
_byteUnk$ = -101					; size = 1
_iPedPieces$ = -92					; size = 4
_fUnk$ = -80						; size = 4
_iWeapon$ = -68						; size = 4
_damagerID$ = -53					; size = 1
_bPlayerVehicleDamager$ = -41				; size = 1
_playerID$ = -29					; size = 1
_pVehicleManager$ = -20					; size = 4
_pPlayerManager$ = -8					; size = 4
_bitStream$ = 8						; size = 4
_packet$ = 12						; size = 4
?InflictDamage@@YAXPAVBitStream@RakNet@@PAUPacket@2@@Z PROC ; InflictDamage, COMDAT

; 740  : {

	push	ebp
	mov	ebp, esp
	sub	esp, 312				; 00000138H
	push	ebx
	push	esi
	push	edi
	lea	edi, DWORD PTR [ebp-312]
	mov	ecx, 78					; 0000004eH
	mov	eax, -858993460				; ccccccccH
	rep stosd

; 741  : 	CPlayerManager * pPlayerManager = pNetowkManager->GetPlayerManager();

	mov	ecx, DWORD PTR ?pNetowkManager@@3PAVCNetworkManager@@A ; pNetowkManager
	call	?GetPlayerManager@CNetworkManager@@QAEPAVCPlayerManager@@XZ ; CNetworkManager::GetPlayerManager
	mov	DWORD PTR _pPlayerManager$[ebp], eax

; 742  : 	CVehicleManager * pVehicleManager = pNetowkManager->GetVehicleManager();

	mov	ecx, DWORD PTR ?pNetowkManager@@3PAVCNetworkManager@@A ; pNetowkManager
	call	?GetVehicleManager@CNetworkManager@@QAEPAVCVehicleManager@@XZ ; CNetworkManager::GetVehicleManager
	mov	DWORD PTR _pVehicleManager$[ebp], eax

; 743  : 	EntityId playerID;
; 744  : 	bool bPlayerVehicleDamager;
; 745  : 	EntityId damagerID;
; 746  : 	int iWeapon;
; 747  : 	float fUnk;
; 748  : 	int iPedPieces;
; 749  : 	BYTE byteUnk;
; 750  : 
; 751  : 	bitStream->Read(playerID);

	lea	eax, DWORD PTR _playerID$[ebp]
	push	eax
	mov	ecx, DWORD PTR _bitStream$[ebp]
	call	??$Read@E@BitStream@RakNet@@QAE_NAAE@Z	; RakNet::BitStream::Read<unsigned char>

; 752  : 
; 753  : 	if(!pVehicleManager->GetAt(playerID))

	movzx	eax, BYTE PTR _playerID$[ebp]
	push	eax
	mov	ecx, DWORD PTR _pVehicleManager$[ebp]
	call	?GetAt@CVehicleManager@@QAEPAVCVehicle@@E@Z ; CVehicleManager::GetAt
	test	eax, eax
	jne	SHORT $LN5@InflictDam

; 754  : 	{
; 755  : 		return;

	jmp	$LN6@InflictDam
$LN5@InflictDam:

; 756  : 	}
; 757  : 
; 758  : 	bPlayerVehicleDamager = bitStream->ReadBit();

	mov	ecx, DWORD PTR _bitStream$[ebp]
	call	?ReadBit@BitStream@RakNet@@QAE_NXZ	; RakNet::BitStream::ReadBit
	mov	BYTE PTR _bPlayerVehicleDamager$[ebp], al

; 759  : 	bitStream->Read(damagerID);

	lea	eax, DWORD PTR _damagerID$[ebp]
	push	eax
	mov	ecx, DWORD PTR _bitStream$[ebp]
	call	??$Read@E@BitStream@RakNet@@QAE_NAAE@Z	; RakNet::BitStream::Read<unsigned char>

; 760  : 
; 761  : 	if((bPlayerVehicleDamager && !pPlayerManager->GetSlotState(damagerID)) || (!bPlayerVehicleDamager && !pVehicleManager->GetSlotState(damagerID)))

	movzx	eax, BYTE PTR _bPlayerVehicleDamager$[ebp]
	test	eax, eax
	je	SHORT $LN2@InflictDam
	movzx	eax, BYTE PTR _damagerID$[ebp]
	push	eax
	mov	ecx, DWORD PTR _pPlayerManager$[ebp]
	call	?GetSlotState@CPlayerManager@@QAEHE@Z	; CPlayerManager::GetSlotState
	test	eax, eax
	je	SHORT $LN3@InflictDam
$LN2@InflictDam:
	movzx	eax, BYTE PTR _bPlayerVehicleDamager$[ebp]
	test	eax, eax
	jne	SHORT $LN4@InflictDam
	movzx	eax, BYTE PTR _damagerID$[ebp]
	push	eax
	mov	ecx, DWORD PTR _pVehicleManager$[ebp]
	call	?GetSlotState@CVehicleManager@@QAEHE@Z	; CVehicleManager::GetSlotState
	test	eax, eax
	jne	SHORT $LN4@InflictDam
$LN3@InflictDam:

; 762  : 	{
; 763  : 		return;

	jmp	SHORT $LN6@InflictDam
$LN4@InflictDam:

; 764  : 	}
; 765  : 
; 766  : 	bitStream->Read(iWeapon);

	lea	eax, DWORD PTR _iWeapon$[ebp]
	push	eax
	mov	ecx, DWORD PTR _bitStream$[ebp]
	call	??$Read@H@BitStream@RakNet@@QAE_NAAH@Z	; RakNet::BitStream::Read<int>

; 767  : 	bitStream->Read(fUnk);

	lea	eax, DWORD PTR _fUnk$[ebp]
	push	eax
	mov	ecx, DWORD PTR _bitStream$[ebp]
	call	??$Read@M@BitStream@RakNet@@QAE_NAAM@Z	; RakNet::BitStream::Read<float>

; 768  : 	bitStream->Read(iPedPieces);

	lea	eax, DWORD PTR _iPedPieces$[ebp]
	push	eax
	mov	ecx, DWORD PTR _bitStream$[ebp]
	call	??$Read@H@BitStream@RakNet@@QAE_NAAH@Z	; RakNet::BitStream::Read<int>

; 769  : 	bitStream->Read(byteUnk);

	lea	eax, DWORD PTR _byteUnk$[ebp]
	push	eax
	mov	ecx, DWORD PTR _bitStream$[ebp]
	call	??$Read@E@BitStream@RakNet@@QAE_NAAE@Z	; RakNet::BitStream::Read<unsigned char>

; 770  : 
; 771  : 	CRemotePlayer * pPlayer = pPlayerManager->GetAt(playerID);

	movzx	eax, BYTE PTR _playerID$[ebp]
	push	eax
	mov	ecx, DWORD PTR _pPlayerManager$[ebp]
	call	?GetAt@CPlayerManager@@QAEPAVCRemotePlayer@@E@Z ; CPlayerManager::GetAt
	mov	DWORD PTR _pPlayer$[ebp], eax

; 772  : 
; 773  : 	if(pPlayer)

	cmp	DWORD PTR _pPlayer$[ebp], 0
	je	SHORT $LN1@InflictDam

; 774  : 	{
; 775  : 		pPlayer->InflictDamage(bPlayerVehicleDamager, damagerID, iWeapon, fUnk, iPedPieces, byteUnk);

	movzx	eax, BYTE PTR _byteUnk$[ebp]
	push	eax
	mov	ecx, DWORD PTR _iPedPieces$[ebp]
	push	ecx
	push	ecx
	fld	DWORD PTR _fUnk$[ebp]
	fstp	DWORD PTR [esp]
	mov	edx, DWORD PTR _iWeapon$[ebp]
	push	edx
	movzx	eax, BYTE PTR _damagerID$[ebp]
	push	eax
	movzx	ecx, BYTE PTR _bPlayerVehicleDamager$[ebp]
	push	ecx
	mov	ecx, DWORD PTR _pPlayer$[ebp]
	call	?InflictDamage@CRemotePlayer@@QAEX_NEHMHE@Z ; CRemotePlayer::InflictDamage
$LN1@InflictDam:
$LN6@InflictDam:

; 776  : 	}
; 777  : }

	push	edx
	mov	ecx, ebp
	push	eax
	lea	edx, DWORD PTR $LN15@InflictDam
	call	@_RTC_CheckStackVars@8
	pop	eax
	pop	edx
	pop	edi
	pop	esi
	pop	ebx
	add	esp, 312				; 00000138H
	cmp	ebp, esp
	call	__RTC_CheckEsp
	mov	esp, ebp
	pop	ebp
	ret	0
$LN15@InflictDam:
	DD	6
	DD	$LN14@InflictDam
$LN14@InflictDam:
	DD	-29					; ffffffe3H
	DD	1
	DD	$LN8@InflictDam
	DD	-53					; ffffffcbH
	DD	1
	DD	$LN9@InflictDam
	DD	-68					; ffffffbcH
	DD	4
	DD	$LN10@InflictDam
	DD	-80					; ffffffb0H
	DD	4
	DD	$LN11@InflictDam
	DD	-92					; ffffffa4H
	DD	4
	DD	$LN12@InflictDam
	DD	-101					; ffffff9bH
	DD	1
	DD	$LN13@InflictDam
$LN13@InflictDam:
	DB	98					; 00000062H
	DB	121					; 00000079H
	DB	116					; 00000074H
	DB	101					; 00000065H
	DB	85					; 00000055H
	DB	110					; 0000006eH
	DB	107					; 0000006bH
	DB	0
$LN12@InflictDam:
	DB	105					; 00000069H
	DB	80					; 00000050H
	DB	101					; 00000065H
	DB	100					; 00000064H
	DB	80					; 00000050H
	DB	105					; 00000069H
	DB	101					; 00000065H
	DB	99					; 00000063H
	DB	101					; 00000065H
	DB	115					; 00000073H
	DB	0
$LN11@InflictDam:
	DB	102					; 00000066H
	DB	85					; 00000055H
	DB	110					; 0000006eH
	DB	107					; 0000006bH
	DB	0
$LN10@InflictDam:
	DB	105					; 00000069H
	DB	87					; 00000057H
	DB	101					; 00000065H
	DB	97					; 00000061H
	DB	112					; 00000070H
	DB	111					; 0000006fH
	DB	110					; 0000006eH
	DB	0
$LN9@InflictDam:
	DB	100					; 00000064H
	DB	97					; 00000061H
	DB	109					; 0000006dH
	DB	97					; 00000061H
	DB	103					; 00000067H
	DB	101					; 00000065H
	DB	114					; 00000072H
	DB	73					; 00000049H
	DB	68					; 00000044H
	DB	0
$LN8@InflictDam:
	DB	112					; 00000070H
	DB	108					; 0000006cH
	DB	97					; 00000061H
	DB	121					; 00000079H
	DB	101					; 00000065H
	DB	114					; 00000072H
	DB	73					; 00000049H
	DB	68					; 00000044H
	DB	0
?InflictDamage@@YAXPAVBitStream@RakNet@@PAUPacket@2@@Z ENDP ; InflictDamage
_TEXT	ENDS
PUBLIC	?Show@CText@@QAEX_N@Z				; CText::Show
PUBLIC	?GetAt@CTextManager@@QAEPAVCText@@E@Z		; CTextManager::GetAt
PUBLIC	?GetSlotState@CTextManager@@QAEHE@Z		; CTextManager::GetSlotState
PUBLIC	??$Read@_N@BitStream@RakNet@@QAE_NAA_N@Z	; RakNet::BitStream::Read<bool>
PUBLIC	?Script_toggleTextForPlayer@@YAXPAVBitStream@RakNet@@PAUPacket@2@@Z ; Script_toggleTextForPlayer
; Function compile flags: /Odtp /RTCsu /ZI
;	COMDAT ?Script_toggleTextForPlayer@@YAXPAVBitStream@RakNet@@PAUPacket@2@@Z
_TEXT	SEGMENT
_show$ = -17						; size = 1
_textId$ = -5						; size = 1
_bitStream$ = 8						; size = 4
_packet$ = 12						; size = 4
?Script_toggleTextForPlayer@@YAXPAVBitStream@RakNet@@PAUPacket@2@@Z PROC ; Script_toggleTextForPlayer, COMDAT

; 783  : {

	push	ebp
	mov	ebp, esp
	sub	esp, 216				; 000000d8H
	push	ebx
	push	esi
	push	edi
	lea	edi, DWORD PTR [ebp-216]
	mov	ecx, 54					; 00000036H
	mov	eax, -858993460				; ccccccccH
	rep stosd

; 784  : 	EntityId textId;
; 785  : 	bool show;
; 786  : 
; 787  : 	bitStream->Read(textId);

	lea	eax, DWORD PTR _textId$[ebp]
	push	eax
	mov	ecx, DWORD PTR _bitStream$[ebp]
	call	??$Read@E@BitStream@RakNet@@QAE_NAAE@Z	; RakNet::BitStream::Read<unsigned char>

; 788  : 	bitStream->Read(show);

	lea	eax, DWORD PTR _show$[ebp]
	push	eax
	mov	ecx, DWORD PTR _bitStream$[ebp]
	call	??$Read@_N@BitStream@RakNet@@QAE_NAA_N@Z ; RakNet::BitStream::Read<bool>

; 789  : 
; 790  : 	if(pNetowkManager->GetTextManager()->GetSlotState(textId))

	movzx	eax, BYTE PTR _textId$[ebp]
	push	eax
	mov	ecx, DWORD PTR ?pNetowkManager@@3PAVCNetworkManager@@A ; pNetowkManager
	call	?GetTextManager@CNetworkManager@@QAEPAVCTextManager@@XZ ; CNetworkManager::GetTextManager
	mov	ecx, eax
	call	?GetSlotState@CTextManager@@QAEHE@Z	; CTextManager::GetSlotState
	test	eax, eax
	je	SHORT $LN2@Script_tog

; 791  : 	{
; 792  : 		pNetowkManager->GetTextManager()->GetAt(textId)->Show(show);

	movzx	eax, BYTE PTR _show$[ebp]
	push	eax
	movzx	ecx, BYTE PTR _textId$[ebp]
	push	ecx
	mov	ecx, DWORD PTR ?pNetowkManager@@3PAVCNetworkManager@@A ; pNetowkManager
	call	?GetTextManager@CNetworkManager@@QAEPAVCTextManager@@XZ ; CNetworkManager::GetTextManager
	mov	ecx, eax
	call	?GetAt@CTextManager@@QAEPAVCText@@E@Z	; CTextManager::GetAt
	mov	ecx, eax
	call	?Show@CText@@QAEX_N@Z			; CText::Show
$LN2@Script_tog:

; 793  : 	}
; 794  : }

	push	edx
	mov	ecx, ebp
	push	eax
	lea	edx, DWORD PTR $LN7@Script_tog
	call	@_RTC_CheckStackVars@8
	pop	eax
	pop	edx
	pop	edi
	pop	esi
	pop	ebx
	add	esp, 216				; 000000d8H
	cmp	ebp, esp
	call	__RTC_CheckEsp
	mov	esp, ebp
	pop	ebp
	ret	0
	npad	3
$LN7@Script_tog:
	DD	2
	DD	$LN6@Script_tog
$LN6@Script_tog:
	DD	-5					; fffffffbH
	DD	1
	DD	$LN4@Script_tog
	DD	-17					; ffffffefH
	DD	1
	DD	$LN5@Script_tog
$LN5@Script_tog:
	DB	115					; 00000073H
	DB	104					; 00000068H
	DB	111					; 0000006fH
	DB	119					; 00000077H
	DB	0
$LN4@Script_tog:
	DB	116					; 00000074H
	DB	101					; 00000065H
	DB	120					; 00000078H
	DB	116					; 00000074H
	DB	73					; 00000049H
	DB	100					; 00000064H
	DB	0
?Script_toggleTextForPlayer@@YAXPAVBitStream@RakNet@@PAUPacket@2@@Z ENDP ; Script_toggleTextForPlayer
_TEXT	ENDS
PUBLIC	?SetText@CText@@QAEXPBD@Z			; CText::SetText
PUBLIC	?Script_SetText@@YAXPAVBitStream@RakNet@@PAUPacket@2@@Z ; Script_SetText
; Function compile flags: /Odtp /RTCsu /ZI
;	COMDAT ?Script_SetText@@YAXPAVBitStream@RakNet@@PAUPacket@2@@Z
_TEXT	SEGMENT
$T210598 = -236						; size = 4
_szText$ = -32						; size = 4
_len$ = -20						; size = 4
_textId$ = -5						; size = 1
_bitStream$ = 8						; size = 4
_packet$ = 12						; size = 4
?Script_SetText@@YAXPAVBitStream@RakNet@@PAUPacket@2@@Z PROC ; Script_SetText, COMDAT

; 797  : {

	push	ebp
	mov	ebp, esp
	sub	esp, 240				; 000000f0H
	push	ebx
	push	esi
	push	edi
	lea	edi, DWORD PTR [ebp-240]
	mov	ecx, 60					; 0000003cH
	mov	eax, -858993460				; ccccccccH
	rep stosd

; 798  : 	EntityId textId;
; 799  : 	int len;
; 800  : 
; 801  : 	bitStream->Read(textId);

	lea	eax, DWORD PTR _textId$[ebp]
	push	eax
	mov	ecx, DWORD PTR _bitStream$[ebp]
	call	??$Read@E@BitStream@RakNet@@QAE_NAAE@Z	; RakNet::BitStream::Read<unsigned char>

; 802  : 	bitStream->Read(len);

	lea	eax, DWORD PTR _len$[ebp]
	push	eax
	mov	ecx, DWORD PTR _bitStream$[ebp]
	call	??$Read@H@BitStream@RakNet@@QAE_NAAH@Z	; RakNet::BitStream::Read<int>

; 803  : 	char * szText = new char[len+1];

	mov	eax, DWORD PTR _len$[ebp]
	add	eax, 1
	push	eax
	call	??_U@YAPAXI@Z				; operator new[]
	add	esp, 4
	mov	DWORD PTR $T210598[ebp], eax
	mov	ecx, DWORD PTR $T210598[ebp]
	mov	DWORD PTR _szText$[ebp], ecx

; 804  : 	bitStream->Read(szText, len);

	mov	eax, DWORD PTR _len$[ebp]
	push	eax
	mov	ecx, DWORD PTR _szText$[ebp]
	push	ecx
	mov	ecx, DWORD PTR _bitStream$[ebp]
	call	?Read@BitStream@RakNet@@QAE_NPADI@Z	; RakNet::BitStream::Read

; 805  : 	szText[len] = '\0';

	mov	eax, DWORD PTR _szText$[ebp]
	add	eax, DWORD PTR _len$[ebp]
	mov	BYTE PTR [eax], 0

; 806  : 
; 807  : 	if(pNetowkManager->GetTextManager()->GetSlotState(textId))

	movzx	eax, BYTE PTR _textId$[ebp]
	push	eax
	mov	ecx, DWORD PTR ?pNetowkManager@@3PAVCNetworkManager@@A ; pNetowkManager
	call	?GetTextManager@CNetworkManager@@QAEPAVCTextManager@@XZ ; CNetworkManager::GetTextManager
	mov	ecx, eax
	call	?GetSlotState@CTextManager@@QAEHE@Z	; CTextManager::GetSlotState
	test	eax, eax
	je	SHORT $LN2@Script_Set@12

; 808  : 	{
; 809  : 		pNetowkManager->GetTextManager()->GetAt(textId)->SetText(szText);

	mov	eax, DWORD PTR _szText$[ebp]
	push	eax
	movzx	ecx, BYTE PTR _textId$[ebp]
	push	ecx
	mov	ecx, DWORD PTR ?pNetowkManager@@3PAVCNetworkManager@@A ; pNetowkManager
	call	?GetTextManager@CNetworkManager@@QAEPAVCTextManager@@XZ ; CNetworkManager::GetTextManager
	mov	ecx, eax
	call	?GetAt@CTextManager@@QAEPAVCText@@E@Z	; CTextManager::GetAt
	mov	ecx, eax
	call	?SetText@CText@@QAEXPBD@Z		; CText::SetText
$LN2@Script_Set@12:

; 810  : 	}
; 811  : }

	push	edx
	mov	ecx, ebp
	push	eax
	lea	edx, DWORD PTR $LN7@Script_Set@12
	call	@_RTC_CheckStackVars@8
	pop	eax
	pop	edx
	pop	edi
	pop	esi
	pop	ebx
	add	esp, 240				; 000000f0H
	cmp	ebp, esp
	call	__RTC_CheckEsp
	mov	esp, ebp
	pop	ebp
	ret	0
	npad	1
$LN7@Script_Set@12:
	DD	2
	DD	$LN6@Script_Set@12
$LN6@Script_Set@12:
	DD	-5					; fffffffbH
	DD	1
	DD	$LN4@Script_Set@12
	DD	-20					; ffffffecH
	DD	4
	DD	$LN5@Script_Set@12
$LN5@Script_Set@12:
	DB	108					; 0000006cH
	DB	101					; 00000065H
	DB	110					; 0000006eH
	DB	0
$LN4@Script_Set@12:
	DB	116					; 00000074H
	DB	101					; 00000065H
	DB	120					; 00000078H
	DB	116					; 00000074H
	DB	73					; 00000049H
	DB	100					; 00000064H
	DB	0
?Script_SetText@@YAXPAVBitStream@RakNet@@PAUPacket@2@@Z ENDP ; Script_SetText
_TEXT	ENDS
PUBLIC	?SetPosition@CText@@QAEXMM@Z			; CText::SetPosition
PUBLIC	?Script_SetTextPosition@@YAXPAVBitStream@RakNet@@PAUPacket@2@@Z ; Script_SetTextPosition
; Function compile flags: /Odtp /RTCsu /ZI
;	COMDAT ?Script_SetTextPosition@@YAXPAVBitStream@RakNet@@PAUPacket@2@@Z
_TEXT	SEGMENT
_fPosY$ = -32						; size = 4
_fPosX$ = -20						; size = 4
_textId$ = -5						; size = 1
_bitStream$ = 8						; size = 4
_packet$ = 12						; size = 4
?Script_SetTextPosition@@YAXPAVBitStream@RakNet@@PAUPacket@2@@Z PROC ; Script_SetTextPosition, COMDAT

; 814  : {

	push	ebp
	mov	ebp, esp
	sub	esp, 228				; 000000e4H
	push	ebx
	push	esi
	push	edi
	lea	edi, DWORD PTR [ebp-228]
	mov	ecx, 57					; 00000039H
	mov	eax, -858993460				; ccccccccH
	rep stosd

; 815  : 	EntityId textId;
; 816  : 	float fPosX, fPosY;
; 817  : 
; 818  : 	bitStream->Read(textId);

	lea	eax, DWORD PTR _textId$[ebp]
	push	eax
	mov	ecx, DWORD PTR _bitStream$[ebp]
	call	??$Read@E@BitStream@RakNet@@QAE_NAAE@Z	; RakNet::BitStream::Read<unsigned char>

; 819  : 	bitStream->Read(fPosX);

	lea	eax, DWORD PTR _fPosX$[ebp]
	push	eax
	mov	ecx, DWORD PTR _bitStream$[ebp]
	call	??$Read@M@BitStream@RakNet@@QAE_NAAM@Z	; RakNet::BitStream::Read<float>

; 820  : 	bitStream->Read(fPosY);

	lea	eax, DWORD PTR _fPosY$[ebp]
	push	eax
	mov	ecx, DWORD PTR _bitStream$[ebp]
	call	??$Read@M@BitStream@RakNet@@QAE_NAAM@Z	; RakNet::BitStream::Read<float>

; 821  : 
; 822  : 	if(pNetowkManager->GetTextManager()->GetSlotState(textId))

	movzx	eax, BYTE PTR _textId$[ebp]
	push	eax
	mov	ecx, DWORD PTR ?pNetowkManager@@3PAVCNetworkManager@@A ; pNetowkManager
	call	?GetTextManager@CNetworkManager@@QAEPAVCTextManager@@XZ ; CNetworkManager::GetTextManager
	mov	ecx, eax
	call	?GetSlotState@CTextManager@@QAEHE@Z	; CTextManager::GetSlotState
	test	eax, eax
	je	SHORT $LN1@Script_Set@13

; 823  : 	{
; 824  : 		pNetowkManager->GetTextManager()->GetAt(textId)->SetPosition(fPosX, fPosY);

	push	ecx
	fld	DWORD PTR _fPosY$[ebp]
	fstp	DWORD PTR [esp]
	push	ecx
	fld	DWORD PTR _fPosX$[ebp]
	fstp	DWORD PTR [esp]
	movzx	eax, BYTE PTR _textId$[ebp]
	push	eax
	mov	ecx, DWORD PTR ?pNetowkManager@@3PAVCNetworkManager@@A ; pNetowkManager
	call	?GetTextManager@CNetworkManager@@QAEPAVCTextManager@@XZ ; CNetworkManager::GetTextManager
	mov	ecx, eax
	call	?GetAt@CTextManager@@QAEPAVCText@@E@Z	; CTextManager::GetAt
	mov	ecx, eax
	call	?SetPosition@CText@@QAEXMM@Z		; CText::SetPosition
$LN1@Script_Set@13:

; 825  : 	}
; 826  : }

	push	edx
	mov	ecx, ebp
	push	eax
	lea	edx, DWORD PTR $LN8@Script_Set@13
	call	@_RTC_CheckStackVars@8
	pop	eax
	pop	edx
	pop	edi
	pop	esi
	pop	ebx
	add	esp, 228				; 000000e4H
	cmp	ebp, esp
	call	__RTC_CheckEsp
	mov	esp, ebp
	pop	ebp
	ret	0
	npad	2
$LN8@Script_Set@13:
	DD	3
	DD	$LN7@Script_Set@13
$LN7@Script_Set@13:
	DD	-5					; fffffffbH
	DD	1
	DD	$LN4@Script_Set@13
	DD	-20					; ffffffecH
	DD	4
	DD	$LN5@Script_Set@13
	DD	-32					; ffffffe0H
	DD	4
	DD	$LN6@Script_Set@13
$LN6@Script_Set@13:
	DB	102					; 00000066H
	DB	80					; 00000050H
	DB	111					; 0000006fH
	DB	115					; 00000073H
	DB	89					; 00000059H
	DB	0
$LN5@Script_Set@13:
	DB	102					; 00000066H
	DB	80					; 00000050H
	DB	111					; 0000006fH
	DB	115					; 00000073H
	DB	88					; 00000058H
	DB	0
$LN4@Script_Set@13:
	DB	116					; 00000074H
	DB	101					; 00000065H
	DB	120					; 00000078H
	DB	116					; 00000074H
	DB	73					; 00000049H
	DB	100					; 00000064H
	DB	0
?Script_SetTextPosition@@YAXPAVBitStream@RakNet@@PAUPacket@2@@Z ENDP ; Script_SetTextPosition
_TEXT	ENDS
PUBLIC	?SetColor@CText@@QAEXK@Z			; CText::SetColor
PUBLIC	?Script_SetTextColor@@YAXPAVBitStream@RakNet@@PAUPacket@2@@Z ; Script_SetTextColor
; Function compile flags: /Odtp /RTCsu /ZI
;	COMDAT ?Script_SetTextColor@@YAXPAVBitStream@RakNet@@PAUPacket@2@@Z
_TEXT	SEGMENT
_color$ = -20						; size = 4
_textId$ = -5						; size = 1
_bitStream$ = 8						; size = 4
_packet$ = 12						; size = 4
?Script_SetTextColor@@YAXPAVBitStream@RakNet@@PAUPacket@2@@Z PROC ; Script_SetTextColor, COMDAT

; 829  : {

	push	ebp
	mov	ebp, esp
	sub	esp, 216				; 000000d8H
	push	ebx
	push	esi
	push	edi
	lea	edi, DWORD PTR [ebp-216]
	mov	ecx, 54					; 00000036H
	mov	eax, -858993460				; ccccccccH
	rep stosd

; 830  : 	EntityId textId;
; 831  : 	DWORD color;
; 832  : 
; 833  : 	bitStream->Read(textId);

	lea	eax, DWORD PTR _textId$[ebp]
	push	eax
	mov	ecx, DWORD PTR _bitStream$[ebp]
	call	??$Read@E@BitStream@RakNet@@QAE_NAAE@Z	; RakNet::BitStream::Read<unsigned char>

; 834  : 	bitStream->Read(color);

	lea	eax, DWORD PTR _color$[ebp]
	push	eax
	mov	ecx, DWORD PTR _bitStream$[ebp]
	call	??$Read@K@BitStream@RakNet@@QAE_NAAK@Z	; RakNet::BitStream::Read<unsigned long>

; 835  : 
; 836  : 	if(pNetowkManager->GetTextManager()->GetSlotState(textId))

	movzx	eax, BYTE PTR _textId$[ebp]
	push	eax
	mov	ecx, DWORD PTR ?pNetowkManager@@3PAVCNetworkManager@@A ; pNetowkManager
	call	?GetTextManager@CNetworkManager@@QAEPAVCTextManager@@XZ ; CNetworkManager::GetTextManager
	mov	ecx, eax
	call	?GetSlotState@CTextManager@@QAEHE@Z	; CTextManager::GetSlotState
	test	eax, eax
	je	SHORT $LN2@Script_Set@14

; 837  : 	{
; 838  : 		pNetowkManager->GetTextManager()->GetAt(textId)->SetColor(color);

	mov	eax, DWORD PTR _color$[ebp]
	push	eax
	movzx	ecx, BYTE PTR _textId$[ebp]
	push	ecx
	mov	ecx, DWORD PTR ?pNetowkManager@@3PAVCNetworkManager@@A ; pNetowkManager
	call	?GetTextManager@CNetworkManager@@QAEPAVCTextManager@@XZ ; CNetworkManager::GetTextManager
	mov	ecx, eax
	call	?GetAt@CTextManager@@QAEPAVCText@@E@Z	; CTextManager::GetAt
	mov	ecx, eax
	call	?SetColor@CText@@QAEXK@Z		; CText::SetColor
$LN2@Script_Set@14:

; 839  : 	}
; 840  : }

	push	edx
	mov	ecx, ebp
	push	eax
	lea	edx, DWORD PTR $LN7@Script_Set@14
	call	@_RTC_CheckStackVars@8
	pop	eax
	pop	edx
	pop	edi
	pop	esi
	pop	ebx
	add	esp, 216				; 000000d8H
	cmp	ebp, esp
	call	__RTC_CheckEsp
	mov	esp, ebp
	pop	ebp
	ret	0
$LN7@Script_Set@14:
	DD	2
	DD	$LN6@Script_Set@14
$LN6@Script_Set@14:
	DD	-5					; fffffffbH
	DD	1
	DD	$LN4@Script_Set@14
	DD	-20					; ffffffecH
	DD	4
	DD	$LN5@Script_Set@14
$LN5@Script_Set@14:
	DB	99					; 00000063H
	DB	111					; 0000006fH
	DB	108					; 0000006cH
	DB	111					; 0000006fH
	DB	114					; 00000072H
	DB	0
$LN4@Script_Set@14:
	DB	116					; 00000074H
	DB	101					; 00000065H
	DB	120					; 00000078H
	DB	116					; 00000074H
	DB	73					; 00000049H
	DB	100					; 00000064H
	DB	0
?Script_SetTextColor@@YAXPAVBitStream@RakNet@@PAUPacket@2@@Z ENDP ; Script_SetTextColor
_TEXT	ENDS
PUBLIC	?Script_WorldBounds@@YAXPAVBitStream@RakNet@@PAUPacket@2@@Z ; Script_WorldBounds
EXTRN	?EnforceWorldBoundries@CPlayerPed@@QAEHMMMM@Z:PROC ; CPlayerPed::EnforceWorldBoundries
; Function compile flags: /Odtp /RTCsu /ZI
;	COMDAT ?Script_WorldBounds@@YAXPAVBitStream@RakNet@@PAUPacket@2@@Z
_TEXT	SEGMENT
_HighY$ = -56						; size = 4
_HighX$ = -44						; size = 4
_LowY$ = -32						; size = 4
_LowX$ = -20						; size = 4
_pPlayer$ = -8						; size = 4
_bitStream$ = 8						; size = 4
_packet$ = 12						; size = 4
?Script_WorldBounds@@YAXPAVBitStream@RakNet@@PAUPacket@2@@Z PROC ; Script_WorldBounds, COMDAT

; 844  : {

	push	ebp
	mov	ebp, esp
	sub	esp, 252				; 000000fcH
	push	ebx
	push	esi
	push	edi
	lea	edi, DWORD PTR [ebp-252]
	mov	ecx, 63					; 0000003fH
	mov	eax, -858993460				; ccccccccH
	rep stosd

; 845  : 	CPlayerPed *pPlayer = pGame->FindPlayerPed();

	mov	ecx, DWORD PTR ?pGame@@3PAVCGame@@A	; pGame
	call	?FindPlayerPed@CGame@@QAEPAVCPlayerPed@@XZ ; CGame::FindPlayerPed
	mov	DWORD PTR _pPlayer$[ebp], eax

; 846  : 
; 847  : 	float LowX;
; 848  : 	float LowY;
; 849  : 	float HighX;
; 850  : 	float HighY;
; 851  : 
; 852  : 	bitStream->Read(LowX);

	lea	eax, DWORD PTR _LowX$[ebp]
	push	eax
	mov	ecx, DWORD PTR _bitStream$[ebp]
	call	??$Read@M@BitStream@RakNet@@QAE_NAAM@Z	; RakNet::BitStream::Read<float>

; 853  : 	bitStream->Read(LowY);

	lea	eax, DWORD PTR _LowY$[ebp]
	push	eax
	mov	ecx, DWORD PTR _bitStream$[ebp]
	call	??$Read@M@BitStream@RakNet@@QAE_NAAM@Z	; RakNet::BitStream::Read<float>

; 854  : 	bitStream->Read(HighX);

	lea	eax, DWORD PTR _HighX$[ebp]
	push	eax
	mov	ecx, DWORD PTR _bitStream$[ebp]
	call	??$Read@M@BitStream@RakNet@@QAE_NAAM@Z	; RakNet::BitStream::Read<float>

; 855  : 	bitStream->Read(HighY);

	lea	eax, DWORD PTR _HighY$[ebp]
	push	eax
	mov	ecx, DWORD PTR _bitStream$[ebp]
	call	??$Read@M@BitStream@RakNet@@QAE_NAAM@Z	; RakNet::BitStream::Read<float>

; 856  : 
; 857  : 	pPlayer->EnforceWorldBoundries(HighX, LowX, HighY, LowY);

	push	ecx
	fld	DWORD PTR _LowY$[ebp]
	fstp	DWORD PTR [esp]
	push	ecx
	fld	DWORD PTR _HighY$[ebp]
	fstp	DWORD PTR [esp]
	push	ecx
	fld	DWORD PTR _LowX$[ebp]
	fstp	DWORD PTR [esp]
	push	ecx
	fld	DWORD PTR _HighX$[ebp]
	fstp	DWORD PTR [esp]
	mov	ecx, DWORD PTR _pPlayer$[ebp]
	call	?EnforceWorldBoundries@CPlayerPed@@QAEHMMMM@Z ; CPlayerPed::EnforceWorldBoundries

; 858  : }

	push	edx
	mov	ecx, ebp
	push	eax
	lea	edx, DWORD PTR $LN8@Script_Wor
	call	@_RTC_CheckStackVars@8
	pop	eax
	pop	edx
	pop	edi
	pop	esi
	pop	ebx
	add	esp, 252				; 000000fcH
	cmp	ebp, esp
	call	__RTC_CheckEsp
	mov	esp, ebp
	pop	ebp
	ret	0
	npad	3
$LN8@Script_Wor:
	DD	4
	DD	$LN7@Script_Wor
$LN7@Script_Wor:
	DD	-20					; ffffffecH
	DD	4
	DD	$LN3@Script_Wor
	DD	-32					; ffffffe0H
	DD	4
	DD	$LN4@Script_Wor
	DD	-44					; ffffffd4H
	DD	4
	DD	$LN5@Script_Wor
	DD	-56					; ffffffc8H
	DD	4
	DD	$LN6@Script_Wor
$LN6@Script_Wor:
	DB	72					; 00000048H
	DB	105					; 00000069H
	DB	103					; 00000067H
	DB	104					; 00000068H
	DB	89					; 00000059H
	DB	0
$LN5@Script_Wor:
	DB	72					; 00000048H
	DB	105					; 00000069H
	DB	103					; 00000067H
	DB	104					; 00000068H
	DB	88					; 00000058H
	DB	0
$LN4@Script_Wor:
	DB	76					; 0000004cH
	DB	111					; 0000006fH
	DB	119					; 00000077H
	DB	89					; 00000059H
	DB	0
$LN3@Script_Wor:
	DB	76					; 0000004cH
	DB	111					; 0000006fH
	DB	119					; 00000077H
	DB	88					; 00000058H
	DB	0
?Script_WorldBounds@@YAXPAVBitStream@RakNet@@PAUPacket@2@@Z ENDP ; Script_WorldBounds
_TEXT	ENDS
PUBLIC	?Script_SetVehicleColor@@YAXPAVBitStream@RakNet@@PAUPacket@2@@Z ; Script_SetVehicleColor
EXTRN	?SetColor@CVehicle@@QAEXHH@Z:PROC		; CVehicle::SetColor
; Function compile flags: /Odtp /RTCsu /ZI
;	COMDAT ?Script_SetVehicleColor@@YAXPAVBitStream@RakNet@@PAUPacket@2@@Z
_TEXT	SEGMENT
_pVehicle$ = -44					; size = 4
_color2$ = -32						; size = 4
_color1$ = -20						; size = 4
_vehicle$ = -5						; size = 1
_bitStream$ = 8						; size = 4
_packet$ = 12						; size = 4
?Script_SetVehicleColor@@YAXPAVBitStream@RakNet@@PAUPacket@2@@Z PROC ; Script_SetVehicleColor, COMDAT

; 862  : {

	push	ebp
	mov	ebp, esp
	sub	esp, 240				; 000000f0H
	push	ebx
	push	esi
	push	edi
	lea	edi, DWORD PTR [ebp-240]
	mov	ecx, 60					; 0000003cH
	mov	eax, -858993460				; ccccccccH
	rep stosd

; 863  : 	BYTE vehicle;
; 864  : 	int color1, color2;
; 865  : 	bitStream->Read(vehicle);

	lea	eax, DWORD PTR _vehicle$[ebp]
	push	eax
	mov	ecx, DWORD PTR _bitStream$[ebp]
	call	??$Read@E@BitStream@RakNet@@QAE_NAAE@Z	; RakNet::BitStream::Read<unsigned char>

; 866  : 	bitStream->Read(color1);

	lea	eax, DWORD PTR _color1$[ebp]
	push	eax
	mov	ecx, DWORD PTR _bitStream$[ebp]
	call	??$Read@H@BitStream@RakNet@@QAE_NAAH@Z	; RakNet::BitStream::Read<int>

; 867  : 	bitStream->Read(color2);

	lea	eax, DWORD PTR _color2$[ebp]
	push	eax
	mov	ecx, DWORD PTR _bitStream$[ebp]
	call	??$Read@H@BitStream@RakNet@@QAE_NAAH@Z	; RakNet::BitStream::Read<int>

; 868  : 	
; 869  : 	CVehicle *pVehicle = pNetowkManager->GetVehicleManager()->GetAt(vehicle);

	movzx	eax, BYTE PTR _vehicle$[ebp]
	push	eax
	mov	ecx, DWORD PTR ?pNetowkManager@@3PAVCNetworkManager@@A ; pNetowkManager
	call	?GetVehicleManager@CNetworkManager@@QAEPAVCVehicleManager@@XZ ; CNetworkManager::GetVehicleManager
	mov	ecx, eax
	call	?GetAt@CVehicleManager@@QAEPAVCVehicle@@E@Z ; CVehicleManager::GetAt
	mov	DWORD PTR _pVehicle$[ebp], eax

; 870  : 	pVehicle->SetColor(color1, color2);

	mov	eax, DWORD PTR _color2$[ebp]
	push	eax
	mov	ecx, DWORD PTR _color1$[ebp]
	push	ecx
	mov	ecx, DWORD PTR _pVehicle$[ebp]
	call	?SetColor@CVehicle@@QAEXHH@Z		; CVehicle::SetColor

; 871  : }

	push	edx
	mov	ecx, ebp
	push	eax
	lea	edx, DWORD PTR $LN7@Script_Set@15
	call	@_RTC_CheckStackVars@8
	pop	eax
	pop	edx
	pop	edi
	pop	esi
	pop	ebx
	add	esp, 240				; 000000f0H
	cmp	ebp, esp
	call	__RTC_CheckEsp
	mov	esp, ebp
	pop	ebp
	ret	0
	npad	3
$LN7@Script_Set@15:
	DD	3
	DD	$LN6@Script_Set@15
$LN6@Script_Set@15:
	DD	-5					; fffffffbH
	DD	1
	DD	$LN3@Script_Set@15
	DD	-20					; ffffffecH
	DD	4
	DD	$LN4@Script_Set@15
	DD	-32					; ffffffe0H
	DD	4
	DD	$LN5@Script_Set@15
$LN5@Script_Set@15:
	DB	99					; 00000063H
	DB	111					; 0000006fH
	DB	108					; 0000006cH
	DB	111					; 0000006fH
	DB	114					; 00000072H
	DB	50					; 00000032H
	DB	0
$LN4@Script_Set@15:
	DB	99					; 00000063H
	DB	111					; 0000006fH
	DB	108					; 0000006cH
	DB	111					; 0000006fH
	DB	114					; 00000072H
	DB	49					; 00000031H
	DB	0
$LN3@Script_Set@15:
	DB	118					; 00000076H
	DB	101					; 00000065H
	DB	104					; 00000068H
	DB	105					; 00000069H
	DB	99					; 00000063H
	DB	108					; 0000006cH
	DB	101					; 00000065H
	DB	0
?Script_SetVehicleColor@@YAXPAVBitStream@RakNet@@PAUPacket@2@@Z ENDP ; Script_SetVehicleColor
_TEXT	ENDS
PUBLIC	?Script_SetVehiclePos@@YAXPAVBitStream@RakNet@@PAUPacket@2@@Z ; Script_SetVehiclePos
EXTRN	?SetPosition@CEntity@@QAEXUVector3@@@Z:PROC	; CEntity::SetPosition
; Function compile flags: /Odtp /RTCsu /ZI
;	COMDAT ?Script_SetVehiclePos@@YAXPAVBitStream@RakNet@@PAUPacket@2@@Z
_TEXT	SEGMENT
_pPool$ = -40						; size = 4
_pos$ = -28						; size = 12
_vehicle$ = -5						; size = 1
_bitStream$ = 8						; size = 4
_packet$ = 12						; size = 4
?Script_SetVehiclePos@@YAXPAVBitStream@RakNet@@PAUPacket@2@@Z PROC ; Script_SetVehiclePos, COMDAT

; 875  : {

	push	ebp
	mov	ebp, esp
	sub	esp, 236				; 000000ecH
	push	ebx
	push	esi
	push	edi
	lea	edi, DWORD PTR [ebp-236]
	mov	ecx, 59					; 0000003bH
	mov	eax, -858993460				; ccccccccH
	rep stosd

; 876  : 	BYTE vehicle;
; 877  : 	Vector3 pos;

	lea	ecx, DWORD PTR _pos$[ebp]
	call	??0Vector3@@QAE@XZ			; Vector3::Vector3

; 878  : 	bitStream->Read(vehicle);

	lea	eax, DWORD PTR _vehicle$[ebp]
	push	eax
	mov	ecx, DWORD PTR _bitStream$[ebp]
	call	??$Read@E@BitStream@RakNet@@QAE_NAAE@Z	; RakNet::BitStream::Read<unsigned char>

; 879  : 	bitStream->Read((char *)&pos, sizeof(Vector3));

	push	12					; 0000000cH
	lea	eax, DWORD PTR _pos$[ebp]
	push	eax
	mov	ecx, DWORD PTR _bitStream$[ebp]
	call	?Read@BitStream@RakNet@@QAE_NPADI@Z	; RakNet::BitStream::Read

; 880  : 
; 881  : 	CVehicleManager *pPool = pNetowkManager->GetVehicleManager();

	mov	ecx, DWORD PTR ?pNetowkManager@@3PAVCNetworkManager@@A ; pNetowkManager
	call	?GetVehicleManager@CNetworkManager@@QAEPAVCVehicleManager@@XZ ; CNetworkManager::GetVehicleManager
	mov	DWORD PTR _pPool$[ebp], eax

; 882  : 	if(pPool->GetSlotState(vehicle))

	movzx	eax, BYTE PTR _vehicle$[ebp]
	push	eax
	mov	ecx, DWORD PTR _pPool$[ebp]
	call	?GetSlotState@CVehicleManager@@QAEHE@Z	; CVehicleManager::GetSlotState
	test	eax, eax
	je	SHORT $LN2@Script_Set@16

; 883  : 	{
; 884  : 		pPool->GetAt(vehicle)->SetPosition(pos);

	sub	esp, 12					; 0000000cH
	mov	eax, esp
	mov	ecx, DWORD PTR _pos$[ebp]
	mov	DWORD PTR [eax], ecx
	mov	edx, DWORD PTR _pos$[ebp+4]
	mov	DWORD PTR [eax+4], edx
	mov	ecx, DWORD PTR _pos$[ebp+8]
	mov	DWORD PTR [eax+8], ecx
	movzx	edx, BYTE PTR _vehicle$[ebp]
	push	edx
	mov	ecx, DWORD PTR _pPool$[ebp]
	call	?GetAt@CVehicleManager@@QAEPAVCVehicle@@E@Z ; CVehicleManager::GetAt
	mov	ecx, eax
	call	?SetPosition@CEntity@@QAEXUVector3@@@Z	; CEntity::SetPosition
$LN2@Script_Set@16:

; 885  : 	}
; 886  : }

	push	edx
	mov	ecx, ebp
	push	eax
	lea	edx, DWORD PTR $LN7@Script_Set@16
	call	@_RTC_CheckStackVars@8
	pop	eax
	pop	edx
	pop	edi
	pop	esi
	pop	ebx
	add	esp, 236				; 000000ecH
	cmp	ebp, esp
	call	__RTC_CheckEsp
	mov	esp, ebp
	pop	ebp
	ret	0
	npad	2
$LN7@Script_Set@16:
	DD	2
	DD	$LN6@Script_Set@16
$LN6@Script_Set@16:
	DD	-5					; fffffffbH
	DD	1
	DD	$LN4@Script_Set@16
	DD	-28					; ffffffe4H
	DD	12					; 0000000cH
	DD	$LN5@Script_Set@16
$LN5@Script_Set@16:
	DB	112					; 00000070H
	DB	111					; 0000006fH
	DB	115					; 00000073H
	DB	0
$LN4@Script_Set@16:
	DB	118					; 00000076H
	DB	101					; 00000065H
	DB	104					; 00000068H
	DB	105					; 00000069H
	DB	99					; 00000063H
	DB	108					; 0000006cH
	DB	101					; 00000065H
	DB	0
?Script_SetVehiclePos@@YAXPAVBitStream@RakNet@@PAUPacket@2@@Z ENDP ; Script_SetVehiclePos
_TEXT	ENDS
PUBLIC	?Script_SetVehicleTurnSpeed@@YAXPAVBitStream@RakNet@@PAUPacket@2@@Z ; Script_SetVehicleTurnSpeed
; Function compile flags: /Odtp /RTCsu /ZI
;	COMDAT ?Script_SetVehicleTurnSpeed@@YAXPAVBitStream@RakNet@@PAUPacket@2@@Z
_TEXT	SEGMENT
_pPool$ = -40						; size = 4
_speed$ = -28						; size = 12
_vehicle$ = -5						; size = 1
_bitStream$ = 8						; size = 4
_packet$ = 12						; size = 4
?Script_SetVehicleTurnSpeed@@YAXPAVBitStream@RakNet@@PAUPacket@2@@Z PROC ; Script_SetVehicleTurnSpeed, COMDAT

; 890  : {

	push	ebp
	mov	ebp, esp
	sub	esp, 236				; 000000ecH
	push	ebx
	push	esi
	push	edi
	lea	edi, DWORD PTR [ebp-236]
	mov	ecx, 59					; 0000003bH
	mov	eax, -858993460				; ccccccccH
	rep stosd

; 891  : 	BYTE vehicle;
; 892  : 	Vector3 speed;

	lea	ecx, DWORD PTR _speed$[ebp]
	call	??0Vector3@@QAE@XZ			; Vector3::Vector3

; 893  : 	bitStream->Read(vehicle);

	lea	eax, DWORD PTR _vehicle$[ebp]
	push	eax
	mov	ecx, DWORD PTR _bitStream$[ebp]
	call	??$Read@E@BitStream@RakNet@@QAE_NAAE@Z	; RakNet::BitStream::Read<unsigned char>

; 894  : 	bitStream->Read((char *)&speed, sizeof(Vector3));

	push	12					; 0000000cH
	lea	eax, DWORD PTR _speed$[ebp]
	push	eax
	mov	ecx, DWORD PTR _bitStream$[ebp]
	call	?Read@BitStream@RakNet@@QAE_NPADI@Z	; RakNet::BitStream::Read

; 895  : 
; 896  : 	CVehicleManager *pPool = pNetowkManager->GetVehicleManager();

	mov	ecx, DWORD PTR ?pNetowkManager@@3PAVCNetworkManager@@A ; pNetowkManager
	call	?GetVehicleManager@CNetworkManager@@QAEPAVCVehicleManager@@XZ ; CNetworkManager::GetVehicleManager
	mov	DWORD PTR _pPool$[ebp], eax

; 897  : 	if(pPool->GetSlotState(vehicle))

	movzx	eax, BYTE PTR _vehicle$[ebp]
	push	eax
	mov	ecx, DWORD PTR _pPool$[ebp]
	call	?GetSlotState@CVehicleManager@@QAEHE@Z	; CVehicleManager::GetSlotState
	test	eax, eax
	je	SHORT $LN2@Script_Set@17

; 898  : 	{
; 899  : 		pPool->GetAt(vehicle)->SetTurnSpeed(speed);

	sub	esp, 12					; 0000000cH
	mov	eax, esp
	mov	ecx, DWORD PTR _speed$[ebp]
	mov	DWORD PTR [eax], ecx
	mov	edx, DWORD PTR _speed$[ebp+4]
	mov	DWORD PTR [eax+4], edx
	mov	ecx, DWORD PTR _speed$[ebp+8]
	mov	DWORD PTR [eax+8], ecx
	movzx	edx, BYTE PTR _vehicle$[ebp]
	push	edx
	mov	ecx, DWORD PTR _pPool$[ebp]
	call	?GetAt@CVehicleManager@@QAEPAVCVehicle@@E@Z ; CVehicleManager::GetAt
	mov	ecx, eax
	call	?SetTurnSpeed@CPhysical@@QAEXUVector3@@@Z ; CPhysical::SetTurnSpeed
$LN2@Script_Set@17:

; 900  : 	}
; 901  : }

	push	edx
	mov	ecx, ebp
	push	eax
	lea	edx, DWORD PTR $LN7@Script_Set@17
	call	@_RTC_CheckStackVars@8
	pop	eax
	pop	edx
	pop	edi
	pop	esi
	pop	ebx
	add	esp, 236				; 000000ecH
	cmp	ebp, esp
	call	__RTC_CheckEsp
	mov	esp, ebp
	pop	ebp
	ret	0
	npad	2
$LN7@Script_Set@17:
	DD	2
	DD	$LN6@Script_Set@17
$LN6@Script_Set@17:
	DD	-5					; fffffffbH
	DD	1
	DD	$LN4@Script_Set@17
	DD	-28					; ffffffe4H
	DD	12					; 0000000cH
	DD	$LN5@Script_Set@17
$LN5@Script_Set@17:
	DB	115					; 00000073H
	DB	112					; 00000070H
	DB	101					; 00000065H
	DB	101					; 00000065H
	DB	100					; 00000064H
	DB	0
$LN4@Script_Set@17:
	DB	118					; 00000076H
	DB	101					; 00000065H
	DB	104					; 00000068H
	DB	105					; 00000069H
	DB	99					; 00000063H
	DB	108					; 0000006cH
	DB	101					; 00000065H
	DB	0
?Script_SetVehicleTurnSpeed@@YAXPAVBitStream@RakNet@@PAUPacket@2@@Z ENDP ; Script_SetVehicleTurnSpeed
_TEXT	ENDS
PUBLIC	?Script_SetVehicleMoveSpeed@@YAXPAVBitStream@RakNet@@PAUPacket@2@@Z ; Script_SetVehicleMoveSpeed
; Function compile flags: /Odtp /RTCsu /ZI
;	COMDAT ?Script_SetVehicleMoveSpeed@@YAXPAVBitStream@RakNet@@PAUPacket@2@@Z
_TEXT	SEGMENT
_pPool$ = -40						; size = 4
_speed$ = -28						; size = 12
_vehicle$ = -5						; size = 1
_bitStream$ = 8						; size = 4
_packet$ = 12						; size = 4
?Script_SetVehicleMoveSpeed@@YAXPAVBitStream@RakNet@@PAUPacket@2@@Z PROC ; Script_SetVehicleMoveSpeed, COMDAT

; 905  : {

	push	ebp
	mov	ebp, esp
	sub	esp, 236				; 000000ecH
	push	ebx
	push	esi
	push	edi
	lea	edi, DWORD PTR [ebp-236]
	mov	ecx, 59					; 0000003bH
	mov	eax, -858993460				; ccccccccH
	rep stosd

; 906  : 	BYTE vehicle;
; 907  : 	Vector3 speed;

	lea	ecx, DWORD PTR _speed$[ebp]
	call	??0Vector3@@QAE@XZ			; Vector3::Vector3

; 908  : 	bitStream->Read(vehicle);

	lea	eax, DWORD PTR _vehicle$[ebp]
	push	eax
	mov	ecx, DWORD PTR _bitStream$[ebp]
	call	??$Read@E@BitStream@RakNet@@QAE_NAAE@Z	; RakNet::BitStream::Read<unsigned char>

; 909  : 	bitStream->Read((char *)&speed, sizeof(Vector3));

	push	12					; 0000000cH
	lea	eax, DWORD PTR _speed$[ebp]
	push	eax
	mov	ecx, DWORD PTR _bitStream$[ebp]
	call	?Read@BitStream@RakNet@@QAE_NPADI@Z	; RakNet::BitStream::Read

; 910  : 
; 911  : 	CVehicleManager *pPool = pNetowkManager->GetVehicleManager();

	mov	ecx, DWORD PTR ?pNetowkManager@@3PAVCNetworkManager@@A ; pNetowkManager
	call	?GetVehicleManager@CNetworkManager@@QAEPAVCVehicleManager@@XZ ; CNetworkManager::GetVehicleManager
	mov	DWORD PTR _pPool$[ebp], eax

; 912  : 	if(pPool->GetSlotState(vehicle))

	movzx	eax, BYTE PTR _vehicle$[ebp]
	push	eax
	mov	ecx, DWORD PTR _pPool$[ebp]
	call	?GetSlotState@CVehicleManager@@QAEHE@Z	; CVehicleManager::GetSlotState
	test	eax, eax
	je	SHORT $LN2@Script_Set@18

; 913  : 	{
; 914  : 		pPool->GetAt(vehicle)->SetMoveSpeed(speed);

	sub	esp, 12					; 0000000cH
	mov	eax, esp
	mov	ecx, DWORD PTR _speed$[ebp]
	mov	DWORD PTR [eax], ecx
	mov	edx, DWORD PTR _speed$[ebp+4]
	mov	DWORD PTR [eax+4], edx
	mov	ecx, DWORD PTR _speed$[ebp+8]
	mov	DWORD PTR [eax+8], ecx
	movzx	edx, BYTE PTR _vehicle$[ebp]
	push	edx
	mov	ecx, DWORD PTR _pPool$[ebp]
	call	?GetAt@CVehicleManager@@QAEPAVCVehicle@@E@Z ; CVehicleManager::GetAt
	mov	ecx, eax
	call	?SetMoveSpeed@CPhysical@@QAEXUVector3@@@Z ; CPhysical::SetMoveSpeed
$LN2@Script_Set@18:

; 915  : 	}
; 916  : }

	push	edx
	mov	ecx, ebp
	push	eax
	lea	edx, DWORD PTR $LN7@Script_Set@18
	call	@_RTC_CheckStackVars@8
	pop	eax
	pop	edx
	pop	edi
	pop	esi
	pop	ebx
	add	esp, 236				; 000000ecH
	cmp	ebp, esp
	call	__RTC_CheckEsp
	mov	esp, ebp
	pop	ebp
	ret	0
	npad	2
$LN7@Script_Set@18:
	DD	2
	DD	$LN6@Script_Set@18
$LN6@Script_Set@18:
	DD	-5					; fffffffbH
	DD	1
	DD	$LN4@Script_Set@18
	DD	-28					; ffffffe4H
	DD	12					; 0000000cH
	DD	$LN5@Script_Set@18
$LN5@Script_Set@18:
	DB	115					; 00000073H
	DB	112					; 00000070H
	DB	101					; 00000065H
	DB	101					; 00000065H
	DB	100					; 00000064H
	DB	0
$LN4@Script_Set@18:
	DB	118					; 00000076H
	DB	101					; 00000065H
	DB	104					; 00000068H
	DB	105					; 00000069H
	DB	99					; 00000063H
	DB	108					; 0000006cH
	DB	101					; 00000065H
	DB	0
?Script_SetVehicleMoveSpeed@@YAXPAVBitStream@RakNet@@PAUPacket@2@@Z ENDP ; Script_SetVehicleMoveSpeed
_TEXT	ENDS
PUBLIC	?Script_DestroyVehicle@@YAXPAVBitStream@RakNet@@PAUPacket@2@@Z ; Script_DestroyVehicle
; Function compile flags: /Odtp /RTCsu /ZI
;	COMDAT ?Script_DestroyVehicle@@YAXPAVBitStream@RakNet@@PAUPacket@2@@Z
_TEXT	SEGMENT
_vehicle$ = -5						; size = 1
_bitStream$ = 8						; size = 4
_packet$ = 12						; size = 4
?Script_DestroyVehicle@@YAXPAVBitStream@RakNet@@PAUPacket@2@@Z PROC ; Script_DestroyVehicle, COMDAT

; 920  : {

	push	ebp
	mov	ebp, esp
	sub	esp, 204				; 000000ccH
	push	ebx
	push	esi
	push	edi
	lea	edi, DWORD PTR [ebp-204]
	mov	ecx, 51					; 00000033H
	mov	eax, -858993460				; ccccccccH
	rep stosd

; 921  : 	BYTE vehicle;
; 922  : 	bitStream->Read(vehicle);

	lea	eax, DWORD PTR _vehicle$[ebp]
	push	eax
	mov	ecx, DWORD PTR _bitStream$[ebp]
	call	??$Read@E@BitStream@RakNet@@QAE_NAAE@Z	; RakNet::BitStream::Read<unsigned char>

; 923  : 	
; 924  : 	pNetowkManager->GetVehicleManager()->Delete(vehicle);

	movzx	eax, BYTE PTR _vehicle$[ebp]
	push	eax
	mov	ecx, DWORD PTR ?pNetowkManager@@3PAVCNetworkManager@@A ; pNetowkManager
	call	?GetVehicleManager@CNetworkManager@@QAEPAVCVehicleManager@@XZ ; CNetworkManager::GetVehicleManager
	mov	ecx, eax
	call	?Delete@CVehicleManager@@QAEHE@Z	; CVehicleManager::Delete

; 925  : }

	push	edx
	mov	ecx, ebp
	push	eax
	lea	edx, DWORD PTR $LN5@Script_Des
	call	@_RTC_CheckStackVars@8
	pop	eax
	pop	edx
	pop	edi
	pop	esi
	pop	ebx
	add	esp, 204				; 000000ccH
	cmp	ebp, esp
	call	__RTC_CheckEsp
	mov	esp, ebp
	pop	ebp
	ret	0
	npad	2
$LN5@Script_Des:
	DD	1
	DD	$LN4@Script_Des
$LN4@Script_Des:
	DD	-5					; fffffffbH
	DD	1
	DD	$LN3@Script_Des
$LN3@Script_Des:
	DB	118					; 00000076H
	DB	101					; 00000065H
	DB	104					; 00000068H
	DB	105					; 00000069H
	DB	99					; 00000063H
	DB	108					; 0000006cH
	DB	101					; 00000065H
	DB	0
?Script_DestroyVehicle@@YAXPAVBitStream@RakNet@@PAUPacket@2@@Z ENDP ; Script_DestroyVehicle
_TEXT	ENDS
PUBLIC	?Script_PlaySound@@YAXPAVBitStream@RakNet@@PAUPacket@2@@Z ; Script_PlaySound
EXTRN	?PlaySoundA@CGame@@QAEXHUVector3@@@Z:PROC	; CGame::PlaySoundA
; Function compile flags: /Odtp /RTCsu /ZI
;	COMDAT ?Script_PlaySound@@YAXPAVBitStream@RakNet@@PAUPacket@2@@Z
_TEXT	SEGMENT
_vPos$ = -28						; size = 12
_sound$ = -8						; size = 4
_bitStream$ = 8						; size = 4
_packet$ = 12						; size = 4
?Script_PlaySound@@YAXPAVBitStream@RakNet@@PAUPacket@2@@Z PROC ; Script_PlaySound, COMDAT

; 929  : {

	push	ebp
	mov	ebp, esp
	sub	esp, 224				; 000000e0H
	push	ebx
	push	esi
	push	edi
	lea	edi, DWORD PTR [ebp-224]
	mov	ecx, 56					; 00000038H
	mov	eax, -858993460				; ccccccccH
	rep stosd

; 930  : 	int sound;
; 931  : 	Vector3 vPos;

	lea	ecx, DWORD PTR _vPos$[ebp]
	call	??0Vector3@@QAE@XZ			; Vector3::Vector3

; 932  : 
; 933  : 	bitStream->Read(sound);

	lea	eax, DWORD PTR _sound$[ebp]
	push	eax
	mov	ecx, DWORD PTR _bitStream$[ebp]
	call	??$Read@H@BitStream@RakNet@@QAE_NAAH@Z	; RakNet::BitStream::Read<int>

; 934  : 	bitStream->Read(vPos.X);

	lea	eax, DWORD PTR _vPos$[ebp]
	push	eax
	mov	ecx, DWORD PTR _bitStream$[ebp]
	call	??$Read@M@BitStream@RakNet@@QAE_NAAM@Z	; RakNet::BitStream::Read<float>

; 935  : 	bitStream->Read(vPos.Y);

	lea	eax, DWORD PTR _vPos$[ebp+4]
	push	eax
	mov	ecx, DWORD PTR _bitStream$[ebp]
	call	??$Read@M@BitStream@RakNet@@QAE_NAAM@Z	; RakNet::BitStream::Read<float>

; 936  : 	bitStream->Read(vPos.Z);

	lea	eax, DWORD PTR _vPos$[ebp+8]
	push	eax
	mov	ecx, DWORD PTR _bitStream$[ebp]
	call	??$Read@M@BitStream@RakNet@@QAE_NAAM@Z	; RakNet::BitStream::Read<float>

; 937  : 
; 938  : 	pGame->PlaySound(sound, vPos);

	sub	esp, 12					; 0000000cH
	mov	eax, esp
	mov	ecx, DWORD PTR _vPos$[ebp]
	mov	DWORD PTR [eax], ecx
	mov	edx, DWORD PTR _vPos$[ebp+4]
	mov	DWORD PTR [eax+4], edx
	mov	ecx, DWORD PTR _vPos$[ebp+8]
	mov	DWORD PTR [eax+8], ecx
	mov	edx, DWORD PTR _sound$[ebp]
	push	edx
	mov	ecx, DWORD PTR ?pGame@@3PAVCGame@@A	; pGame
	call	?PlaySoundA@CGame@@QAEXHUVector3@@@Z	; CGame::PlaySoundA

; 939  : }

	push	edx
	mov	ecx, ebp
	push	eax
	lea	edx, DWORD PTR $LN6@Script_Pla
	call	@_RTC_CheckStackVars@8
	pop	eax
	pop	edx
	pop	edi
	pop	esi
	pop	ebx
	add	esp, 224				; 000000e0H
	cmp	ebp, esp
	call	__RTC_CheckEsp
	mov	esp, ebp
	pop	ebp
	ret	0
$LN6@Script_Pla:
	DD	2
	DD	$LN5@Script_Pla
$LN5@Script_Pla:
	DD	-8					; fffffff8H
	DD	4
	DD	$LN3@Script_Pla
	DD	-28					; ffffffe4H
	DD	12					; 0000000cH
	DD	$LN4@Script_Pla
$LN4@Script_Pla:
	DB	118					; 00000076H
	DB	80					; 00000050H
	DB	111					; 0000006fH
	DB	115					; 00000073H
	DB	0
$LN3@Script_Pla:
	DB	115					; 00000073H
	DB	111					; 0000006fH
	DB	117					; 00000075H
	DB	110					; 0000006eH
	DB	100					; 00000064H
	DB	0
?Script_PlaySound@@YAXPAVBitStream@RakNet@@PAUPacket@2@@Z ENDP ; Script_PlaySound
_TEXT	ENDS
PUBLIC	?Script_FadeScreen@@YAXPAVBitStream@RakNet@@PAUPacket@2@@Z ; Script_FadeScreen
; Function compile flags: /Odtp /RTCsu /ZI
;	COMDAT ?Script_FadeScreen@@YAXPAVBitStream@RakNet@@PAUPacket@2@@Z
_TEXT	SEGMENT
_time$ = -20						; size = 4
_type$ = -8						; size = 4
_bitStream$ = 8						; size = 4
_packet$ = 12						; size = 4
?Script_FadeScreen@@YAXPAVBitStream@RakNet@@PAUPacket@2@@Z PROC ; Script_FadeScreen, COMDAT

; 943  : {

	push	ebp
	mov	ebp, esp
	sub	esp, 216				; 000000d8H
	push	ebx
	push	esi
	push	edi
	lea	edi, DWORD PTR [ebp-216]
	mov	ecx, 54					; 00000036H
	mov	eax, -858993460				; ccccccccH
	rep stosd

; 944  : 	int type, time;
; 945  : 
; 946  : 	bitStream->Read(type);

	lea	eax, DWORD PTR _type$[ebp]
	push	eax
	mov	ecx, DWORD PTR _bitStream$[ebp]
	call	??$Read@H@BitStream@RakNet@@QAE_NAAH@Z	; RakNet::BitStream::Read<int>

; 947  : 	bitStream->Read(time);

	lea	eax, DWORD PTR _time$[ebp]
	push	eax
	mov	ecx, DWORD PTR _bitStream$[ebp]
	call	??$Read@H@BitStream@RakNet@@QAE_NAAH@Z	; RakNet::BitStream::Read<int>

; 948  : 
; 949  : 	pGame->FadeScreen(type, time);

	mov	eax, DWORD PTR _time$[ebp]
	push	eax
	mov	ecx, DWORD PTR _type$[ebp]
	push	ecx
	mov	ecx, DWORD PTR ?pGame@@3PAVCGame@@A	; pGame
	call	?FadeScreen@CGame@@QAEXHH@Z		; CGame::FadeScreen

; 950  : }

	push	edx
	mov	ecx, ebp
	push	eax
	lea	edx, DWORD PTR $LN6@Script_Fad
	call	@_RTC_CheckStackVars@8
	pop	eax
	pop	edx
	pop	edi
	pop	esi
	pop	ebx
	add	esp, 216				; 000000d8H
	cmp	ebp, esp
	call	__RTC_CheckEsp
	mov	esp, ebp
	pop	ebp
	ret	0
	npad	2
$LN6@Script_Fad:
	DD	2
	DD	$LN5@Script_Fad
$LN5@Script_Fad:
	DD	-8					; fffffff8H
	DD	4
	DD	$LN3@Script_Fad
	DD	-20					; ffffffecH
	DD	4
	DD	$LN4@Script_Fad
$LN4@Script_Fad:
	DB	116					; 00000074H
	DB	105					; 00000069H
	DB	109					; 0000006dH
	DB	101					; 00000065H
	DB	0
$LN3@Script_Fad:
	DB	116					; 00000074H
	DB	121					; 00000079H
	DB	112					; 00000070H
	DB	101					; 00000065H
	DB	0
?Script_FadeScreen@@YAXPAVBitStream@RakNet@@PAUPacket@2@@Z ENDP ; Script_FadeScreen
_TEXT	ENDS
PUBLIC	?Script_FlashItem@@YAXPAVBitStream@RakNet@@PAUPacket@2@@Z ; Script_FlashItem
EXTRN	?Flash@CPlayerPed@@QAEXH@Z:PROC			; CPlayerPed::Flash
; Function compile flags: /Odtp /RTCsu /ZI
;	COMDAT ?Script_FlashItem@@YAXPAVBitStream@RakNet@@PAUPacket@2@@Z
_TEXT	SEGMENT
_item$ = -20						; size = 4
_pPlayer$ = -8						; size = 4
_bitStream$ = 8						; size = 4
_packet$ = 12						; size = 4
?Script_FlashItem@@YAXPAVBitStream@RakNet@@PAUPacket@2@@Z PROC ; Script_FlashItem, COMDAT

; 954  : {

	push	ebp
	mov	ebp, esp
	sub	esp, 216				; 000000d8H
	push	ebx
	push	esi
	push	edi
	lea	edi, DWORD PTR [ebp-216]
	mov	ecx, 54					; 00000036H
	mov	eax, -858993460				; ccccccccH
	rep stosd

; 955  : 	CPlayerPed *pPlayer = pGame->FindPlayerPed();

	mov	ecx, DWORD PTR ?pGame@@3PAVCGame@@A	; pGame
	call	?FindPlayerPed@CGame@@QAEPAVCPlayerPed@@XZ ; CGame::FindPlayerPed
	mov	DWORD PTR _pPlayer$[ebp], eax

; 956  : 
; 957  : 	int item;
; 958  : 
; 959  : 	bitStream->Read(item);

	lea	eax, DWORD PTR _item$[ebp]
	push	eax
	mov	ecx, DWORD PTR _bitStream$[ebp]
	call	??$Read@H@BitStream@RakNet@@QAE_NAAH@Z	; RakNet::BitStream::Read<int>

; 960  : 
; 961  : 	pPlayer->Flash(item);

	mov	eax, DWORD PTR _item$[ebp]
	push	eax
	mov	ecx, DWORD PTR _pPlayer$[ebp]
	call	?Flash@CPlayerPed@@QAEXH@Z		; CPlayerPed::Flash

; 962  : }

	push	edx
	mov	ecx, ebp
	push	eax
	lea	edx, DWORD PTR $LN5@Script_Fla
	call	@_RTC_CheckStackVars@8
	pop	eax
	pop	edx
	pop	edi
	pop	esi
	pop	ebx
	add	esp, 216				; 000000d8H
	cmp	ebp, esp
	call	__RTC_CheckEsp
	mov	esp, ebp
	pop	ebp
	ret	0
	npad	3
$LN5@Script_Fla:
	DD	1
	DD	$LN4@Script_Fla
$LN4@Script_Fla:
	DD	-20					; ffffffecH
	DD	4
	DD	$LN3@Script_Fla
$LN3@Script_Fla:
	DB	105					; 00000069H
	DB	116					; 00000074H
	DB	101					; 00000065H
	DB	109					; 0000006dH
	DB	0
?Script_FlashItem@@YAXPAVBitStream@RakNet@@PAUPacket@2@@Z ENDP ; Script_FlashItem
_TEXT	ENDS
PUBLIC	?Script_forceClassSelection@@YAXPAVBitStream@RakNet@@PAUPacket@2@@Z ; Script_forceClassSelection
EXTRN	?HandleClassSelection@CSpawnSelection@@QAEXPAVCLocalPlayer@@@Z:PROC ; CSpawnSelection::HandleClassSelection
; Function compile flags: /Odtp /RTCsu /ZI
;	COMDAT ?Script_forceClassSelection@@YAXPAVBitStream@RakNet@@PAUPacket@2@@Z
_TEXT	SEGMENT
_pLocalPlayer$ = -8					; size = 4
_bitStream$ = 8						; size = 4
_packet$ = 12						; size = 4
?Script_forceClassSelection@@YAXPAVBitStream@RakNet@@PAUPacket@2@@Z PROC ; Script_forceClassSelection, COMDAT

; 966  : {

	push	ebp
	mov	ebp, esp
	sub	esp, 204				; 000000ccH
	push	ebx
	push	esi
	push	edi
	lea	edi, DWORD PTR [ebp-204]
	mov	ecx, 51					; 00000033H
	mov	eax, -858993460				; ccccccccH
	rep stosd

; 967  : 	CLocalPlayer *pLocalPlayer = pNetowkManager->GetPlayerManager()->GetLocalPlayer();

	mov	ecx, DWORD PTR ?pNetowkManager@@3PAVCNetworkManager@@A ; pNetowkManager
	call	?GetPlayerManager@CNetworkManager@@QAEPAVCPlayerManager@@XZ ; CNetworkManager::GetPlayerManager
	mov	ecx, eax
	call	?GetLocalPlayer@CPlayerManager@@QAEPAVCLocalPlayer@@XZ ; CPlayerManager::GetLocalPlayer
	mov	DWORD PTR _pLocalPlayer$[ebp], eax

; 968  : 	pNetowkManager->GetGameLogic()->HandleClassSelection(pLocalPlayer);

	mov	eax, DWORD PTR _pLocalPlayer$[ebp]
	push	eax
	mov	ecx, DWORD PTR ?pNetowkManager@@3PAVCNetworkManager@@A ; pNetowkManager
	call	?GetGameLogic@CNetworkManager@@QAEPAVCSpawnSelection@@XZ ; CNetworkManager::GetGameLogic
	mov	ecx, eax
	call	?HandleClassSelection@CSpawnSelection@@QAEXPAVCLocalPlayer@@@Z ; CSpawnSelection::HandleClassSelection

; 969  : }

	pop	edi
	pop	esi
	pop	ebx
	add	esp, 204				; 000000ccH
	cmp	ebp, esp
	call	__RTC_CheckEsp
	mov	esp, ebp
	pop	ebp
	ret	0
?Script_forceClassSelection@@YAXPAVBitStream@RakNet@@PAUPacket@2@@Z ENDP ; Script_forceClassSelection
_TEXT	ENDS
PUBLIC	?GetPlayerPed@CLocalPlayer@@QAEPAVCPlayerPed@@XZ ; CLocalPlayer::GetPlayerPed
PUBLIC	?Script_togglePlayerBleeding@@YAXPAVBitStream@RakNet@@PAUPacket@2@@Z ; Script_togglePlayerBleeding
EXTRN	?SetActorBleeding@CPlayerPed@@QAEXH@Z:PROC	; CPlayerPed::SetActorBleeding
; Function compile flags: /Odtp /RTCsu /ZI
;	COMDAT ?Script_togglePlayerBleeding@@YAXPAVBitStream@RakNet@@PAUPacket@2@@Z
_TEXT	SEGMENT
_pPlayer$209771 = -44					; size = 4
_pPlayer$209767 = -32					; size = 4
_toggle$ = -20						; size = 4
_player$ = -8						; size = 4
_bitStream$ = 8						; size = 4
_packet$ = 12						; size = 4
?Script_togglePlayerBleeding@@YAXPAVBitStream@RakNet@@PAUPacket@2@@Z PROC ; Script_togglePlayerBleeding, COMDAT

; 973  : {

	push	ebp
	mov	ebp, esp
	sub	esp, 240				; 000000f0H
	push	ebx
	push	esi
	push	edi
	lea	edi, DWORD PTR [ebp-240]
	mov	ecx, 60					; 0000003cH
	mov	eax, -858993460				; ccccccccH
	rep stosd

; 974  : 	int player, toggle;
; 975  : 
; 976  : 	bitStream->Read(player);

	lea	eax, DWORD PTR _player$[ebp]
	push	eax
	mov	ecx, DWORD PTR _bitStream$[ebp]
	call	??$Read@H@BitStream@RakNet@@QAE_NAAH@Z	; RakNet::BitStream::Read<int>

; 977  : 	bitStream->Read(toggle);

	lea	eax, DWORD PTR _toggle$[ebp]
	push	eax
	mov	ecx, DWORD PTR _bitStream$[ebp]
	call	??$Read@H@BitStream@RakNet@@QAE_NAAH@Z	; RakNet::BitStream::Read<int>

; 978  : 
; 979  : 	if(player == pNetowkManager->GetPlayerManager()->GetLocalPlayerID())

	mov	ecx, DWORD PTR ?pNetowkManager@@3PAVCNetworkManager@@A ; pNetowkManager
	call	?GetPlayerManager@CNetworkManager@@QAEPAVCPlayerManager@@XZ ; CNetworkManager::GetPlayerManager
	mov	ecx, eax
	call	?GetLocalPlayerID@CPlayerManager@@QAEEXZ ; CPlayerManager::GetLocalPlayerID
	movzx	eax, al
	cmp	DWORD PTR _player$[ebp], eax
	jne	SHORT $LN4@Script_tog@2

; 980  : 	{
; 981  : 		CLocalPlayer * pPlayer = pNetowkManager->GetPlayerManager()->GetLocalPlayer();

	mov	ecx, DWORD PTR ?pNetowkManager@@3PAVCNetworkManager@@A ; pNetowkManager
	call	?GetPlayerManager@CNetworkManager@@QAEPAVCPlayerManager@@XZ ; CNetworkManager::GetPlayerManager
	mov	ecx, eax
	call	?GetLocalPlayer@CPlayerManager@@QAEPAVCLocalPlayer@@XZ ; CPlayerManager::GetLocalPlayer
	mov	DWORD PTR _pPlayer$209767[ebp], eax

; 982  : 		pPlayer->GetPlayerPed()->SetActorBleeding(toggle);

	mov	eax, DWORD PTR _toggle$[ebp]
	push	eax
	mov	ecx, DWORD PTR _pPlayer$209767[ebp]
	call	?GetPlayerPed@CLocalPlayer@@QAEPAVCPlayerPed@@XZ ; CLocalPlayer::GetPlayerPed
	mov	ecx, eax
	call	?SetActorBleeding@CPlayerPed@@QAEXH@Z	; CPlayerPed::SetActorBleeding
	jmp	SHORT $LN5@Script_tog@2
$LN4@Script_tog@2:

; 983  : 	} 
; 984  : 	else if(pNetowkManager->GetPlayerManager()->GetSlotState(player))

	movzx	eax, BYTE PTR _player$[ebp]
	push	eax
	mov	ecx, DWORD PTR ?pNetowkManager@@3PAVCNetworkManager@@A ; pNetowkManager
	call	?GetPlayerManager@CNetworkManager@@QAEPAVCPlayerManager@@XZ ; CNetworkManager::GetPlayerManager
	mov	ecx, eax
	call	?GetSlotState@CPlayerManager@@QAEHE@Z	; CPlayerManager::GetSlotState
	test	eax, eax
	je	SHORT $LN5@Script_tog@2

; 985  : 	{
; 986  : 		if(player != pNetowkManager->GetPlayerManager()->GetLocalPlayerID())

	mov	ecx, DWORD PTR ?pNetowkManager@@3PAVCNetworkManager@@A ; pNetowkManager
	call	?GetPlayerManager@CNetworkManager@@QAEPAVCPlayerManager@@XZ ; CNetworkManager::GetPlayerManager
	mov	ecx, eax
	call	?GetLocalPlayerID@CPlayerManager@@QAEEXZ ; CPlayerManager::GetLocalPlayerID
	movzx	eax, al
	cmp	DWORD PTR _player$[ebp], eax
	je	SHORT $LN5@Script_tog@2

; 987  : 		{
; 988  : 			CRemotePlayer * pPlayer = pNetowkManager->GetPlayerManager()->GetAt(player);

	movzx	eax, BYTE PTR _player$[ebp]
	push	eax
	mov	ecx, DWORD PTR ?pNetowkManager@@3PAVCNetworkManager@@A ; pNetowkManager
	call	?GetPlayerManager@CNetworkManager@@QAEPAVCPlayerManager@@XZ ; CNetworkManager::GetPlayerManager
	mov	ecx, eax
	call	?GetAt@CPlayerManager@@QAEPAVCRemotePlayer@@E@Z ; CPlayerManager::GetAt
	mov	DWORD PTR _pPlayer$209771[ebp], eax

; 989  : 			pPlayer->GetPlayerPed()->SetActorBleeding(toggle);

	mov	eax, DWORD PTR _toggle$[ebp]
	push	eax
	mov	ecx, DWORD PTR _pPlayer$209771[ebp]
	call	?GetPlayerPed@CRemotePlayer@@QAEPAVCPlayerPed@@XZ ; CRemotePlayer::GetPlayerPed
	mov	ecx, eax
	call	?SetActorBleeding@CPlayerPed@@QAEXH@Z	; CPlayerPed::SetActorBleeding
$LN5@Script_tog@2:

; 990  : 		}
; 991  : 	}
; 992  : }

	push	edx
	mov	ecx, ebp
	push	eax
	lea	edx, DWORD PTR $LN10@Script_tog@2
	call	@_RTC_CheckStackVars@8
	pop	eax
	pop	edx
	pop	edi
	pop	esi
	pop	ebx
	add	esp, 240				; 000000f0H
	cmp	ebp, esp
	call	__RTC_CheckEsp
	mov	esp, ebp
	pop	ebp
	ret	0
	npad	3
$LN10@Script_tog@2:
	DD	2
	DD	$LN9@Script_tog@2
$LN9@Script_tog@2:
	DD	-8					; fffffff8H
	DD	4
	DD	$LN7@Script_tog@2
	DD	-20					; ffffffecH
	DD	4
	DD	$LN8@Script_tog@2
$LN8@Script_tog@2:
	DB	116					; 00000074H
	DB	111					; 0000006fH
	DB	103					; 00000067H
	DB	103					; 00000067H
	DB	108					; 0000006cH
	DB	101					; 00000065H
	DB	0
$LN7@Script_tog@2:
	DB	112					; 00000070H
	DB	108					; 0000006cH
	DB	97					; 00000061H
	DB	121					; 00000079H
	DB	101					; 00000065H
	DB	114					; 00000072H
	DB	0
?Script_togglePlayerBleeding@@YAXPAVBitStream@RakNet@@PAUPacket@2@@Z ENDP ; Script_togglePlayerBleeding
_TEXT	ENDS
PUBLIC	?Script_popVehicleTrunk@@YAXPAVBitStream@RakNet@@PAUPacket@2@@Z ; Script_popVehicleTrunk
EXTRN	?PopTrunk@CVehicle@@QAEXXZ:PROC			; CVehicle::PopTrunk
; Function compile flags: /Odtp /RTCsu /ZI
;	COMDAT ?Script_popVehicleTrunk@@YAXPAVBitStream@RakNet@@PAUPacket@2@@Z
_TEXT	SEGMENT
_pVehicle$ = -20					; size = 4
_vehicle$ = -5						; size = 1
_bitStream$ = 8						; size = 4
_packet$ = 12						; size = 4
?Script_popVehicleTrunk@@YAXPAVBitStream@RakNet@@PAUPacket@2@@Z PROC ; Script_popVehicleTrunk, COMDAT

; 996  : {

	push	ebp
	mov	ebp, esp
	sub	esp, 216				; 000000d8H
	push	ebx
	push	esi
	push	edi
	lea	edi, DWORD PTR [ebp-216]
	mov	ecx, 54					; 00000036H
	mov	eax, -858993460				; ccccccccH
	rep stosd

; 997  : 	BYTE vehicle;
; 998  : 
; 999  : 	bitStream->Read(vehicle);

	lea	eax, DWORD PTR _vehicle$[ebp]
	push	eax
	mov	ecx, DWORD PTR _bitStream$[ebp]
	call	??$Read@E@BitStream@RakNet@@QAE_NAAE@Z	; RakNet::BitStream::Read<unsigned char>

; 1000 : 	
; 1001 : 	CVehicle *pVehicle = pNetowkManager->GetVehicleManager()->GetAt(vehicle);

	movzx	eax, BYTE PTR _vehicle$[ebp]
	push	eax
	mov	ecx, DWORD PTR ?pNetowkManager@@3PAVCNetworkManager@@A ; pNetowkManager
	call	?GetVehicleManager@CNetworkManager@@QAEPAVCVehicleManager@@XZ ; CNetworkManager::GetVehicleManager
	mov	ecx, eax
	call	?GetAt@CVehicleManager@@QAEPAVCVehicle@@E@Z ; CVehicleManager::GetAt
	mov	DWORD PTR _pVehicle$[ebp], eax

; 1002 : 	pVehicle->PopTrunk();

	mov	ecx, DWORD PTR _pVehicle$[ebp]
	call	?PopTrunk@CVehicle@@QAEXXZ		; CVehicle::PopTrunk

; 1003 : }

	push	edx
	mov	ecx, ebp
	push	eax
	lea	edx, DWORD PTR $LN5@Script_pop
	call	@_RTC_CheckStackVars@8
	pop	eax
	pop	edx
	pop	edi
	pop	esi
	pop	ebx
	add	esp, 216				; 000000d8H
	cmp	ebp, esp
	call	__RTC_CheckEsp
	mov	esp, ebp
	pop	ebp
	ret	0
	npad	3
$LN5@Script_pop:
	DD	1
	DD	$LN4@Script_pop
$LN4@Script_pop:
	DD	-5					; fffffffbH
	DD	1
	DD	$LN3@Script_pop
$LN3@Script_pop:
	DB	118					; 00000076H
	DB	101					; 00000065H
	DB	104					; 00000068H
	DB	105					; 00000069H
	DB	99					; 00000063H
	DB	108					; 0000006cH
	DB	101					; 00000065H
	DB	0
?Script_popVehicleTrunk@@YAXPAVBitStream@RakNet@@PAUPacket@2@@Z ENDP ; Script_popVehicleTrunk
_TEXT	ENDS
PUBLIC	?Script_setSkyColor@@YAXPAVBitStream@RakNet@@PAUPacket@2@@Z ; Script_setSkyColor
EXTRN	?SetSkyColor@CPlayerPed@@QAEXHH@Z:PROC		; CPlayerPed::SetSkyColor
; Function compile flags: /Odtp /RTCsu /ZI
;	COMDAT ?Script_setSkyColor@@YAXPAVBitStream@RakNet@@PAUPacket@2@@Z
_TEXT	SEGMENT
_pPlayer$ = -32						; size = 4
_iFade$ = -20						; size = 4
_iColor$ = -8						; size = 4
_bitStream$ = 8						; size = 4
_packet$ = 12						; size = 4
?Script_setSkyColor@@YAXPAVBitStream@RakNet@@PAUPacket@2@@Z PROC ; Script_setSkyColor, COMDAT

; 1007 : {

	push	ebp
	mov	ebp, esp
	sub	esp, 228				; 000000e4H
	push	ebx
	push	esi
	push	edi
	lea	edi, DWORD PTR [ebp-228]
	mov	ecx, 57					; 00000039H
	mov	eax, -858993460				; ccccccccH
	rep stosd

; 1008 : 	int iColor, iFade;
; 1009 : 
; 1010 : 	CPlayerPed *pPlayer = pGame->FindPlayerPed();

	mov	ecx, DWORD PTR ?pGame@@3PAVCGame@@A	; pGame
	call	?FindPlayerPed@CGame@@QAEPAVCPlayerPed@@XZ ; CGame::FindPlayerPed
	mov	DWORD PTR _pPlayer$[ebp], eax

; 1011 : 
; 1012 : 	bitStream->Read(iColor);

	lea	eax, DWORD PTR _iColor$[ebp]
	push	eax
	mov	ecx, DWORD PTR _bitStream$[ebp]
	call	??$Read@H@BitStream@RakNet@@QAE_NAAH@Z	; RakNet::BitStream::Read<int>

; 1013 : 	bitStream->Read(iFade);

	lea	eax, DWORD PTR _iFade$[ebp]
	push	eax
	mov	ecx, DWORD PTR _bitStream$[ebp]
	call	??$Read@H@BitStream@RakNet@@QAE_NAAH@Z	; RakNet::BitStream::Read<int>

; 1014 : 
; 1015 : 	pPlayer->SetSkyColor(iColor, iFade);

	mov	eax, DWORD PTR _iFade$[ebp]
	push	eax
	mov	ecx, DWORD PTR _iColor$[ebp]
	push	ecx
	mov	ecx, DWORD PTR _pPlayer$[ebp]
	call	?SetSkyColor@CPlayerPed@@QAEXHH@Z	; CPlayerPed::SetSkyColor

; 1016 : }

	push	edx
	mov	ecx, ebp
	push	eax
	lea	edx, DWORD PTR $LN6@Script_set
	call	@_RTC_CheckStackVars@8
	pop	eax
	pop	edx
	pop	edi
	pop	esi
	pop	ebx
	add	esp, 228				; 000000e4H
	cmp	ebp, esp
	call	__RTC_CheckEsp
	mov	esp, ebp
	pop	ebp
	ret	0
	npad	3
$LN6@Script_set:
	DD	2
	DD	$LN5@Script_set
$LN5@Script_set:
	DD	-8					; fffffff8H
	DD	4
	DD	$LN3@Script_set
	DD	-20					; ffffffecH
	DD	4
	DD	$LN4@Script_set
$LN4@Script_set:
	DB	105					; 00000069H
	DB	70					; 00000046H
	DB	97					; 00000061H
	DB	100					; 00000064H
	DB	101					; 00000065H
	DB	0
$LN3@Script_set:
	DB	105					; 00000069H
	DB	67					; 00000043H
	DB	111					; 0000006fH
	DB	108					; 0000006cH
	DB	111					; 0000006fH
	DB	114					; 00000072H
	DB	0
?Script_setSkyColor@@YAXPAVBitStream@RakNet@@PAUPacket@2@@Z ENDP ; Script_setSkyColor
_TEXT	ENDS
PUBLIC	?Script_setPlayerCash@@YAXPAVBitStream@RakNet@@PAUPacket@2@@Z ; Script_setPlayerCash
EXTRN	?SetCash@CGame@@QAEXH@Z:PROC			; CGame::SetCash
; Function compile flags: /Odtp /RTCsu /ZI
;	COMDAT ?Script_setPlayerCash@@YAXPAVBitStream@RakNet@@PAUPacket@2@@Z
_TEXT	SEGMENT
_Cash$ = -8						; size = 4
_bitStream$ = 8						; size = 4
_packet$ = 12						; size = 4
?Script_setPlayerCash@@YAXPAVBitStream@RakNet@@PAUPacket@2@@Z PROC ; Script_setPlayerCash, COMDAT

; 1020 : {

	push	ebp
	mov	ebp, esp
	sub	esp, 204				; 000000ccH
	push	ebx
	push	esi
	push	edi
	lea	edi, DWORD PTR [ebp-204]
	mov	ecx, 51					; 00000033H
	mov	eax, -858993460				; ccccccccH
	rep stosd

; 1021 : 	int Cash;
; 1022 : 	bitStream->Read(Cash);

	lea	eax, DWORD PTR _Cash$[ebp]
	push	eax
	mov	ecx, DWORD PTR _bitStream$[ebp]
	call	??$Read@H@BitStream@RakNet@@QAE_NAAH@Z	; RakNet::BitStream::Read<int>

; 1023 : 	pGame->SetCash(Cash);

	mov	eax, DWORD PTR _Cash$[ebp]
	push	eax
	mov	ecx, DWORD PTR ?pGame@@3PAVCGame@@A	; pGame
	call	?SetCash@CGame@@QAEXH@Z			; CGame::SetCash

; 1024 : }

	push	edx
	mov	ecx, ebp
	push	eax
	lea	edx, DWORD PTR $LN5@Script_set@2
	call	@_RTC_CheckStackVars@8
	pop	eax
	pop	edx
	pop	edi
	pop	esi
	pop	ebx
	add	esp, 204				; 000000ccH
	cmp	ebp, esp
	call	__RTC_CheckEsp
	mov	esp, ebp
	pop	ebp
	ret	0
	npad	2
$LN5@Script_set@2:
	DD	1
	DD	$LN4@Script_set@2
$LN4@Script_set@2:
	DD	-8					; fffffff8H
	DD	4
	DD	$LN3@Script_set@2
$LN3@Script_set@2:
	DB	67					; 00000043H
	DB	97					; 00000061H
	DB	115					; 00000073H
	DB	104					; 00000068H
	DB	0
?Script_setPlayerCash@@YAXPAVBitStream@RakNet@@PAUPacket@2@@Z ENDP ; Script_setPlayerCash
_TEXT	ENDS
PUBLIC	?Script_toggleDriveByState@@YAXPAVBitStream@RakNet@@PAUPacket@2@@Z ; Script_toggleDriveByState
EXTRN	?SetDrivebyState@CPlayerPed@@QAEXH@Z:PROC	; CPlayerPed::SetDrivebyState
; Function compile flags: /Odtp /RTCsu /ZI
;	COMDAT ?Script_toggleDriveByState@@YAXPAVBitStream@RakNet@@PAUPacket@2@@Z
_TEXT	SEGMENT
_pPlayer$ = -20						; size = 4
_iToggle$ = -8						; size = 4
_bitStream$ = 8						; size = 4
_packet$ = 12						; size = 4
?Script_toggleDriveByState@@YAXPAVBitStream@RakNet@@PAUPacket@2@@Z PROC ; Script_toggleDriveByState, COMDAT

; 1028 : {

	push	ebp
	mov	ebp, esp
	sub	esp, 216				; 000000d8H
	push	ebx
	push	esi
	push	edi
	lea	edi, DWORD PTR [ebp-216]
	mov	ecx, 54					; 00000036H
	mov	eax, -858993460				; ccccccccH
	rep stosd

; 1029 : 	int iToggle;
; 1030 : 
; 1031 : 	CPlayerPed *pPlayer = pGame->FindPlayerPed();

	mov	ecx, DWORD PTR ?pGame@@3PAVCGame@@A	; pGame
	call	?FindPlayerPed@CGame@@QAEPAVCPlayerPed@@XZ ; CGame::FindPlayerPed
	mov	DWORD PTR _pPlayer$[ebp], eax

; 1032 : 
; 1033 : 	bitStream->Read(iToggle);

	lea	eax, DWORD PTR _iToggle$[ebp]
	push	eax
	mov	ecx, DWORD PTR _bitStream$[ebp]
	call	??$Read@H@BitStream@RakNet@@QAE_NAAH@Z	; RakNet::BitStream::Read<int>

; 1034 : 
; 1035 : 	pPlayer->SetDrivebyState(iToggle);

	mov	eax, DWORD PTR _iToggle$[ebp]
	push	eax
	mov	ecx, DWORD PTR _pPlayer$[ebp]
	call	?SetDrivebyState@CPlayerPed@@QAEXH@Z	; CPlayerPed::SetDrivebyState

; 1036 : }

	push	edx
	mov	ecx, ebp
	push	eax
	lea	edx, DWORD PTR $LN5@Script_tog@3
	call	@_RTC_CheckStackVars@8
	pop	eax
	pop	edx
	pop	edi
	pop	esi
	pop	ebx
	add	esp, 216				; 000000d8H
	cmp	ebp, esp
	call	__RTC_CheckEsp
	mov	esp, ebp
	pop	ebp
	ret	0
	npad	3
$LN5@Script_tog@3:
	DD	1
	DD	$LN4@Script_tog@3
$LN4@Script_tog@3:
	DD	-8					; fffffff8H
	DD	4
	DD	$LN3@Script_tog@3
$LN3@Script_tog@3:
	DB	105					; 00000069H
	DB	84					; 00000054H
	DB	111					; 0000006fH
	DB	103					; 00000067H
	DB	103					; 00000067H
	DB	108					; 0000006cH
	DB	101					; 00000065H
	DB	0
?Script_toggleDriveByState@@YAXPAVBitStream@RakNet@@PAUPacket@2@@Z ENDP ; Script_toggleDriveByState
_TEXT	ENDS
PUBLIC	?Script_ClientCall@@YAXPAVBitStream@RakNet@@PAUPacket@2@@Z ; Script_ClientCall
EXTRN	?Call@CScripts@@QAEXPAVBitStream@RakNet@@@Z:PROC ; CScripts::Call
; Function compile flags: /Odtp /RTCsu /ZI
;	COMDAT ?Script_ClientCall@@YAXPAVBitStream@RakNet@@PAUPacket@2@@Z
_TEXT	SEGMENT
_bitStream$ = 8						; size = 4
_packet$ = 12						; size = 4
?Script_ClientCall@@YAXPAVBitStream@RakNet@@PAUPacket@2@@Z PROC ; Script_ClientCall, COMDAT

; 1039 : {

	push	ebp
	mov	ebp, esp
	sub	esp, 192				; 000000c0H
	push	ebx
	push	esi
	push	edi
	lea	edi, DWORD PTR [ebp-192]
	mov	ecx, 48					; 00000030H
	mov	eax, -858993460				; ccccccccH
	rep stosd

; 1040 : 	pScripts->Call(bitStream);

	mov	eax, DWORD PTR _bitStream$[ebp]
	push	eax
	mov	ecx, DWORD PTR ?pScripts@@3PAVCScripts@@A ; pScripts
	call	?Call@CScripts@@QAEXPAVBitStream@RakNet@@@Z ; CScripts::Call

; 1041 : }

	pop	edi
	pop	esi
	pop	ebx
	add	esp, 192				; 000000c0H
	cmp	ebp, esp
	call	__RTC_CheckEsp
	mov	esp, ebp
	pop	ebp
	ret	0
?Script_ClientCall@@YAXPAVBitStream@RakNet@@PAUPacket@2@@Z ENDP ; Script_ClientCall
_TEXT	ENDS
PUBLIC	?Script_toggleCellPhone@@YAXPAVBitStream@RakNet@@PAUPacket@2@@Z ; Script_toggleCellPhone
EXTRN	?SetCellAction@CPlayerPed@@QAEXH@Z:PROC		; CPlayerPed::SetCellAction
; Function compile flags: /Odtp /RTCsu /ZI
;	COMDAT ?Script_toggleCellPhone@@YAXPAVBitStream@RakNet@@PAUPacket@2@@Z
_TEXT	SEGMENT
_pPlayer$ = -20						; size = 4
_iToggle$ = -8						; size = 4
_bitStream$ = 8						; size = 4
_packet$ = 12						; size = 4
?Script_toggleCellPhone@@YAXPAVBitStream@RakNet@@PAUPacket@2@@Z PROC ; Script_toggleCellPhone, COMDAT

; 1045 : {

	push	ebp
	mov	ebp, esp
	sub	esp, 216				; 000000d8H
	push	ebx
	push	esi
	push	edi
	lea	edi, DWORD PTR [ebp-216]
	mov	ecx, 54					; 00000036H
	mov	eax, -858993460				; ccccccccH
	rep stosd

; 1046 : 	int iToggle;
; 1047 : 	CPlayerPed *pPlayer = pGame->FindPlayerPed();

	mov	ecx, DWORD PTR ?pGame@@3PAVCGame@@A	; pGame
	call	?FindPlayerPed@CGame@@QAEPAVCPlayerPed@@XZ ; CGame::FindPlayerPed
	mov	DWORD PTR _pPlayer$[ebp], eax

; 1048 : 
; 1049 : 	bitStream->Read(iToggle);

	lea	eax, DWORD PTR _iToggle$[ebp]
	push	eax
	mov	ecx, DWORD PTR _bitStream$[ebp]
	call	??$Read@H@BitStream@RakNet@@QAE_NAAH@Z	; RakNet::BitStream::Read<int>

; 1050 : 
; 1051 : 	pPlayer->SetCellAction(iToggle);

	mov	eax, DWORD PTR _iToggle$[ebp]
	push	eax
	mov	ecx, DWORD PTR _pPlayer$[ebp]
	call	?SetCellAction@CPlayerPed@@QAEXH@Z	; CPlayerPed::SetCellAction

; 1052 : }

	push	edx
	mov	ecx, ebp
	push	eax
	lea	edx, DWORD PTR $LN5@Script_tog@4
	call	@_RTC_CheckStackVars@8
	pop	eax
	pop	edx
	pop	edi
	pop	esi
	pop	ebx
	add	esp, 216				; 000000d8H
	cmp	ebp, esp
	call	__RTC_CheckEsp
	mov	esp, ebp
	pop	ebp
	ret	0
	npad	3
$LN5@Script_tog@4:
	DD	1
	DD	$LN4@Script_tog@4
$LN4@Script_tog@4:
	DD	-8					; fffffff8H
	DD	4
	DD	$LN3@Script_tog@4
$LN3@Script_tog@4:
	DB	105					; 00000069H
	DB	84					; 00000054H
	DB	111					; 0000006fH
	DB	103					; 00000067H
	DB	103					; 00000067H
	DB	108					; 0000006cH
	DB	101					; 00000065H
	DB	0
?Script_toggleCellPhone@@YAXPAVBitStream@RakNet@@PAUPacket@2@@Z ENDP ; Script_toggleCellPhone
_TEXT	ENDS
PUBLIC	?Script_SetCameraShakeIntensity@@YAXPAVBitStream@RakNet@@PAUPacket@2@@Z ; Script_SetCameraShakeIntensity
EXTRN	?SetCameraShakeIntensity@CPlayerPed@@QAEXH@Z:PROC ; CPlayerPed::SetCameraShakeIntensity
; Function compile flags: /Odtp /RTCsu /ZI
;	COMDAT ?Script_SetCameraShakeIntensity@@YAXPAVBitStream@RakNet@@PAUPacket@2@@Z
_TEXT	SEGMENT
_pPlayer$ = -20						; size = 4
_iIntensity$ = -8					; size = 4
_bitStream$ = 8						; size = 4
_packet$ = 12						; size = 4
?Script_SetCameraShakeIntensity@@YAXPAVBitStream@RakNet@@PAUPacket@2@@Z PROC ; Script_SetCameraShakeIntensity, COMDAT

; 1056 : {

	push	ebp
	mov	ebp, esp
	sub	esp, 216				; 000000d8H
	push	ebx
	push	esi
	push	edi
	lea	edi, DWORD PTR [ebp-216]
	mov	ecx, 54					; 00000036H
	mov	eax, -858993460				; ccccccccH
	rep stosd

; 1057 : 	int iIntensity;
; 1058 : 
; 1059 : 	CPlayerPed *pPlayer = pGame->FindPlayerPed();

	mov	ecx, DWORD PTR ?pGame@@3PAVCGame@@A	; pGame
	call	?FindPlayerPed@CGame@@QAEPAVCPlayerPed@@XZ ; CGame::FindPlayerPed
	mov	DWORD PTR _pPlayer$[ebp], eax

; 1060 : 
; 1061 : 	bitStream->Read(iIntensity);

	lea	eax, DWORD PTR _iIntensity$[ebp]
	push	eax
	mov	ecx, DWORD PTR _bitStream$[ebp]
	call	??$Read@H@BitStream@RakNet@@QAE_NAAH@Z	; RakNet::BitStream::Read<int>

; 1062 : 
; 1063 : 	pPlayer->SetCameraShakeIntensity(iIntensity);

	mov	eax, DWORD PTR _iIntensity$[ebp]
	push	eax
	mov	ecx, DWORD PTR _pPlayer$[ebp]
	call	?SetCameraShakeIntensity@CPlayerPed@@QAEXH@Z ; CPlayerPed::SetCameraShakeIntensity

; 1064 : }

	push	edx
	mov	ecx, ebp
	push	eax
	lea	edx, DWORD PTR $LN5@Script_Set@19
	call	@_RTC_CheckStackVars@8
	pop	eax
	pop	edx
	pop	edi
	pop	esi
	pop	ebx
	add	esp, 216				; 000000d8H
	cmp	ebp, esp
	call	__RTC_CheckEsp
	mov	esp, ebp
	pop	ebp
	ret	0
	npad	3
$LN5@Script_Set@19:
	DD	1
	DD	$LN4@Script_Set@19
$LN4@Script_Set@19:
	DD	-8					; fffffff8H
	DD	4
	DD	$LN3@Script_Set@19
$LN3@Script_Set@19:
	DB	105					; 00000069H
	DB	73					; 00000049H
	DB	110					; 0000006eH
	DB	116					; 00000074H
	DB	101					; 00000065H
	DB	110					; 0000006eH
	DB	115					; 00000073H
	DB	105					; 00000069H
	DB	116					; 00000074H
	DB	121					; 00000079H
	DB	0
?Script_SetCameraShakeIntensity@@YAXPAVBitStream@RakNet@@PAUPacket@2@@Z ENDP ; Script_SetCameraShakeIntensity
_TEXT	ENDS
PUBLIC	?Script_setPlayerGravity@@YAXPAVBitStream@RakNet@@PAUPacket@2@@Z ; Script_setPlayerGravity
EXTRN	?SetGravity@CGame@@QAEXM@Z:PROC			; CGame::SetGravity
; Function compile flags: /Odtp /RTCsu /ZI
;	COMDAT ?Script_setPlayerGravity@@YAXPAVBitStream@RakNet@@PAUPacket@2@@Z
_TEXT	SEGMENT
_amount$ = -8						; size = 4
_bitStream$ = 8						; size = 4
_packet$ = 12						; size = 4
?Script_setPlayerGravity@@YAXPAVBitStream@RakNet@@PAUPacket@2@@Z PROC ; Script_setPlayerGravity, COMDAT

; 1068 : {

	push	ebp
	mov	ebp, esp
	sub	esp, 204				; 000000ccH
	push	ebx
	push	esi
	push	edi
	lea	edi, DWORD PTR [ebp-204]
	mov	ecx, 51					; 00000033H
	mov	eax, -858993460				; ccccccccH
	rep stosd

; 1069 : 	float amount;
; 1070 : 	bitStream->Read(amount);

	lea	eax, DWORD PTR _amount$[ebp]
	push	eax
	mov	ecx, DWORD PTR _bitStream$[ebp]
	call	??$Read@M@BitStream@RakNet@@QAE_NAAM@Z	; RakNet::BitStream::Read<float>

; 1071 : 	pGame->SetGravity(amount);

	push	ecx
	fld	DWORD PTR _amount$[ebp]
	fstp	DWORD PTR [esp]
	mov	ecx, DWORD PTR ?pGame@@3PAVCGame@@A	; pGame
	call	?SetGravity@CGame@@QAEXM@Z		; CGame::SetGravity

; 1072 : }

	push	edx
	mov	ecx, ebp
	push	eax
	lea	edx, DWORD PTR $LN5@Script_set@3
	call	@_RTC_CheckStackVars@8
	pop	eax
	pop	edx
	pop	edi
	pop	esi
	pop	ebx
	add	esp, 204				; 000000ccH
	cmp	ebp, esp
	call	__RTC_CheckEsp
	mov	esp, ebp
	pop	ebp
	ret	0
	npad	3
$LN5@Script_set@3:
	DD	1
	DD	$LN4@Script_set@3
$LN4@Script_set@3:
	DD	-8					; fffffff8H
	DD	4
	DD	$LN3@Script_set@3
$LN3@Script_set@3:
	DB	97					; 00000061H
	DB	109					; 0000006dH
	DB	111					; 0000006fH
	DB	117					; 00000075H
	DB	110					; 0000006eH
	DB	116					; 00000074H
	DB	0
?Script_setPlayerGravity@@YAXPAVBitStream@RakNet@@PAUPacket@2@@Z ENDP ; Script_setPlayerGravity
_TEXT	ENDS
PUBLIC	?GetCheckpoints@CNetworkManager@@QAEPAVCCheckpoints@@XZ ; CNetworkManager::GetCheckpoints
PUBLIC	?CreateCheckpoint@@YAXPAVBitStream@RakNet@@PAUPacket@2@@Z ; CreateCheckpoint
EXTRN	?New@CCheckpoints@@QAEXEUVector3@@EM@Z:PROC	; CCheckpoints::New
; Function compile flags: /Odtp /RTCsu /ZI
;	COMDAT ?CreateCheckpoint@@YAXPAVBitStream@RakNet@@PAUPacket@2@@Z
_TEXT	SEGMENT
_cpId$ = -37						; size = 1
_fRadius$ = -28						; size = 4
_vecPos$ = -16						; size = 12
_bitStream$ = 8						; size = 4
_packet$ = 12						; size = 4
?CreateCheckpoint@@YAXPAVBitStream@RakNet@@PAUPacket@2@@Z PROC ; CreateCheckpoint, COMDAT

; 1075 : {

	push	ebp
	mov	ebp, esp
	sub	esp, 236				; 000000ecH
	push	ebx
	push	esi
	push	edi
	lea	edi, DWORD PTR [ebp-236]
	mov	ecx, 59					; 0000003bH
	mov	eax, -858993460				; ccccccccH
	rep stosd

; 1076 : 	Vector3 vecPos;

	lea	ecx, DWORD PTR _vecPos$[ebp]
	call	??0Vector3@@QAE@XZ			; Vector3::Vector3

; 1077 : 	float fRadius;
; 1078 : 	EntityId cpId;
; 1079 : 	bitStream->Read(cpId);

	lea	eax, DWORD PTR _cpId$[ebp]
	push	eax
	mov	ecx, DWORD PTR _bitStream$[ebp]
	call	??$Read@E@BitStream@RakNet@@QAE_NAAE@Z	; RakNet::BitStream::Read<unsigned char>

; 1080 : 	bitStream->Read((char*)&vecPos, sizeof(Vector3));

	push	12					; 0000000cH
	lea	eax, DWORD PTR _vecPos$[ebp]
	push	eax
	mov	ecx, DWORD PTR _bitStream$[ebp]
	call	?Read@BitStream@RakNet@@QAE_NPADI@Z	; RakNet::BitStream::Read

; 1081 : 	bitStream->Read(fRadius);

	lea	eax, DWORD PTR _fRadius$[ebp]
	push	eax
	mov	ecx, DWORD PTR _bitStream$[ebp]
	call	??$Read@M@BitStream@RakNet@@QAE_NAAM@Z	; RakNet::BitStream::Read<float>

; 1082 : 
; 1083 : 	pNetowkManager->GetCheckpoints()->New(cpId, vecPos, 0, fRadius);

	push	ecx
	fld	DWORD PTR _fRadius$[ebp]
	fstp	DWORD PTR [esp]
	push	0
	sub	esp, 12					; 0000000cH
	mov	eax, esp
	mov	ecx, DWORD PTR _vecPos$[ebp]
	mov	DWORD PTR [eax], ecx
	mov	edx, DWORD PTR _vecPos$[ebp+4]
	mov	DWORD PTR [eax+4], edx
	mov	ecx, DWORD PTR _vecPos$[ebp+8]
	mov	DWORD PTR [eax+8], ecx
	movzx	edx, BYTE PTR _cpId$[ebp]
	push	edx
	mov	ecx, DWORD PTR ?pNetowkManager@@3PAVCNetworkManager@@A ; pNetowkManager
	call	?GetCheckpoints@CNetworkManager@@QAEPAVCCheckpoints@@XZ ; CNetworkManager::GetCheckpoints
	mov	ecx, eax
	call	?New@CCheckpoints@@QAEXEUVector3@@EM@Z	; CCheckpoints::New

; 1084 : }

	push	edx
	mov	ecx, ebp
	push	eax
	lea	edx, DWORD PTR $LN7@CreateChec
	call	@_RTC_CheckStackVars@8
	pop	eax
	pop	edx
	pop	edi
	pop	esi
	pop	ebx
	add	esp, 236				; 000000ecH
	cmp	ebp, esp
	call	__RTC_CheckEsp
	mov	esp, ebp
	pop	ebp
	ret	0
	npad	1
$LN7@CreateChec:
	DD	3
	DD	$LN6@CreateChec
$LN6@CreateChec:
	DD	-16					; fffffff0H
	DD	12					; 0000000cH
	DD	$LN3@CreateChec
	DD	-28					; ffffffe4H
	DD	4
	DD	$LN4@CreateChec
	DD	-37					; ffffffdbH
	DD	1
	DD	$LN5@CreateChec
$LN5@CreateChec:
	DB	99					; 00000063H
	DB	112					; 00000070H
	DB	73					; 00000049H
	DB	100					; 00000064H
	DB	0
$LN4@CreateChec:
	DB	102					; 00000066H
	DB	82					; 00000052H
	DB	97					; 00000061H
	DB	100					; 00000064H
	DB	105					; 00000069H
	DB	117					; 00000075H
	DB	115					; 00000073H
	DB	0
$LN3@CreateChec:
	DB	118					; 00000076H
	DB	101					; 00000065H
	DB	99					; 00000063H
	DB	80					; 00000050H
	DB	111					; 0000006fH
	DB	115					; 00000073H
	DB	0
?CreateCheckpoint@@YAXPAVBitStream@RakNet@@PAUPacket@2@@Z ENDP ; CreateCheckpoint
_TEXT	ENDS
PUBLIC	?DestroyCheckpoint@@YAXPAVBitStream@RakNet@@PAUPacket@2@@Z ; DestroyCheckpoint
EXTRN	?Delete@CCheckpoints@@QAEXE@Z:PROC		; CCheckpoints::Delete
; Function compile flags: /Odtp /RTCsu /ZI
;	COMDAT ?DestroyCheckpoint@@YAXPAVBitStream@RakNet@@PAUPacket@2@@Z
_TEXT	SEGMENT
_cpId$ = -5						; size = 1
_bitStream$ = 8						; size = 4
_packet$ = 12						; size = 4
?DestroyCheckpoint@@YAXPAVBitStream@RakNet@@PAUPacket@2@@Z PROC ; DestroyCheckpoint, COMDAT

; 1087 : {

	push	ebp
	mov	ebp, esp
	sub	esp, 204				; 000000ccH
	push	ebx
	push	esi
	push	edi
	lea	edi, DWORD PTR [ebp-204]
	mov	ecx, 51					; 00000033H
	mov	eax, -858993460				; ccccccccH
	rep stosd

; 1088 : 	EntityId cpId;
; 1089 : 	bitStream->Read(cpId);

	lea	eax, DWORD PTR _cpId$[ebp]
	push	eax
	mov	ecx, DWORD PTR _bitStream$[ebp]
	call	??$Read@E@BitStream@RakNet@@QAE_NAAE@Z	; RakNet::BitStream::Read<unsigned char>

; 1090 : 
; 1091 : 	pNetowkManager->GetCheckpoints()->Delete(cpId);

	movzx	eax, BYTE PTR _cpId$[ebp]
	push	eax
	mov	ecx, DWORD PTR ?pNetowkManager@@3PAVCNetworkManager@@A ; pNetowkManager
	call	?GetCheckpoints@CNetworkManager@@QAEPAVCCheckpoints@@XZ ; CNetworkManager::GetCheckpoints
	mov	ecx, eax
	call	?Delete@CCheckpoints@@QAEXE@Z		; CCheckpoints::Delete

; 1092 : }

	push	edx
	mov	ecx, ebp
	push	eax
	lea	edx, DWORD PTR $LN5@DestroyChe
	call	@_RTC_CheckStackVars@8
	pop	eax
	pop	edx
	pop	edi
	pop	esi
	pop	ebx
	add	esp, 204				; 000000ccH
	cmp	ebp, esp
	call	__RTC_CheckEsp
	mov	esp, ebp
	pop	ebp
	ret	0
	npad	2
$LN5@DestroyChe:
	DD	1
	DD	$LN4@DestroyChe
$LN4@DestroyChe:
	DD	-5					; fffffffbH
	DD	1
	DD	$LN3@DestroyChe
$LN3@DestroyChe:
	DB	99					; 00000063H
	DB	112					; 00000070H
	DB	73					; 00000049H
	DB	100					; 00000064H
	DB	0
?DestroyCheckpoint@@YAXPAVBitStream@RakNet@@PAUPacket@2@@Z ENDP ; DestroyCheckpoint
_TEXT	ENDS
PUBLIC	??_C@_0BE@IIFONLCF@Script_SetTextColor?$AA@	; `string'
PUBLIC	??_C@_0BH@HDIABCDH@Script_SetTextPosition?$AA@	; `string'
PUBLIC	??_C@_0P@MGACINNB@Script_SetText?$AA@		; `string'
PUBLIC	??_C@_0BL@ICODJLP@Script_toggleTextForPlayer?$AA@ ; `string'
PUBLIC	??_C@_0BI@LAFFGLND@Script_SetPlayerGravity?$AA@	; `string'
PUBLIC	??_C@_0BP@JICENCHE@Script_SetCameraShakeIntensity?$AA@ ; `string'
PUBLIC	??_C@_0BH@BGEKPAPM@Script_toggleCellPhone?$AA@	; `string'
PUBLIC	??_C@_0BK@FPNBELGH@Script_toggleDriveByState?$AA@ ; `string'
PUBLIC	??_C@_0BF@IAKLGKLC@Script_SetPlayerCash?$AA@	; `string'
PUBLIC	??_C@_0BD@NFPGPEME@Script_setSkyColor?$AA@	; `string'
PUBLIC	??_C@_0BH@ODMNJBOL@Script_popVehicleTrunk?$AA@	; `string'
PUBLIC	??_C@_0BB@OGNPJHKC@Script_FlashItem?$AA@	; `string'
PUBLIC	??_C@_0BM@JDJOIP@Script_togglePlayerBleeding?$AA@ ; `string'
PUBLIC	??_C@_0BL@MJMANHOA@Script_forceClassSelection?$AA@ ; `string'
PUBLIC	??_C@_0BC@MHLILHLB@Script_ClientCall?$AA@	; `string'
PUBLIC	??_C@_0BC@ELPNNOMJ@Script_FadeScreen?$AA@	; `string'
PUBLIC	??_C@_0BB@CNAICHEE@Script_PlaySound?$AA@	; `string'
PUBLIC	??_C@_0BG@MFDLPIHF@Script_DestroyVehicle?$AA@	; `string'
PUBLIC	??_C@_0BL@CBCCEGMH@Script_SetVehicleMoveSpeed?$AA@ ; `string'
PUBLIC	??_C@_0BL@EFDKHOAK@Script_SetVehicleTurnSpeed?$AA@ ; `string'
PUBLIC	??_C@_0BF@KEADIOHE@Script_SetVehiclePos?$AA@	; `string'
PUBLIC	??_C@_0BH@JCOJBGED@Script_SetVehicleColor?$AA@	; `string'
PUBLIC	??_C@_0BI@PFHHIOC@Script_SetVehicleHealth?$AA@	; `string'
PUBLIC	??_C@_0BD@EGMFIMMC@Script_WorldBounds?$AA@	; `string'
PUBLIC	??_C@_0BF@INNPMDDM@Script_ClientMessage?$AA@	; `string'
PUBLIC	??_C@_0BG@KBAEAJBJ@Script_ToggleControls?$AA@	; `string'
PUBLIC	??_C@_0BJ@HMIOHONK@Script_RemoveFromVehicle?$AA@ ; `string'
PUBLIC	??_C@_0BG@HCEEGJLD@Script_SetArmedWeapon?$AA@	; `string'
PUBLIC	??_C@_0BJ@OMGADBBB@Script_SetPlayerRotation?$AA@ ; `string'
PUBLIC	??_C@_0BH@BDKKAFLE@Script_SetPlayerAction?$AA@	; `string'
PUBLIC	??_C@_0BH@BHCKPGDP@Script_SetPlayerZAngle?$AA@	; `string'
PUBLIC	??_C@_0BF@MIBNJMHE@Script_SetPlayerSkin?$AA@	; `string'
PUBLIC	??_C@_0BI@DHKPDBDP@Script_GivePlayerWeapon?$AA@	; `string'
PUBLIC	??_C@_0BE@PJFBADEA@Script_PutInVehicle?$AA@	; `string'
PUBLIC	??_C@_0BE@JPIJADJC@Script_SetMoveSpeed?$AA@	; `string'
PUBLIC	??_C@_0BE@PLJBDLFP@Script_SetTurnSpeed?$AA@	; `string'
PUBLIC	??_C@_0O@DIDNBNFF@Script_SetPos?$AA@		; `string'
PUBLIC	??_C@_0BB@EADEDFCI@Script_SetArmour?$AA@	; `string'
PUBLIC	??_C@_0BB@KNNFJANL@Script_SetHealth?$AA@	; `string'
PUBLIC	??_C@_0O@MFCOAPBO@PickupDestroy?$AA@		; `string'
PUBLIC	??_C@_0M@CFGEBGPI@PickupSpawn?$AA@		; `string'
PUBLIC	??_C@_0BC@FMKKBIFO@DestroyCheckpoint?$AA@	; `string'
PUBLIC	??_C@_0BB@NJBCHBLP@CreateCheckpoint?$AA@	; `string'
PUBLIC	??_C@_0O@MNPHEIJ@InflictDamage?$AA@		; `string'
PUBLIC	??_C@_0M@EJIBDOOP@DestroyText?$AA@		; `string'
PUBLIC	??_C@_0L@LDBPIBGH@CreateText?$AA@		; `string'
PUBLIC	??_C@_0O@KKECIJBD@ObjectDestroy?$AA@		; `string'
PUBLIC	??_C@_0M@CIFAPNG@ObjectSpawn?$AA@		; `string'
PUBLIC	??_C@_0BD@HIINJMPI@UploadClientScript?$AA@	; `string'
PUBLIC	??_C@_0BG@MOOIHGOB@SetCameraBehindPlayer?$AA@	; `string'
PUBLIC	??_C@_0BA@BKMCOEGM@SetCameraLookAt?$AA@		; `string'
PUBLIC	??_C@_0BC@LNCIBIDJ@SetCameraRotation?$AA@	; `string'
PUBLIC	??_C@_0BC@LKCKIMFM@SetCameraPosition?$AA@	; `string'
PUBLIC	??_C@_0M@NGDMMFMA@SetGameTime?$AA@		; `string'
PUBLIC	??_C@_09JKPJFCCD@Passenger?$AA@			; `string'
PUBLIC	??_C@_0BD@HFLMHEOC@ConnectionRejected?$AA@	; `string'
PUBLIC	??_C@_0BD@OIDOAIGE@UpdateScoreAndPing?$AA@	; `string'
PUBLIC	??_C@_0P@PANOBCJK@VehicleDestroy?$AA@		; `string'
PUBLIC	??_C@_0N@EPEGELNF@VehicleSpawn?$AA@		; `string'
PUBLIC	??_C@_0M@KCCAADOG@ExitVehicle?$AA@		; `string'
PUBLIC	??_C@_0N@HMLMNFIG@EnterVehicle?$AA@		; `string'
PUBLIC	??_C@_05PGGAFPFO@Death?$AA@			; `string'
PUBLIC	??_C@_05BEKPGMFA@Spawn?$AA@			; `string'
PUBLIC	??_C@_0N@COFNMLME@RequestClass?$AA@		; `string'
PUBLIC	??_C@_04NKFKOIHC@Chat?$AA@			; `string'
PUBLIC	??_C@_08BBPHHJML@InitGame?$AA@			; `string'
PUBLIC	??_C@_0L@DMCDHMEG@ServerQuit?$AA@		; `string'
PUBLIC	?GetRPC4@CNetworkManager@@QAEPAVRPC4@RakNet@@XZ	; CNetworkManager::GetRPC4
PUBLIC	??_C@_0L@KEJKJHPF@ServerJoin?$AA@		; `string'
PUBLIC	?RegisterRPCs@@YAXXZ				; RegisterRPCs
EXTRN	?RegisterFunction@RPC4@RakNet@@QAE_NPBDP6AXPAVBitStream@2@PAUPacket@2@@Z@Z:PROC ; RakNet::RPC4::RegisterFunction
;	COMDAT ??_C@_0BE@IIFONLCF@Script_SetTextColor?$AA@
CONST	SEGMENT
??_C@_0BE@IIFONLCF@Script_SetTextColor?$AA@ DB 'Script_SetTextColor', 00H ; `string'
CONST	ENDS
;	COMDAT ??_C@_0BH@HDIABCDH@Script_SetTextPosition?$AA@
CONST	SEGMENT
??_C@_0BH@HDIABCDH@Script_SetTextPosition?$AA@ DB 'Script_SetTextPosition'
	DB	00H						; `string'
CONST	ENDS
;	COMDAT ??_C@_0P@MGACINNB@Script_SetText?$AA@
CONST	SEGMENT
??_C@_0P@MGACINNB@Script_SetText?$AA@ DB 'Script_SetText', 00H ; `string'
CONST	ENDS
;	COMDAT ??_C@_0BL@ICODJLP@Script_toggleTextForPlayer?$AA@
CONST	SEGMENT
??_C@_0BL@ICODJLP@Script_toggleTextForPlayer?$AA@ DB 'Script_toggleTextFo'
	DB	'rPlayer', 00H				; `string'
CONST	ENDS
;	COMDAT ??_C@_0BI@LAFFGLND@Script_SetPlayerGravity?$AA@
CONST	SEGMENT
??_C@_0BI@LAFFGLND@Script_SetPlayerGravity?$AA@ DB 'Script_SetPlayerGravi'
	DB	'ty', 00H					; `string'
CONST	ENDS
;	COMDAT ??_C@_0BP@JICENCHE@Script_SetCameraShakeIntensity?$AA@
CONST	SEGMENT
??_C@_0BP@JICENCHE@Script_SetCameraShakeIntensity?$AA@ DB 'Script_SetCame'
	DB	'raShakeIntensity', 00H			; `string'
CONST	ENDS
;	COMDAT ??_C@_0BH@BGEKPAPM@Script_toggleCellPhone?$AA@
CONST	SEGMENT
??_C@_0BH@BGEKPAPM@Script_toggleCellPhone?$AA@ DB 'Script_toggleCellPhone'
	DB	00H						; `string'
CONST	ENDS
;	COMDAT ??_C@_0BK@FPNBELGH@Script_toggleDriveByState?$AA@
CONST	SEGMENT
??_C@_0BK@FPNBELGH@Script_toggleDriveByState?$AA@ DB 'Script_toggleDriveB'
	DB	'yState', 00H				; `string'
CONST	ENDS
;	COMDAT ??_C@_0BF@IAKLGKLC@Script_SetPlayerCash?$AA@
CONST	SEGMENT
??_C@_0BF@IAKLGKLC@Script_SetPlayerCash?$AA@ DB 'Script_SetPlayerCash', 00H ; `string'
CONST	ENDS
;	COMDAT ??_C@_0BD@NFPGPEME@Script_setSkyColor?$AA@
CONST	SEGMENT
??_C@_0BD@NFPGPEME@Script_setSkyColor?$AA@ DB 'Script_setSkyColor', 00H ; `string'
CONST	ENDS
;	COMDAT ??_C@_0BH@ODMNJBOL@Script_popVehicleTrunk?$AA@
CONST	SEGMENT
??_C@_0BH@ODMNJBOL@Script_popVehicleTrunk?$AA@ DB 'Script_popVehicleTrunk'
	DB	00H						; `string'
CONST	ENDS
;	COMDAT ??_C@_0BB@OGNPJHKC@Script_FlashItem?$AA@
CONST	SEGMENT
??_C@_0BB@OGNPJHKC@Script_FlashItem?$AA@ DB 'Script_FlashItem', 00H ; `string'
CONST	ENDS
;	COMDAT ??_C@_0BM@JDJOIP@Script_togglePlayerBleeding?$AA@
CONST	SEGMENT
??_C@_0BM@JDJOIP@Script_togglePlayerBleeding?$AA@ DB 'Script_togglePlayer'
	DB	'Bleeding', 00H				; `string'
CONST	ENDS
;	COMDAT ??_C@_0BL@MJMANHOA@Script_forceClassSelection?$AA@
CONST	SEGMENT
??_C@_0BL@MJMANHOA@Script_forceClassSelection?$AA@ DB 'Script_forceClassS'
	DB	'election', 00H				; `string'
CONST	ENDS
;	COMDAT ??_C@_0BC@MHLILHLB@Script_ClientCall?$AA@
CONST	SEGMENT
??_C@_0BC@MHLILHLB@Script_ClientCall?$AA@ DB 'Script_ClientCall', 00H ; `string'
CONST	ENDS
;	COMDAT ??_C@_0BC@ELPNNOMJ@Script_FadeScreen?$AA@
CONST	SEGMENT
??_C@_0BC@ELPNNOMJ@Script_FadeScreen?$AA@ DB 'Script_FadeScreen', 00H ; `string'
CONST	ENDS
;	COMDAT ??_C@_0BB@CNAICHEE@Script_PlaySound?$AA@
CONST	SEGMENT
??_C@_0BB@CNAICHEE@Script_PlaySound?$AA@ DB 'Script_PlaySound', 00H ; `string'
CONST	ENDS
;	COMDAT ??_C@_0BG@MFDLPIHF@Script_DestroyVehicle?$AA@
CONST	SEGMENT
??_C@_0BG@MFDLPIHF@Script_DestroyVehicle?$AA@ DB 'Script_DestroyVehicle', 00H ; `string'
CONST	ENDS
;	COMDAT ??_C@_0BL@CBCCEGMH@Script_SetVehicleMoveSpeed?$AA@
CONST	SEGMENT
??_C@_0BL@CBCCEGMH@Script_SetVehicleMoveSpeed?$AA@ DB 'Script_SetVehicleM'
	DB	'oveSpeed', 00H				; `string'
CONST	ENDS
;	COMDAT ??_C@_0BL@EFDKHOAK@Script_SetVehicleTurnSpeed?$AA@
CONST	SEGMENT
??_C@_0BL@EFDKHOAK@Script_SetVehicleTurnSpeed?$AA@ DB 'Script_SetVehicleT'
	DB	'urnSpeed', 00H				; `string'
CONST	ENDS
;	COMDAT ??_C@_0BF@KEADIOHE@Script_SetVehiclePos?$AA@
CONST	SEGMENT
??_C@_0BF@KEADIOHE@Script_SetVehiclePos?$AA@ DB 'Script_SetVehiclePos', 00H ; `string'
CONST	ENDS
;	COMDAT ??_C@_0BH@JCOJBGED@Script_SetVehicleColor?$AA@
CONST	SEGMENT
??_C@_0BH@JCOJBGED@Script_SetVehicleColor?$AA@ DB 'Script_SetVehicleColor'
	DB	00H						; `string'
CONST	ENDS
;	COMDAT ??_C@_0BI@PFHHIOC@Script_SetVehicleHealth?$AA@
CONST	SEGMENT
??_C@_0BI@PFHHIOC@Script_SetVehicleHealth?$AA@ DB 'Script_SetVehicleHealt'
	DB	'h', 00H					; `string'
CONST	ENDS
;	COMDAT ??_C@_0BD@EGMFIMMC@Script_WorldBounds?$AA@
CONST	SEGMENT
??_C@_0BD@EGMFIMMC@Script_WorldBounds?$AA@ DB 'Script_WorldBounds', 00H ; `string'
CONST	ENDS
;	COMDAT ??_C@_0BF@INNPMDDM@Script_ClientMessage?$AA@
CONST	SEGMENT
??_C@_0BF@INNPMDDM@Script_ClientMessage?$AA@ DB 'Script_ClientMessage', 00H ; `string'
CONST	ENDS
;	COMDAT ??_C@_0BG@KBAEAJBJ@Script_ToggleControls?$AA@
CONST	SEGMENT
??_C@_0BG@KBAEAJBJ@Script_ToggleControls?$AA@ DB 'Script_ToggleControls', 00H ; `string'
CONST	ENDS
;	COMDAT ??_C@_0BJ@HMIOHONK@Script_RemoveFromVehicle?$AA@
CONST	SEGMENT
??_C@_0BJ@HMIOHONK@Script_RemoveFromVehicle?$AA@ DB 'Script_RemoveFromVeh'
	DB	'icle', 00H					; `string'
CONST	ENDS
;	COMDAT ??_C@_0BG@HCEEGJLD@Script_SetArmedWeapon?$AA@
CONST	SEGMENT
??_C@_0BG@HCEEGJLD@Script_SetArmedWeapon?$AA@ DB 'Script_SetArmedWeapon', 00H ; `string'
CONST	ENDS
;	COMDAT ??_C@_0BJ@OMGADBBB@Script_SetPlayerRotation?$AA@
CONST	SEGMENT
??_C@_0BJ@OMGADBBB@Script_SetPlayerRotation?$AA@ DB 'Script_SetPlayerRota'
	DB	'tion', 00H					; `string'
CONST	ENDS
;	COMDAT ??_C@_0BH@BDKKAFLE@Script_SetPlayerAction?$AA@
CONST	SEGMENT
??_C@_0BH@BDKKAFLE@Script_SetPlayerAction?$AA@ DB 'Script_SetPlayerAction'
	DB	00H						; `string'
CONST	ENDS
;	COMDAT ??_C@_0BH@BHCKPGDP@Script_SetPlayerZAngle?$AA@
CONST	SEGMENT
??_C@_0BH@BHCKPGDP@Script_SetPlayerZAngle?$AA@ DB 'Script_SetPlayerZAngle'
	DB	00H						; `string'
CONST	ENDS
;	COMDAT ??_C@_0BF@MIBNJMHE@Script_SetPlayerSkin?$AA@
CONST	SEGMENT
??_C@_0BF@MIBNJMHE@Script_SetPlayerSkin?$AA@ DB 'Script_SetPlayerSkin', 00H ; `string'
CONST	ENDS
;	COMDAT ??_C@_0BI@DHKPDBDP@Script_GivePlayerWeapon?$AA@
CONST	SEGMENT
??_C@_0BI@DHKPDBDP@Script_GivePlayerWeapon?$AA@ DB 'Script_GivePlayerWeap'
	DB	'on', 00H					; `string'
CONST	ENDS
;	COMDAT ??_C@_0BE@PJFBADEA@Script_PutInVehicle?$AA@
CONST	SEGMENT
??_C@_0BE@PJFBADEA@Script_PutInVehicle?$AA@ DB 'Script_PutInVehicle', 00H ; `string'
CONST	ENDS
;	COMDAT ??_C@_0BE@JPIJADJC@Script_SetMoveSpeed?$AA@
CONST	SEGMENT
??_C@_0BE@JPIJADJC@Script_SetMoveSpeed?$AA@ DB 'Script_SetMoveSpeed', 00H ; `string'
CONST	ENDS
;	COMDAT ??_C@_0BE@PLJBDLFP@Script_SetTurnSpeed?$AA@
CONST	SEGMENT
??_C@_0BE@PLJBDLFP@Script_SetTurnSpeed?$AA@ DB 'Script_SetTurnSpeed', 00H ; `string'
CONST	ENDS
;	COMDAT ??_C@_0O@DIDNBNFF@Script_SetPos?$AA@
CONST	SEGMENT
??_C@_0O@DIDNBNFF@Script_SetPos?$AA@ DB 'Script_SetPos', 00H ; `string'
CONST	ENDS
;	COMDAT ??_C@_0BB@EADEDFCI@Script_SetArmour?$AA@
CONST	SEGMENT
??_C@_0BB@EADEDFCI@Script_SetArmour?$AA@ DB 'Script_SetArmour', 00H ; `string'
CONST	ENDS
;	COMDAT ??_C@_0BB@KNNFJANL@Script_SetHealth?$AA@
CONST	SEGMENT
??_C@_0BB@KNNFJANL@Script_SetHealth?$AA@ DB 'Script_SetHealth', 00H ; `string'
CONST	ENDS
;	COMDAT ??_C@_0O@MFCOAPBO@PickupDestroy?$AA@
CONST	SEGMENT
??_C@_0O@MFCOAPBO@PickupDestroy?$AA@ DB 'PickupDestroy', 00H ; `string'
CONST	ENDS
;	COMDAT ??_C@_0M@CFGEBGPI@PickupSpawn?$AA@
CONST	SEGMENT
??_C@_0M@CFGEBGPI@PickupSpawn?$AA@ DB 'PickupSpawn', 00H ; `string'
CONST	ENDS
;	COMDAT ??_C@_0BC@FMKKBIFO@DestroyCheckpoint?$AA@
CONST	SEGMENT
??_C@_0BC@FMKKBIFO@DestroyCheckpoint?$AA@ DB 'DestroyCheckpoint', 00H ; `string'
CONST	ENDS
;	COMDAT ??_C@_0BB@NJBCHBLP@CreateCheckpoint?$AA@
CONST	SEGMENT
??_C@_0BB@NJBCHBLP@CreateCheckpoint?$AA@ DB 'CreateCheckpoint', 00H ; `string'
CONST	ENDS
;	COMDAT ??_C@_0O@MNPHEIJ@InflictDamage?$AA@
CONST	SEGMENT
??_C@_0O@MNPHEIJ@InflictDamage?$AA@ DB 'InflictDamage', 00H ; `string'
CONST	ENDS
;	COMDAT ??_C@_0M@EJIBDOOP@DestroyText?$AA@
CONST	SEGMENT
??_C@_0M@EJIBDOOP@DestroyText?$AA@ DB 'DestroyText', 00H ; `string'
CONST	ENDS
;	COMDAT ??_C@_0L@LDBPIBGH@CreateText?$AA@
CONST	SEGMENT
??_C@_0L@LDBPIBGH@CreateText?$AA@ DB 'CreateText', 00H	; `string'
CONST	ENDS
;	COMDAT ??_C@_0O@KKECIJBD@ObjectDestroy?$AA@
CONST	SEGMENT
??_C@_0O@KKECIJBD@ObjectDestroy?$AA@ DB 'ObjectDestroy', 00H ; `string'
CONST	ENDS
;	COMDAT ??_C@_0M@CIFAPNG@ObjectSpawn?$AA@
CONST	SEGMENT
??_C@_0M@CIFAPNG@ObjectSpawn?$AA@ DB 'ObjectSpawn', 00H	; `string'
CONST	ENDS
;	COMDAT ??_C@_0BD@HIINJMPI@UploadClientScript?$AA@
CONST	SEGMENT
??_C@_0BD@HIINJMPI@UploadClientScript?$AA@ DB 'UploadClientScript', 00H ; `string'
CONST	ENDS
;	COMDAT ??_C@_0BG@MOOIHGOB@SetCameraBehindPlayer?$AA@
CONST	SEGMENT
??_C@_0BG@MOOIHGOB@SetCameraBehindPlayer?$AA@ DB 'SetCameraBehindPlayer', 00H ; `string'
CONST	ENDS
;	COMDAT ??_C@_0BA@BKMCOEGM@SetCameraLookAt?$AA@
CONST	SEGMENT
??_C@_0BA@BKMCOEGM@SetCameraLookAt?$AA@ DB 'SetCameraLookAt', 00H ; `string'
CONST	ENDS
;	COMDAT ??_C@_0BC@LNCIBIDJ@SetCameraRotation?$AA@
CONST	SEGMENT
??_C@_0BC@LNCIBIDJ@SetCameraRotation?$AA@ DB 'SetCameraRotation', 00H ; `string'
CONST	ENDS
;	COMDAT ??_C@_0BC@LKCKIMFM@SetCameraPosition?$AA@
CONST	SEGMENT
??_C@_0BC@LKCKIMFM@SetCameraPosition?$AA@ DB 'SetCameraPosition', 00H ; `string'
CONST	ENDS
;	COMDAT ??_C@_0M@NGDMMFMA@SetGameTime?$AA@
CONST	SEGMENT
??_C@_0M@NGDMMFMA@SetGameTime?$AA@ DB 'SetGameTime', 00H ; `string'
CONST	ENDS
;	COMDAT ??_C@_09JKPJFCCD@Passenger?$AA@
CONST	SEGMENT
??_C@_09JKPJFCCD@Passenger?$AA@ DB 'Passenger', 00H	; `string'
CONST	ENDS
;	COMDAT ??_C@_0BD@HFLMHEOC@ConnectionRejected?$AA@
CONST	SEGMENT
??_C@_0BD@HFLMHEOC@ConnectionRejected?$AA@ DB 'ConnectionRejected', 00H ; `string'
CONST	ENDS
;	COMDAT ??_C@_0BD@OIDOAIGE@UpdateScoreAndPing?$AA@
CONST	SEGMENT
??_C@_0BD@OIDOAIGE@UpdateScoreAndPing?$AA@ DB 'UpdateScoreAndPing', 00H ; `string'
CONST	ENDS
;	COMDAT ??_C@_0P@PANOBCJK@VehicleDestroy?$AA@
CONST	SEGMENT
??_C@_0P@PANOBCJK@VehicleDestroy?$AA@ DB 'VehicleDestroy', 00H ; `string'
CONST	ENDS
;	COMDAT ??_C@_0N@EPEGELNF@VehicleSpawn?$AA@
CONST	SEGMENT
??_C@_0N@EPEGELNF@VehicleSpawn?$AA@ DB 'VehicleSpawn', 00H ; `string'
CONST	ENDS
;	COMDAT ??_C@_0M@KCCAADOG@ExitVehicle?$AA@
CONST	SEGMENT
??_C@_0M@KCCAADOG@ExitVehicle?$AA@ DB 'ExitVehicle', 00H ; `string'
CONST	ENDS
;	COMDAT ??_C@_0N@HMLMNFIG@EnterVehicle?$AA@
CONST	SEGMENT
??_C@_0N@HMLMNFIG@EnterVehicle?$AA@ DB 'EnterVehicle', 00H ; `string'
CONST	ENDS
;	COMDAT ??_C@_05PGGAFPFO@Death?$AA@
CONST	SEGMENT
??_C@_05PGGAFPFO@Death?$AA@ DB 'Death', 00H		; `string'
CONST	ENDS
;	COMDAT ??_C@_05BEKPGMFA@Spawn?$AA@
CONST	SEGMENT
??_C@_05BEKPGMFA@Spawn?$AA@ DB 'Spawn', 00H		; `string'
CONST	ENDS
;	COMDAT ??_C@_0N@COFNMLME@RequestClass?$AA@
CONST	SEGMENT
??_C@_0N@COFNMLME@RequestClass?$AA@ DB 'RequestClass', 00H ; `string'
CONST	ENDS
;	COMDAT ??_C@_04NKFKOIHC@Chat?$AA@
CONST	SEGMENT
??_C@_04NKFKOIHC@Chat?$AA@ DB 'Chat', 00H		; `string'
CONST	ENDS
;	COMDAT ??_C@_08BBPHHJML@InitGame?$AA@
CONST	SEGMENT
??_C@_08BBPHHJML@InitGame?$AA@ DB 'InitGame', 00H	; `string'
CONST	ENDS
;	COMDAT ??_C@_0L@DMCDHMEG@ServerQuit?$AA@
CONST	SEGMENT
??_C@_0L@DMCDHMEG@ServerQuit?$AA@ DB 'ServerQuit', 00H	; `string'
CONST	ENDS
;	COMDAT ??_C@_0L@KEJKJHPF@ServerJoin?$AA@
CONST	SEGMENT
??_C@_0L@KEJKJHPF@ServerJoin?$AA@ DB 'ServerJoin', 00H	; `string'
; Function compile flags: /Odtp /RTCsu /ZI
CONST	ENDS
;	COMDAT ?RegisterRPCs@@YAXXZ
_TEXT	SEGMENT
?RegisterRPCs@@YAXXZ PROC				; RegisterRPCs, COMDAT

; 1095 : {

	push	ebp
	mov	ebp, esp
	sub	esp, 192				; 000000c0H
	push	ebx
	push	esi
	push	edi
	lea	edi, DWORD PTR [ebp-192]
	mov	ecx, 48					; 00000030H
	mov	eax, -858993460				; ccccccccH
	rep stosd

; 1096 : 	pNetowkManager->GetRPC4()->RegisterFunction("ServerJoin",ServerJoin);

	push	OFFSET ?ServerJoin@@YAXPAVBitStream@RakNet@@PAUPacket@2@@Z ; ServerJoin
	push	OFFSET ??_C@_0L@KEJKJHPF@ServerJoin?$AA@
	mov	ecx, DWORD PTR ?pNetowkManager@@3PAVCNetworkManager@@A ; pNetowkManager
	call	?GetRPC4@CNetworkManager@@QAEPAVRPC4@RakNet@@XZ ; CNetworkManager::GetRPC4
	mov	ecx, eax
	call	?RegisterFunction@RPC4@RakNet@@QAE_NPBDP6AXPAVBitStream@2@PAUPacket@2@@Z@Z ; RakNet::RPC4::RegisterFunction

; 1097 : 	pNetowkManager->GetRPC4()->RegisterFunction("ServerQuit",ServerQuit);	

	push	OFFSET ?ServerQuit@@YAXPAVBitStream@RakNet@@PAUPacket@2@@Z ; ServerQuit
	push	OFFSET ??_C@_0L@DMCDHMEG@ServerQuit?$AA@
	mov	ecx, DWORD PTR ?pNetowkManager@@3PAVCNetworkManager@@A ; pNetowkManager
	call	?GetRPC4@CNetworkManager@@QAEPAVRPC4@RakNet@@XZ ; CNetworkManager::GetRPC4
	mov	ecx, eax
	call	?RegisterFunction@RPC4@RakNet@@QAE_NPBDP6AXPAVBitStream@2@PAUPacket@2@@Z@Z ; RakNet::RPC4::RegisterFunction

; 1098 : 	pNetowkManager->GetRPC4()->RegisterFunction("InitGame",InitGame);

	push	OFFSET ?InitGame@@YAXPAVBitStream@RakNet@@PAUPacket@2@@Z ; InitGame
	push	OFFSET ??_C@_08BBPHHJML@InitGame?$AA@
	mov	ecx, DWORD PTR ?pNetowkManager@@3PAVCNetworkManager@@A ; pNetowkManager
	call	?GetRPC4@CNetworkManager@@QAEPAVRPC4@RakNet@@XZ ; CNetworkManager::GetRPC4
	mov	ecx, eax
	call	?RegisterFunction@RPC4@RakNet@@QAE_NPBDP6AXPAVBitStream@2@PAUPacket@2@@Z@Z ; RakNet::RPC4::RegisterFunction

; 1099 : 	pNetowkManager->GetRPC4()->RegisterFunction("Chat",Chat);

	push	OFFSET ?Chat@@YAXPAVBitStream@RakNet@@PAUPacket@2@@Z ; Chat
	push	OFFSET ??_C@_04NKFKOIHC@Chat?$AA@
	mov	ecx, DWORD PTR ?pNetowkManager@@3PAVCNetworkManager@@A ; pNetowkManager
	call	?GetRPC4@CNetworkManager@@QAEPAVRPC4@RakNet@@XZ ; CNetworkManager::GetRPC4
	mov	ecx, eax
	call	?RegisterFunction@RPC4@RakNet@@QAE_NPBDP6AXPAVBitStream@2@PAUPacket@2@@Z@Z ; RakNet::RPC4::RegisterFunction

; 1100 : 	pNetowkManager->GetRPC4()->RegisterFunction("RequestClass",RequestClass);

	push	OFFSET ?RequestClass@@YAXPAVBitStream@RakNet@@PAUPacket@2@@Z ; RequestClass
	push	OFFSET ??_C@_0N@COFNMLME@RequestClass?$AA@
	mov	ecx, DWORD PTR ?pNetowkManager@@3PAVCNetworkManager@@A ; pNetowkManager
	call	?GetRPC4@CNetworkManager@@QAEPAVRPC4@RakNet@@XZ ; CNetworkManager::GetRPC4
	mov	ecx, eax
	call	?RegisterFunction@RPC4@RakNet@@QAE_NPBDP6AXPAVBitStream@2@PAUPacket@2@@Z@Z ; RakNet::RPC4::RegisterFunction

; 1101 : 	pNetowkManager->GetRPC4()->RegisterFunction("Spawn",Spawn);

	push	OFFSET ?Spawn@@YAXPAVBitStream@RakNet@@PAUPacket@2@@Z ; Spawn
	push	OFFSET ??_C@_05BEKPGMFA@Spawn?$AA@
	mov	ecx, DWORD PTR ?pNetowkManager@@3PAVCNetworkManager@@A ; pNetowkManager
	call	?GetRPC4@CNetworkManager@@QAEPAVRPC4@RakNet@@XZ ; CNetworkManager::GetRPC4
	mov	ecx, eax
	call	?RegisterFunction@RPC4@RakNet@@QAE_NPBDP6AXPAVBitStream@2@PAUPacket@2@@Z@Z ; RakNet::RPC4::RegisterFunction

; 1102 : 	pNetowkManager->GetRPC4()->RegisterFunction("Death",Death);

	push	OFFSET ?Death@@YAXPAVBitStream@RakNet@@PAUPacket@2@@Z ; Death
	push	OFFSET ??_C@_05PGGAFPFO@Death?$AA@
	mov	ecx, DWORD PTR ?pNetowkManager@@3PAVCNetworkManager@@A ; pNetowkManager
	call	?GetRPC4@CNetworkManager@@QAEPAVRPC4@RakNet@@XZ ; CNetworkManager::GetRPC4
	mov	ecx, eax
	call	?RegisterFunction@RPC4@RakNet@@QAE_NPBDP6AXPAVBitStream@2@PAUPacket@2@@Z@Z ; RakNet::RPC4::RegisterFunction

; 1103 : 	pNetowkManager->GetRPC4()->RegisterFunction("EnterVehicle",EnterVehicle);

	push	OFFSET ?EnterVehicle@@YAXPAVBitStream@RakNet@@PAUPacket@2@@Z ; EnterVehicle
	push	OFFSET ??_C@_0N@HMLMNFIG@EnterVehicle?$AA@
	mov	ecx, DWORD PTR ?pNetowkManager@@3PAVCNetworkManager@@A ; pNetowkManager
	call	?GetRPC4@CNetworkManager@@QAEPAVRPC4@RakNet@@XZ ; CNetworkManager::GetRPC4
	mov	ecx, eax
	call	?RegisterFunction@RPC4@RakNet@@QAE_NPBDP6AXPAVBitStream@2@PAUPacket@2@@Z@Z ; RakNet::RPC4::RegisterFunction

; 1104 : 	pNetowkManager->GetRPC4()->RegisterFunction("ExitVehicle",ExitVehicle);

	push	OFFSET ?ExitVehicle@@YAXPAVBitStream@RakNet@@PAUPacket@2@@Z ; ExitVehicle
	push	OFFSET ??_C@_0M@KCCAADOG@ExitVehicle?$AA@
	mov	ecx, DWORD PTR ?pNetowkManager@@3PAVCNetworkManager@@A ; pNetowkManager
	call	?GetRPC4@CNetworkManager@@QAEPAVRPC4@RakNet@@XZ ; CNetworkManager::GetRPC4
	mov	ecx, eax
	call	?RegisterFunction@RPC4@RakNet@@QAE_NPBDP6AXPAVBitStream@2@PAUPacket@2@@Z@Z ; RakNet::RPC4::RegisterFunction

; 1105 : 	pNetowkManager->GetRPC4()->RegisterFunction("VehicleSpawn",VehicleSpawn);

	push	OFFSET ?VehicleSpawn@@YAXPAVBitStream@RakNet@@PAUPacket@2@@Z ; VehicleSpawn
	push	OFFSET ??_C@_0N@EPEGELNF@VehicleSpawn?$AA@
	mov	ecx, DWORD PTR ?pNetowkManager@@3PAVCNetworkManager@@A ; pNetowkManager
	call	?GetRPC4@CNetworkManager@@QAEPAVRPC4@RakNet@@XZ ; CNetworkManager::GetRPC4
	mov	ecx, eax
	call	?RegisterFunction@RPC4@RakNet@@QAE_NPBDP6AXPAVBitStream@2@PAUPacket@2@@Z@Z ; RakNet::RPC4::RegisterFunction

; 1106 : 	pNetowkManager->GetRPC4()->RegisterFunction("VehicleDestroy",VehicleDestroy);

	push	OFFSET ?VehicleDestroy@@YAXPAVBitStream@RakNet@@PAUPacket@2@@Z ; VehicleDestroy
	push	OFFSET ??_C@_0P@PANOBCJK@VehicleDestroy?$AA@
	mov	ecx, DWORD PTR ?pNetowkManager@@3PAVCNetworkManager@@A ; pNetowkManager
	call	?GetRPC4@CNetworkManager@@QAEPAVRPC4@RakNet@@XZ ; CNetworkManager::GetRPC4
	mov	ecx, eax
	call	?RegisterFunction@RPC4@RakNet@@QAE_NPBDP6AXPAVBitStream@2@PAUPacket@2@@Z@Z ; RakNet::RPC4::RegisterFunction

; 1107 : 	pNetowkManager->GetRPC4()->RegisterFunction("UpdateScoreAndPing",UpdateScoreAndPing);

	push	OFFSET ?UpdateScoreAndPing@@YAXPAVBitStream@RakNet@@PAUPacket@2@@Z ; UpdateScoreAndPing
	push	OFFSET ??_C@_0BD@OIDOAIGE@UpdateScoreAndPing?$AA@
	mov	ecx, DWORD PTR ?pNetowkManager@@3PAVCNetworkManager@@A ; pNetowkManager
	call	?GetRPC4@CNetworkManager@@QAEPAVRPC4@RakNet@@XZ ; CNetworkManager::GetRPC4
	mov	ecx, eax
	call	?RegisterFunction@RPC4@RakNet@@QAE_NPBDP6AXPAVBitStream@2@PAUPacket@2@@Z@Z ; RakNet::RPC4::RegisterFunction

; 1108 : 	pNetowkManager->GetRPC4()->RegisterFunction("ConnectionRejected",ConnectionRejected);

	push	OFFSET ?ConnectionRejected@@YAXPAVBitStream@RakNet@@PAUPacket@2@@Z ; ConnectionRejected
	push	OFFSET ??_C@_0BD@HFLMHEOC@ConnectionRejected?$AA@
