; Listing generated by Microsoft (R) Optimizing Compiler Version 15.00.30729.01 

	TITLE	d:\vice-players-master\Client\scripting\sq_client_natives.cpp
	.686P
	.XMM
	include listing.inc
	.model	flat

INCLUDELIB LIBCMTD
INCLUDELIB OLDNAMES

PUBLIC	??_C@_02DKCKIIND@?$CFs?$AA@			; `string'
PUBLIC	?sq_addChatMessage@@YAHPAUSQVM@@@Z		; sq_addChatMessage
EXTRN	?AddDebugMessage@CChatWindow@@QAAXPADZZ:PROC	; CChatWindow::AddDebugMessage
EXTRN	?pChatWindow@@3PAVCChatWindow@@A:DWORD		; pChatWindow
EXTRN	_sq_getstring:PROC
EXTRN	__RTC_CheckEsp:PROC
EXTRN	@_RTC_CheckStackVars@8:PROC
EXTRN	__RTC_Shutdown:PROC
EXTRN	__RTC_InitBase:PROC
;	COMDAT ??_C@_02DKCKIIND@?$CFs?$AA@
; File d:\vice-players-master\client\scripting\sq_client_natives.cpp
CONST	SEGMENT
??_C@_02DKCKIIND@?$CFs?$AA@ DB '%s', 00H		; `string'
CONST	ENDS
;	COMDAT rtc$TMZ
rtc$TMZ	SEGMENT
__RTC_Shutdown.rtc$TMZ DD FLAT:__RTC_Shutdown
rtc$TMZ	ENDS
;	COMDAT rtc$IMZ
rtc$IMZ	SEGMENT
__RTC_InitBase.rtc$IMZ DD FLAT:__RTC_InitBase
; Function compile flags: /Odtp /RTCsu /ZI
rtc$IMZ	ENDS
;	COMDAT ?sq_addChatMessage@@YAHPAUSQVM@@@Z
_TEXT	SEGMENT
_message$ = -8						; size = 4
_pVM$ = 8						; size = 4
?sq_addChatMessage@@YAHPAUSQVM@@@Z PROC			; sq_addChatMessage, COMDAT

; 19   : {

	push	ebp
	mov	ebp, esp
	sub	esp, 204				; 000000ccH
	push	ebx
	push	esi
	push	edi
	lea	edi, DWORD PTR [ebp-204]
	mov	ecx, 51					; 00000033H
	mov	eax, -858993460				; ccccccccH
	rep stosd

; 20   : 	const char * message;
; 21   : 	sq_getstring(pVM, -1, &message);

	lea	eax, DWORD PTR _message$[ebp]
	push	eax
	push	-1
	mov	ecx, DWORD PTR _pVM$[ebp]
	push	ecx
	call	_sq_getstring
	add	esp, 12					; 0000000cH

; 22   : 	pChatWindow->AddDebugMessage("%s", message);

	mov	eax, DWORD PTR _message$[ebp]
	push	eax
	push	OFFSET ??_C@_02DKCKIIND@?$CFs?$AA@
	mov	ecx, DWORD PTR ?pChatWindow@@3PAVCChatWindow@@A ; pChatWindow
	push	ecx
	call	?AddDebugMessage@CChatWindow@@QAAXPADZZ	; CChatWindow::AddDebugMessage
	add	esp, 12					; 0000000cH

; 23   : 	return 1;

	mov	eax, 1

; 24   : }

	push	edx
	mov	ecx, ebp
	push	eax
	lea	edx, DWORD PTR $LN5@sq_addChat
	call	@_RTC_CheckStackVars@8
	pop	eax
	pop	edx
	pop	edi
	pop	esi
	pop	ebx
	add	esp, 204				; 000000ccH
	cmp	ebp, esp
	call	__RTC_CheckEsp
	mov	esp, ebp
	pop	ebp
	ret	0
	npad	2
$LN5@sq_addChat:
	DD	1
	DD	$LN4@sq_addChat
$LN4@sq_addChat:
	DD	-8					; fffffff8H
	DD	4
	DD	$LN3@sq_addChat
$LN3@sq_addChat:
	DB	109					; 0000006dH
	DB	101					; 00000065H
	DB	115					; 00000073H
	DB	115					; 00000073H
	DB	97					; 00000061H
	DB	103					; 00000067H
	DB	101					; 00000065H
	DB	0
?sq_addChatMessage@@YAHPAUSQVM@@@Z ENDP			; sq_addChatMessage
_TEXT	ENDS
PUBLIC	?sq_toggleCheatCodes@@YAHPAUSQVM@@@Z		; sq_toggleCheatCodes
EXTRN	?GameToggleCheatCodes@@YGX_N@Z:PROC		; GameToggleCheatCodes
EXTRN	_sq_getbool:PROC
; Function compile flags: /Odtp /RTCsu /ZI
;	COMDAT ?sq_toggleCheatCodes@@YAHPAUSQVM@@@Z
_TEXT	SEGMENT
_toggle$ = -8						; size = 4
_pVM$ = 8						; size = 4
?sq_toggleCheatCodes@@YAHPAUSQVM@@@Z PROC		; sq_toggleCheatCodes, COMDAT

; 27   : {

	push	ebp
	mov	ebp, esp
	sub	esp, 204				; 000000ccH
	push	ebx
	push	esi
	push	edi
	lea	edi, DWORD PTR [ebp-204]
	mov	ecx, 51					; 00000033H
	mov	eax, -858993460				; ccccccccH
	rep stosd

; 28   : 	SQBool toggle;
; 29   : 	sq_getbool(pVM, -1, &toggle);

	lea	eax, DWORD PTR _toggle$[ebp]
	push	eax
	push	-1
	mov	ecx, DWORD PTR _pVM$[ebp]
	push	ecx
	call	_sq_getbool
	add	esp, 12					; 0000000cH

; 30   : 	GameToggleCheatCodes(toggle != 0);

	cmp	DWORD PTR _toggle$[ebp], 0
	setne	al
	movzx	ecx, al
	push	ecx
	call	?GameToggleCheatCodes@@YGX_N@Z		; GameToggleCheatCodes

; 31   : 	return 1;

	mov	eax, 1

; 32   : }

	push	edx
	mov	ecx, ebp
	push	eax
	lea	edx, DWORD PTR $LN5@sq_toggleC
	call	@_RTC_CheckStackVars@8
	pop	eax
	pop	edx
	pop	edi
	pop	esi
	pop	ebx
	add	esp, 204				; 000000ccH
	cmp	ebp, esp
	call	__RTC_CheckEsp
	mov	esp, ebp
	pop	ebp
	ret	0
	npad	2
$LN5@sq_toggleC:
	DD	1
	DD	$LN4@sq_toggleC
$LN4@sq_toggleC:
	DD	-8					; fffffff8H
	DD	4
	DD	$LN3@sq_toggleC
$LN3@sq_toggleC:
	DB	116					; 00000074H
	DB	111					; 0000006fH
	DB	103					; 00000067H
	DB	103					; 00000067H
	DB	108					; 0000006cH
	DB	101					; 00000065H
	DB	0
?sq_toggleCheatCodes@@YAHPAUSQVM@@@Z ENDP		; sq_toggleCheatCodes
_TEXT	ENDS
PUBLIC	??_C@_09JDDOKMAK@?$CIAlpha?92?$CJ?$AA@		; `string'
PUBLIC	?sq_getVersion@@YAHPAUSQVM@@@Z			; sq_getVersion
EXTRN	_sq_pushstring:PROC
;	COMDAT ??_C@_09JDDOKMAK@?$CIAlpha?92?$CJ?$AA@
CONST	SEGMENT
??_C@_09JDDOKMAK@?$CIAlpha?92?$CJ?$AA@ DB '(Alpha-2)', 00H ; `string'
; Function compile flags: /Odtp /RTCsu /ZI
CONST	ENDS
;	COMDAT ?sq_getVersion@@YAHPAUSQVM@@@Z
_TEXT	SEGMENT
_pVM$ = 8						; size = 4
?sq_getVersion@@YAHPAUSQVM@@@Z PROC			; sq_getVersion, COMDAT

; 35   : {

	push	ebp
	mov	ebp, esp
	sub	esp, 192				; 000000c0H
	push	ebx
	push	esi
	push	edi
	lea	edi, DWORD PTR [ebp-192]
	mov	ecx, 48					; 00000030H
	mov	eax, -858993460				; ccccccccH
	rep stosd

; 36   : 	sq_pushstring(pVM, CLIENT_VERSION, -1);

	push	-1
	push	OFFSET ??_C@_09JDDOKMAK@?$CIAlpha?92?$CJ?$AA@
	mov	eax, DWORD PTR _pVM$[ebp]
	push	eax
	call	_sq_pushstring
	add	esp, 12					; 0000000cH

; 37   : 	return 1;

	mov	eax, 1

; 38   : }

	pop	edi
	pop	esi
	pop	ebx
	add	esp, 192				; 000000c0H
	cmp	ebp, esp
	call	__RTC_CheckEsp
	mov	esp, ebp
	pop	ebp
	ret	0
?sq_getVersion@@YAHPAUSQVM@@@Z ENDP			; sq_getVersion
_TEXT	ENDS
END
