; Listing generated by Microsoft (R) Optimizing Compiler Version 15.00.30729.01 

	TITLE	d:\vice-players-master\Client\scripting\sq_functions.cpp
	.686P
	.XMM
	include listing.inc
	.model	flat

INCLUDELIB LIBCMTD
INCLUDELIB OLDNAMES

PUBLIC	??_C@_0M@HJNGPCH@showMessage?$AA@		; `string'
PUBLIC	??_C@_03MMPDAENC@?4ss?$AA@			; `string'
PUBLIC	??_C@_0L@JONBDALL@showCursor?$AA@		; `string'
PUBLIC	??_C@_07KIKBEAKA@drawBox?$AA@			; `string'
PUBLIC	??_C@_09NEGDJIDD@?4nnnniiii?$AA@		; `string'
PUBLIC	??_C@_08BNDADMBM@drawText?$AA@			; `string'
PUBLIC	??_C@_08OBKOMFMK@?4nnsiiii?$AA@			; `string'
PUBLIC	??_C@_0O@MBENBIJA@getResolution?$AA@		; `string'
PUBLIC	??_C@_0O@KNBLIEKM@isTimerActive?$AA@		; `string'
PUBLIC	??_C@_09JHIEKOCI@killTimer?$AA@			; `string'
PUBLIC	??_C@_08MJJACMBK@setTimer?$AA@			; `string'
PUBLIC	??_C@_0L@DLJCENCO@getVersion?$AA@		; `string'
PUBLIC	??_C@_0BB@HBHMGKIG@toggleCheatCodes?$AA@	; `string'
PUBLIC	??_C@_02GFKGEECC@?4b?$AA@			; `string'
PUBLIC	??_C@_04OMFAIDPG@call?$AA@			; `string'
PUBLIC	??_C@_0P@DIAILOCM@addChatMessage?$AA@		; `string'
PUBLIC	??_C@_0BB@NCDPFBMB@setScriptVersion?$AA@	; `string'
PUBLIC	??_C@_0BA@MKMIOFDC@setScriptAuthor?$AA@		; `string'
PUBLIC	??_C@_02DGHPGHDC@?4s?$AA@			; `string'
PUBLIC	?sq_register_natives@@YAHPAUSQVM@@@Z		; sq_register_natives
EXTRN	?sq_showMessage@@YAHPAUSQVM@@@Z:PROC		; sq_showMessage
EXTRN	?sq_showCursor@@YAHPAUSQVM@@@Z:PROC		; sq_showCursor
EXTRN	?sq_drawBox@@YAHPAUSQVM@@@Z:PROC		; sq_drawBox
EXTRN	?sq_drawText@@YAHPAUSQVM@@@Z:PROC		; sq_drawText
EXTRN	?sq_getResolution@@YAHPAUSQVM@@@Z:PROC		; sq_getResolution
EXTRN	?sq_isTimerActive@@YAHPAUSQVM@@@Z:PROC		; sq_isTimerActive
EXTRN	?sq_killTimer@@YAHPAUSQVM@@@Z:PROC		; sq_killTimer
EXTRN	?sq_setTimer@@YAHPAUSQVM@@@Z:PROC		; sq_setTimer
EXTRN	?sq_getVersion@@YAHPAUSQVM@@@Z:PROC		; sq_getVersion
EXTRN	?sq_toggleCheatCodes@@YAHPAUSQVM@@@Z:PROC	; sq_toggleCheatCodes
EXTRN	?sq__call@@YAHPAUSQVM@@@Z:PROC			; sq__call
EXTRN	?sq_addChatMessage@@YAHPAUSQVM@@@Z:PROC		; sq_addChatMessage
EXTRN	?sq_setScriptVersion@@YAHPAUSQVM@@@Z:PROC	; sq_setScriptVersion
EXTRN	?RegisterFunction@@YAXPAUSQVM@@PADP6AH0@ZHPBD@Z:PROC ; RegisterFunction
EXTRN	?sq_setScriptAuthor@@YAHPAUSQVM@@@Z:PROC	; sq_setScriptAuthor
EXTRN	__RTC_CheckEsp:PROC
EXTRN	__RTC_Shutdown:PROC
EXTRN	__RTC_InitBase:PROC
;	COMDAT ??_C@_0M@HJNGPCH@showMessage?$AA@
; File d:\vice-players-master\client\scripting\sq_functions.cpp
CONST	SEGMENT
??_C@_0M@HJNGPCH@showMessage?$AA@ DB 'showMessage', 00H	; `string'
CONST	ENDS
;	COMDAT ??_C@_03MMPDAENC@?4ss?$AA@
CONST	SEGMENT
??_C@_03MMPDAENC@?4ss?$AA@ DB '.ss', 00H		; `string'
CONST	ENDS
;	COMDAT ??_C@_0L@JONBDALL@showCursor?$AA@
CONST	SEGMENT
??_C@_0L@JONBDALL@showCursor?$AA@ DB 'showCursor', 00H	; `string'
CONST	ENDS
;	COMDAT ??_C@_07KIKBEAKA@drawBox?$AA@
CONST	SEGMENT
??_C@_07KIKBEAKA@drawBox?$AA@ DB 'drawBox', 00H		; `string'
CONST	ENDS
;	COMDAT ??_C@_09NEGDJIDD@?4nnnniiii?$AA@
CONST	SEGMENT
??_C@_09NEGDJIDD@?4nnnniiii?$AA@ DB '.nnnniiii', 00H	; `string'
CONST	ENDS
;	COMDAT ??_C@_08BNDADMBM@drawText?$AA@
CONST	SEGMENT
??_C@_08BNDADMBM@drawText?$AA@ DB 'drawText', 00H	; `string'
CONST	ENDS
;	COMDAT ??_C@_08OBKOMFMK@?4nnsiiii?$AA@
CONST	SEGMENT
??_C@_08OBKOMFMK@?4nnsiiii?$AA@ DB '.nnsiiii', 00H	; `string'
CONST	ENDS
;	COMDAT ??_C@_0O@MBENBIJA@getResolution?$AA@
CONST	SEGMENT
??_C@_0O@MBENBIJA@getResolution?$AA@ DB 'getResolution', 00H ; `string'
CONST	ENDS
;	COMDAT ??_C@_0O@KNBLIEKM@isTimerActive?$AA@
CONST	SEGMENT
??_C@_0O@KNBLIEKM@isTimerActive?$AA@ DB 'isTimerActive', 00H ; `string'
CONST	ENDS
;	COMDAT ??_C@_09JHIEKOCI@killTimer?$AA@
CONST	SEGMENT
??_C@_09JHIEKOCI@killTimer?$AA@ DB 'killTimer', 00H	; `string'
CONST	ENDS
;	COMDAT ??_C@_08MJJACMBK@setTimer?$AA@
CONST	SEGMENT
??_C@_08MJJACMBK@setTimer?$AA@ DB 'setTimer', 00H	; `string'
CONST	ENDS
;	COMDAT ??_C@_0L@DLJCENCO@getVersion?$AA@
CONST	SEGMENT
??_C@_0L@DLJCENCO@getVersion?$AA@ DB 'getVersion', 00H	; `string'
CONST	ENDS
;	COMDAT ??_C@_0BB@HBHMGKIG@toggleCheatCodes?$AA@
CONST	SEGMENT
??_C@_0BB@HBHMGKIG@toggleCheatCodes?$AA@ DB 'toggleCheatCodes', 00H ; `string'
CONST	ENDS
;	COMDAT ??_C@_02GFKGEECC@?4b?$AA@
CONST	SEGMENT
??_C@_02GFKGEECC@?4b?$AA@ DB '.b', 00H			; `string'
CONST	ENDS
;	COMDAT ??_C@_04OMFAIDPG@call?$AA@
CONST	SEGMENT
??_C@_04OMFAIDPG@call?$AA@ DB 'call', 00H		; `string'
CONST	ENDS
;	COMDAT ??_C@_0P@DIAILOCM@addChatMessage?$AA@
CONST	SEGMENT
??_C@_0P@DIAILOCM@addChatMessage?$AA@ DB 'addChatMessage', 00H ; `string'
CONST	ENDS
;	COMDAT ??_C@_0BB@NCDPFBMB@setScriptVersion?$AA@
CONST	SEGMENT
??_C@_0BB@NCDPFBMB@setScriptVersion?$AA@ DB 'setScriptVersion', 00H ; `string'
CONST	ENDS
;	COMDAT ??_C@_0BA@MKMIOFDC@setScriptAuthor?$AA@
CONST	SEGMENT
??_C@_0BA@MKMIOFDC@setScriptAuthor?$AA@ DB 'setScriptAuthor', 00H ; `string'
CONST	ENDS
;	COMDAT ??_C@_02DGHPGHDC@?4s?$AA@
CONST	SEGMENT
??_C@_02DGHPGHDC@?4s?$AA@ DB '.s', 00H			; `string'
CONST	ENDS
;	COMDAT rtc$TMZ
rtc$TMZ	SEGMENT
__RTC_Shutdown.rtc$TMZ DD FLAT:__RTC_Shutdown
rtc$TMZ	ENDS
;	COMDAT rtc$IMZ
rtc$IMZ	SEGMENT
__RTC_InitBase.rtc$IMZ DD FLAT:__RTC_InitBase
; Function compile flags: /Odtp /RTCsu /ZI
rtc$IMZ	ENDS
;	COMDAT ?sq_register_natives@@YAHPAUSQVM@@@Z
_TEXT	SEGMENT
_pVM$ = 8						; size = 4
?sq_register_natives@@YAHPAUSQVM@@@Z PROC		; sq_register_natives, COMDAT

; 19   : {

	push	ebp
	mov	ebp, esp
	sub	esp, 192				; 000000c0H
	push	ebx
	push	esi
	push	edi
	lea	edi, DWORD PTR [ebp-192]
	mov	ecx, 48					; 00000030H
	mov	eax, -858993460				; ccccccccH
	rep stosd

; 20   : 	RegisterFunction(pVM, "setScriptAuthor", sq_setScriptAuthor, 2 , ".s");

	push	OFFSET ??_C@_02DGHPGHDC@?4s?$AA@
	push	2
	push	OFFSET ?sq_setScriptAuthor@@YAHPAUSQVM@@@Z ; sq_setScriptAuthor
	push	OFFSET ??_C@_0BA@MKMIOFDC@setScriptAuthor?$AA@
	mov	eax, DWORD PTR _pVM$[ebp]
	push	eax
	call	?RegisterFunction@@YAXPAUSQVM@@PADP6AH0@ZHPBD@Z ; RegisterFunction
	add	esp, 20					; 00000014H

; 21   : 	RegisterFunction(pVM, "setScriptVersion", sq_setScriptVersion, 2, ".s");

	push	OFFSET ??_C@_02DGHPGHDC@?4s?$AA@
	push	2
	push	OFFSET ?sq_setScriptVersion@@YAHPAUSQVM@@@Z ; sq_setScriptVersion
	push	OFFSET ??_C@_0BB@NCDPFBMB@setScriptVersion?$AA@
	mov	eax, DWORD PTR _pVM$[ebp]
	push	eax
	call	?RegisterFunction@@YAXPAUSQVM@@PADP6AH0@ZHPBD@Z ; RegisterFunction
	add	esp, 20					; 00000014H

; 22   : 	RegisterFunction(pVM, "addChatMessage", sq_addChatMessage, 2, ".s");

	push	OFFSET ??_C@_02DGHPGHDC@?4s?$AA@
	push	2
	push	OFFSET ?sq_addChatMessage@@YAHPAUSQVM@@@Z ; sq_addChatMessage
	push	OFFSET ??_C@_0P@DIAILOCM@addChatMessage?$AA@
	mov	eax, DWORD PTR _pVM$[ebp]
	push	eax
	call	?RegisterFunction@@YAXPAUSQVM@@PADP6AH0@ZHPBD@Z ; RegisterFunction
	add	esp, 20					; 00000014H

; 23   : 	RegisterFunction(pVM, "call", sq__call, -1, NULL);

	push	0
	push	-1
	push	OFFSET ?sq__call@@YAHPAUSQVM@@@Z	; sq__call
	push	OFFSET ??_C@_04OMFAIDPG@call?$AA@
	mov	eax, DWORD PTR _pVM$[ebp]
	push	eax
	call	?RegisterFunction@@YAXPAUSQVM@@PADP6AH0@ZHPBD@Z ; RegisterFunction
	add	esp, 20					; 00000014H

; 24   : 	RegisterFunction(pVM, "toggleCheatCodes", sq_toggleCheatCodes, 2, ".b");

	push	OFFSET ??_C@_02GFKGEECC@?4b?$AA@
	push	2
	push	OFFSET ?sq_toggleCheatCodes@@YAHPAUSQVM@@@Z ; sq_toggleCheatCodes
	push	OFFSET ??_C@_0BB@HBHMGKIG@toggleCheatCodes?$AA@
	mov	eax, DWORD PTR _pVM$[ebp]
	push	eax
	call	?RegisterFunction@@YAXPAUSQVM@@PADP6AH0@ZHPBD@Z ; RegisterFunction
	add	esp, 20					; 00000014H

; 25   : 	RegisterFunction(pVM, "getVersion", sq_getVersion, -1, NULL);

	push	0
	push	-1
	push	OFFSET ?sq_getVersion@@YAHPAUSQVM@@@Z	; sq_getVersion
	push	OFFSET ??_C@_0L@DLJCENCO@getVersion?$AA@
	mov	eax, DWORD PTR _pVM$[ebp]
	push	eax
	call	?RegisterFunction@@YAXPAUSQVM@@PADP6AH0@ZHPBD@Z ; RegisterFunction
	add	esp, 20					; 00000014H

; 26   : 
; 27   : 	// Timers
; 28   : 	RegisterFunction(pVM, "setTimer", sq_setTimer, -1, NULL);

	push	0
	push	-1
	push	OFFSET ?sq_setTimer@@YAHPAUSQVM@@@Z	; sq_setTimer
	push	OFFSET ??_C@_08MJJACMBK@setTimer?$AA@
	mov	eax, DWORD PTR _pVM$[ebp]
	push	eax
	call	?RegisterFunction@@YAXPAUSQVM@@PADP6AH0@ZHPBD@Z ; RegisterFunction
	add	esp, 20					; 00000014H

; 29   : 	RegisterFunction(pVM, "killTimer", sq_killTimer, -1, NULL);

	push	0
	push	-1
	push	OFFSET ?sq_killTimer@@YAHPAUSQVM@@@Z	; sq_killTimer
	push	OFFSET ??_C@_09JHIEKOCI@killTimer?$AA@
	mov	eax, DWORD PTR _pVM$[ebp]
	push	eax
	call	?RegisterFunction@@YAXPAUSQVM@@PADP6AH0@ZHPBD@Z ; RegisterFunction
	add	esp, 20					; 00000014H

; 30   : 	RegisterFunction(pVM, "isTimerActive", sq_isTimerActive, -1, NULL);

	push	0
	push	-1
	push	OFFSET ?sq_isTimerActive@@YAHPAUSQVM@@@Z ; sq_isTimerActive
	push	OFFSET ??_C@_0O@KNBLIEKM@isTimerActive?$AA@
	mov	eax, DWORD PTR _pVM$[ebp]
	push	eax
	call	?RegisterFunction@@YAXPAUSQVM@@PADP6AH0@ZHPBD@Z ; RegisterFunction
	add	esp, 20					; 00000014H

; 31   : 
; 32   : 	// Graphic
; 33   : 	RegisterFunction(pVM, "getResolution", sq_getResolution, -1, NULL);

	push	0
	push	-1
	push	OFFSET ?sq_getResolution@@YAHPAUSQVM@@@Z ; sq_getResolution
	push	OFFSET ??_C@_0O@MBENBIJA@getResolution?$AA@
	mov	eax, DWORD PTR _pVM$[ebp]
	push	eax
	call	?RegisterFunction@@YAXPAUSQVM@@PADP6AH0@ZHPBD@Z ; RegisterFunction
	add	esp, 20					; 00000014H

; 34   : 	RegisterFunction(pVM, "drawText", sq_drawText, 8, ".nnsiiii");

	push	OFFSET ??_C@_08OBKOMFMK@?4nnsiiii?$AA@
	push	8
	push	OFFSET ?sq_drawText@@YAHPAUSQVM@@@Z	; sq_drawText
	push	OFFSET ??_C@_08BNDADMBM@drawText?$AA@
	mov	eax, DWORD PTR _pVM$[ebp]
	push	eax
	call	?RegisterFunction@@YAXPAUSQVM@@PADP6AH0@ZHPBD@Z ; RegisterFunction
	add	esp, 20					; 00000014H

; 35   : 	RegisterFunction(pVM, "drawBox", sq_drawBox, 9, ".nnnniiii");

	push	OFFSET ??_C@_09NEGDJIDD@?4nnnniiii?$AA@
	push	9
	push	OFFSET ?sq_drawBox@@YAHPAUSQVM@@@Z	; sq_drawBox
	push	OFFSET ??_C@_07KIKBEAKA@drawBox?$AA@
	mov	eax, DWORD PTR _pVM$[ebp]
	push	eax
	call	?RegisterFunction@@YAXPAUSQVM@@PADP6AH0@ZHPBD@Z ; RegisterFunction
	add	esp, 20					; 00000014H

; 36   : 	RegisterFunction(pVM, "showCursor", sq_showCursor, 2, ".b");

	push	OFFSET ??_C@_02GFKGEECC@?4b?$AA@
	push	2
	push	OFFSET ?sq_showCursor@@YAHPAUSQVM@@@Z	; sq_showCursor
	push	OFFSET ??_C@_0L@JONBDALL@showCursor?$AA@
	mov	eax, DWORD PTR _pVM$[ebp]
	push	eax
	call	?RegisterFunction@@YAXPAUSQVM@@PADP6AH0@ZHPBD@Z ; RegisterFunction
	add	esp, 20					; 00000014H

; 37   : 	RegisterFunction(pVM, "showMessage", sq_showMessage, 3, ".ss");

	push	OFFSET ??_C@_03MMPDAENC@?4ss?$AA@
	push	3
	push	OFFSET ?sq_showMessage@@YAHPAUSQVM@@@Z	; sq_showMessage
	push	OFFSET ??_C@_0M@HJNGPCH@showMessage?$AA@
	mov	eax, DWORD PTR _pVM$[ebp]
	push	eax
	call	?RegisterFunction@@YAXPAUSQVM@@PADP6AH0@ZHPBD@Z ; RegisterFunction
	add	esp, 20					; 00000014H

; 38   : 
; 39   : 	return 1;

	mov	eax, 1

; 40   : }

	pop	edi
	pop	esi
	pop	ebx
	add	esp, 192				; 000000c0H
	cmp	ebp, esp
	call	__RTC_CheckEsp
	mov	esp, ebp
	pop	ebp
	ret	0
?sq_register_natives@@YAHPAUSQVM@@@Z ENDP		; sq_register_natives
_TEXT	ENDS
END
