; Listing generated by Microsoft (R) Optimizing Compiler Version 15.00.30729.01 

	TITLE	d:\vice-players-master\Client\StdInc.cpp
	.686P
	.XMM
	include listing.inc
	.model	flat

INCLUDELIB LIBCMTD
INCLUDELIB OLDNAMES

PUBLIC	??_C@_0P@GHFPNOJB@bad?5allocation?$AA@		; `string'
PUBLIC	?collate@?$_Locbase@H@std@@2HB			; std::_Locbase<int>::collate
PUBLIC	?ctype@?$_Locbase@H@std@@2HB			; std::_Locbase<int>::ctype
PUBLIC	?monetary@?$_Locbase@H@std@@2HB			; std::_Locbase<int>::monetary
PUBLIC	?numeric@?$_Locbase@H@std@@2HB			; std::_Locbase<int>::numeric
PUBLIC	?time@?$_Locbase@H@std@@2HB			; std::_Locbase<int>::time
PUBLIC	?messages@?$_Locbase@H@std@@2HB			; std::_Locbase<int>::messages
PUBLIC	?all@?$_Locbase@H@std@@2HB			; std::_Locbase<int>::all
PUBLIC	?none@?$_Locbase@H@std@@2HB			; std::_Locbase<int>::none
PUBLIC	?table_size@?$ctype@D@std@@2IB			; std::ctype<char>::table_size
PUBLIC	?skipws@?$_Iosb@H@std@@2W4_Fmtflags@12@B	; std::_Iosb<int>::skipws
PUBLIC	?unitbuf@?$_Iosb@H@std@@2W4_Fmtflags@12@B	; std::_Iosb<int>::unitbuf
PUBLIC	?uppercase@?$_Iosb@H@std@@2W4_Fmtflags@12@B	; std::_Iosb<int>::uppercase
PUBLIC	?showbase@?$_Iosb@H@std@@2W4_Fmtflags@12@B	; std::_Iosb<int>::showbase
PUBLIC	?showpoint@?$_Iosb@H@std@@2W4_Fmtflags@12@B	; std::_Iosb<int>::showpoint
PUBLIC	?showpos@?$_Iosb@H@std@@2W4_Fmtflags@12@B	; std::_Iosb<int>::showpos
PUBLIC	?left@?$_Iosb@H@std@@2W4_Fmtflags@12@B		; std::_Iosb<int>::left
PUBLIC	?right@?$_Iosb@H@std@@2W4_Fmtflags@12@B		; std::_Iosb<int>::right
PUBLIC	?internal@?$_Iosb@H@std@@2W4_Fmtflags@12@B	; std::_Iosb<int>::internal
PUBLIC	?dec@?$_Iosb@H@std@@2W4_Fmtflags@12@B		; std::_Iosb<int>::dec
PUBLIC	?oct@?$_Iosb@H@std@@2W4_Fmtflags@12@B		; std::_Iosb<int>::oct
PUBLIC	?hex@?$_Iosb@H@std@@2W4_Fmtflags@12@B		; std::_Iosb<int>::hex
PUBLIC	?scientific@?$_Iosb@H@std@@2W4_Fmtflags@12@B	; std::_Iosb<int>::scientific
PUBLIC	?fixed@?$_Iosb@H@std@@2W4_Fmtflags@12@B		; std::_Iosb<int>::fixed
PUBLIC	?hexfloat@?$_Iosb@H@std@@2W4_Fmtflags@12@B	; std::_Iosb<int>::hexfloat
PUBLIC	?boolalpha@?$_Iosb@H@std@@2W4_Fmtflags@12@B	; std::_Iosb<int>::boolalpha
PUBLIC	?_Stdio@?$_Iosb@H@std@@2W4_Fmtflags@12@B	; std::_Iosb<int>::_Stdio
PUBLIC	?adjustfield@?$_Iosb@H@std@@2W4_Fmtflags@12@B	; std::_Iosb<int>::adjustfield
PUBLIC	?basefield@?$_Iosb@H@std@@2W4_Fmtflags@12@B	; std::_Iosb<int>::basefield
PUBLIC	?floatfield@?$_Iosb@H@std@@2W4_Fmtflags@12@B	; std::_Iosb<int>::floatfield
PUBLIC	?goodbit@?$_Iosb@H@std@@2W4_Iostate@12@B	; std::_Iosb<int>::goodbit
PUBLIC	?eofbit@?$_Iosb@H@std@@2W4_Iostate@12@B		; std::_Iosb<int>::eofbit
PUBLIC	?failbit@?$_Iosb@H@std@@2W4_Iostate@12@B	; std::_Iosb<int>::failbit
PUBLIC	?badbit@?$_Iosb@H@std@@2W4_Iostate@12@B		; std::_Iosb<int>::badbit
PUBLIC	?_Hardfail@?$_Iosb@H@std@@2W4_Iostate@12@B	; std::_Iosb<int>::_Hardfail
PUBLIC	?in@?$_Iosb@H@std@@2W4_Openmode@12@B		; std::_Iosb<int>::in
PUBLIC	?out@?$_Iosb@H@std@@2W4_Openmode@12@B		; std::_Iosb<int>::out
PUBLIC	?ate@?$_Iosb@H@std@@2W4_Openmode@12@B		; std::_Iosb<int>::ate
PUBLIC	?app@?$_Iosb@H@std@@2W4_Openmode@12@B		; std::_Iosb<int>::app
PUBLIC	?trunc@?$_Iosb@H@std@@2W4_Openmode@12@B		; std::_Iosb<int>::trunc
PUBLIC	?_Nocreate@?$_Iosb@H@std@@2W4_Openmode@12@B	; std::_Iosb<int>::_Nocreate
PUBLIC	?_Noreplace@?$_Iosb@H@std@@2W4_Openmode@12@B	; std::_Iosb<int>::_Noreplace
PUBLIC	?binary@?$_Iosb@H@std@@2W4_Openmode@12@B	; std::_Iosb<int>::binary
PUBLIC	?beg@?$_Iosb@H@std@@2W4_Seekdir@12@B		; std::_Iosb<int>::beg
PUBLIC	?cur@?$_Iosb@H@std@@2W4_Seekdir@12@B		; std::_Iosb<int>::cur
PUBLIC	?end@?$_Iosb@H@std@@2W4_Seekdir@12@B		; std::_Iosb<int>::end
;	COMDAT ?end@?$_Iosb@H@std@@2W4_Seekdir@12@B
CONST	SEGMENT
?end@?$_Iosb@H@std@@2W4_Seekdir@12@B DD 02H		; std::_Iosb<int>::end
CONST	ENDS
;	COMDAT ?cur@?$_Iosb@H@std@@2W4_Seekdir@12@B
CONST	SEGMENT
?cur@?$_Iosb@H@std@@2W4_Seekdir@12@B DD 01H		; std::_Iosb<int>::cur
CONST	ENDS
;	COMDAT ?beg@?$_Iosb@H@std@@2W4_Seekdir@12@B
CONST	SEGMENT
?beg@?$_Iosb@H@std@@2W4_Seekdir@12@B DD 00H		; std::_Iosb<int>::beg
CONST	ENDS
;	COMDAT ?binary@?$_Iosb@H@std@@2W4_Openmode@12@B
CONST	SEGMENT
?binary@?$_Iosb@H@std@@2W4_Openmode@12@B DD 020H	; std::_Iosb<int>::binary
CONST	ENDS
;	COMDAT ?_Noreplace@?$_Iosb@H@std@@2W4_Openmode@12@B
CONST	SEGMENT
?_Noreplace@?$_Iosb@H@std@@2W4_Openmode@12@B DD 080H	; std::_Iosb<int>::_Noreplace
CONST	ENDS
;	COMDAT ?_Nocreate@?$_Iosb@H@std@@2W4_Openmode@12@B
CONST	SEGMENT
?_Nocreate@?$_Iosb@H@std@@2W4_Openmode@12@B DD 040H	; std::_Iosb<int>::_Nocreate
CONST	ENDS
;	COMDAT ?trunc@?$_Iosb@H@std@@2W4_Openmode@12@B
CONST	SEGMENT
?trunc@?$_Iosb@H@std@@2W4_Openmode@12@B DD 010H		; std::_Iosb<int>::trunc
CONST	ENDS
;	COMDAT ?app@?$_Iosb@H@std@@2W4_Openmode@12@B
CONST	SEGMENT
?app@?$_Iosb@H@std@@2W4_Openmode@12@B DD 08H		; std::_Iosb<int>::app
CONST	ENDS
;	COMDAT ?ate@?$_Iosb@H@std@@2W4_Openmode@12@B
CONST	SEGMENT
?ate@?$_Iosb@H@std@@2W4_Openmode@12@B DD 04H		; std::_Iosb<int>::ate
CONST	ENDS
;	COMDAT ?out@?$_Iosb@H@std@@2W4_Openmode@12@B
CONST	SEGMENT
?out@?$_Iosb@H@std@@2W4_Openmode@12@B DD 02H		; std::_Iosb<int>::out
CONST	ENDS
;	COMDAT ?in@?$_Iosb@H@std@@2W4_Openmode@12@B
CONST	SEGMENT
?in@?$_Iosb@H@std@@2W4_Openmode@12@B DD 01H		; std::_Iosb<int>::in
CONST	ENDS
;	COMDAT ?_Hardfail@?$_Iosb@H@std@@2W4_Iostate@12@B
CONST	SEGMENT
?_Hardfail@?$_Iosb@H@std@@2W4_Iostate@12@B DD 010H	; std::_Iosb<int>::_Hardfail
CONST	ENDS
;	COMDAT ?badbit@?$_Iosb@H@std@@2W4_Iostate@12@B
CONST	SEGMENT
?badbit@?$_Iosb@H@std@@2W4_Iostate@12@B DD 04H		; std::_Iosb<int>::badbit
CONST	ENDS
;	COMDAT ?failbit@?$_Iosb@H@std@@2W4_Iostate@12@B
CONST	SEGMENT
?failbit@?$_Iosb@H@std@@2W4_Iostate@12@B DD 02H		; std::_Iosb<int>::failbit
CONST	ENDS
;	COMDAT ?eofbit@?$_Iosb@H@std@@2W4_Iostate@12@B
CONST	SEGMENT
?eofbit@?$_Iosb@H@std@@2W4_Iostate@12@B DD 01H		; std::_Iosb<int>::eofbit
CONST	ENDS
;	COMDAT ?goodbit@?$_Iosb@H@std@@2W4_Iostate@12@B
CONST	SEGMENT
?goodbit@?$_Iosb@H@std@@2W4_Iostate@12@B DD 00H		; std::_Iosb<int>::goodbit
CONST	ENDS
;	COMDAT ?floatfield@?$_Iosb@H@std@@2W4_Fmtflags@12@B
CONST	SEGMENT
?floatfield@?$_Iosb@H@std@@2W4_Fmtflags@12@B DD 03000H	; std::_Iosb<int>::floatfield
CONST	ENDS
;	COMDAT ?basefield@?$_Iosb@H@std@@2W4_Fmtflags@12@B
CONST	SEGMENT
?basefield@?$_Iosb@H@std@@2W4_Fmtflags@12@B DD 0e00H	; std::_Iosb<int>::basefield
CONST	ENDS
;	COMDAT ?adjustfield@?$_Iosb@H@std@@2W4_Fmtflags@12@B
CONST	SEGMENT
?adjustfield@?$_Iosb@H@std@@2W4_Fmtflags@12@B DD 01c0H	; std::_Iosb<int>::adjustfield
CONST	ENDS
;	COMDAT ?_Stdio@?$_Iosb@H@std@@2W4_Fmtflags@12@B
CONST	SEGMENT
?_Stdio@?$_Iosb@H@std@@2W4_Fmtflags@12@B DD 08000H	; std::_Iosb<int>::_Stdio
CONST	ENDS
;	COMDAT ?boolalpha@?$_Iosb@H@std@@2W4_Fmtflags@12@B
CONST	SEGMENT
?boolalpha@?$_Iosb@H@std@@2W4_Fmtflags@12@B DD 04000H	; std::_Iosb<int>::boolalpha
CONST	ENDS
;	COMDAT ?hexfloat@?$_Iosb@H@std@@2W4_Fmtflags@12@B
CONST	SEGMENT
?hexfloat@?$_Iosb@H@std@@2W4_Fmtflags@12@B DD 03000H	; std::_Iosb<int>::hexfloat
CONST	ENDS
;	COMDAT ?fixed@?$_Iosb@H@std@@2W4_Fmtflags@12@B
CONST	SEGMENT
?fixed@?$_Iosb@H@std@@2W4_Fmtflags@12@B DD 02000H	; std::_Iosb<int>::fixed
CONST	ENDS
;	COMDAT ?scientific@?$_Iosb@H@std@@2W4_Fmtflags@12@B
CONST	SEGMENT
?scientific@?$_Iosb@H@std@@2W4_Fmtflags@12@B DD 01000H	; std::_Iosb<int>::scientific
CONST	ENDS
;	COMDAT ?hex@?$_Iosb@H@std@@2W4_Fmtflags@12@B
CONST	SEGMENT
?hex@?$_Iosb@H@std@@2W4_Fmtflags@12@B DD 0800H		; std::_Iosb<int>::hex
CONST	ENDS
;	COMDAT ?oct@?$_Iosb@H@std@@2W4_Fmtflags@12@B
CONST	SEGMENT
?oct@?$_Iosb@H@std@@2W4_Fmtflags@12@B DD 0400H		; std::_Iosb<int>::oct
CONST	ENDS
;	COMDAT ?dec@?$_Iosb@H@std@@2W4_Fmtflags@12@B
CONST	SEGMENT
?dec@?$_Iosb@H@std@@2W4_Fmtflags@12@B DD 0200H		; std::_Iosb<int>::dec
CONST	ENDS
;	COMDAT ?internal@?$_Iosb@H@std@@2W4_Fmtflags@12@B
CONST	SEGMENT
?internal@?$_Iosb@H@std@@2W4_Fmtflags@12@B DD 0100H	; std::_Iosb<int>::internal
CONST	ENDS
;	COMDAT ?right@?$_Iosb@H@std@@2W4_Fmtflags@12@B
CONST	SEGMENT
?right@?$_Iosb@H@std@@2W4_Fmtflags@12@B DD 080H		; std::_Iosb<int>::right
CONST	ENDS
;	COMDAT ?left@?$_Iosb@H@std@@2W4_Fmtflags@12@B
CONST	SEGMENT
?left@?$_Iosb@H@std@@2W4_Fmtflags@12@B DD 040H		; std::_Iosb<int>::left
CONST	ENDS
;	COMDAT ?showpos@?$_Iosb@H@std@@2W4_Fmtflags@12@B
CONST	SEGMENT
?showpos@?$_Iosb@H@std@@2W4_Fmtflags@12@B DD 020H	; std::_Iosb<int>::showpos
CONST	ENDS
;	COMDAT ?showpoint@?$_Iosb@H@std@@2W4_Fmtflags@12@B
CONST	SEGMENT
?showpoint@?$_Iosb@H@std@@2W4_Fmtflags@12@B DD 010H	; std::_Iosb<int>::showpoint
CONST	ENDS
;	COMDAT ?showbase@?$_Iosb@H@std@@2W4_Fmtflags@12@B
CONST	SEGMENT
?showbase@?$_Iosb@H@std@@2W4_Fmtflags@12@B DD 08H	; std::_Iosb<int>::showbase
CONST	ENDS
;	COMDAT ?uppercase@?$_Iosb@H@std@@2W4_Fmtflags@12@B
CONST	SEGMENT
?uppercase@?$_Iosb@H@std@@2W4_Fmtflags@12@B DD 04H	; std::_Iosb<int>::uppercase
CONST	ENDS
;	COMDAT ?unitbuf@?$_Iosb@H@std@@2W4_Fmtflags@12@B
CONST	SEGMENT
?unitbuf@?$_Iosb@H@std@@2W4_Fmtflags@12@B DD 02H	; std::_Iosb<int>::unitbuf
CONST	ENDS
;	COMDAT ?skipws@?$_Iosb@H@std@@2W4_Fmtflags@12@B
CONST	SEGMENT
?skipws@?$_Iosb@H@std@@2W4_Fmtflags@12@B DD 01H		; std::_Iosb<int>::skipws
CONST	ENDS
;	COMDAT ?table_size@?$ctype@D@std@@2IB
CONST	SEGMENT
?table_size@?$ctype@D@std@@2IB DD 0100H			; std::ctype<char>::table_size
CONST	ENDS
;	COMDAT ?none@?$_Locbase@H@std@@2HB
CONST	SEGMENT
?none@?$_Locbase@H@std@@2HB DD 00H			; std::_Locbase<int>::none
CONST	ENDS
;	COMDAT ?all@?$_Locbase@H@std@@2HB
CONST	SEGMENT
?all@?$_Locbase@H@std@@2HB DD 03fH			; std::_Locbase<int>::all
CONST	ENDS
;	COMDAT ?messages@?$_Locbase@H@std@@2HB
CONST	SEGMENT
?messages@?$_Locbase@H@std@@2HB DD 020H			; std::_Locbase<int>::messages
CONST	ENDS
;	COMDAT ?time@?$_Locbase@H@std@@2HB
CONST	SEGMENT
?time@?$_Locbase@H@std@@2HB DD 010H			; std::_Locbase<int>::time
CONST	ENDS
;	COMDAT ?numeric@?$_Locbase@H@std@@2HB
CONST	SEGMENT
?numeric@?$_Locbase@H@std@@2HB DD 08H			; std::_Locbase<int>::numeric
CONST	ENDS
;	COMDAT ?monetary@?$_Locbase@H@std@@2HB
CONST	SEGMENT
?monetary@?$_Locbase@H@std@@2HB DD 04H			; std::_Locbase<int>::monetary
CONST	ENDS
;	COMDAT ?ctype@?$_Locbase@H@std@@2HB
CONST	SEGMENT
?ctype@?$_Locbase@H@std@@2HB DD 02H			; std::_Locbase<int>::ctype
CONST	ENDS
;	COMDAT ?collate@?$_Locbase@H@std@@2HB
CONST	SEGMENT
?collate@?$_Locbase@H@std@@2HB DD 01H			; std::_Locbase<int>::collate
CONST	ENDS
_DATA	SEGMENT
__bad_alloc_Message DD FLAT:??_C@_0P@GHFPNOJB@bad?5allocation?$AA@
_DATA	ENDS
;	COMDAT ??_C@_0P@GHFPNOJB@bad?5allocation?$AA@
CONST	SEGMENT
??_C@_0P@GHFPNOJB@bad?5allocation?$AA@ DB 'bad allocation', 00H ; `string'
CONST	ENDS
PUBLIC	??_C@_0EF@GNOGEIAE@c?3?2program?5files?5?$CIx86?$CJ?2microsoft@ ; `string'
PUBLIC	__TI2?AVbad_alloc@std@@
PUBLIC	??0bad_alloc@std@@QAE@PBD@Z			; std::bad_alloc::bad_alloc
PUBLIC	?allocate@?$_DebugHeapAllocator@D@std@@QAAPADIPBX@Z ; std::_DebugHeapAllocator<char>::allocate
PUBLIC	??1bad_alloc@std@@UAE@XZ			; std::bad_alloc::~bad_alloc
PUBLIC	__CTA2?AVbad_alloc@std@@
PUBLIC	__CT??_R0?AVbad_alloc@std@@@8??0bad_alloc@std@@QAE@ABV01@@Z12
PUBLIC	??_R0?AVbad_alloc@std@@@8			; std::bad_alloc `RTTI Type Descriptor'
PUBLIC	??0bad_alloc@std@@QAE@ABV01@@Z			; std::bad_alloc::bad_alloc
PUBLIC	__CT??_R0?AVexception@std@@@8??0exception@std@@QAE@ABV01@@Z12
PUBLIC	??_R0?AVexception@std@@@8			; std::exception `RTTI Type Descriptor'
EXTRN	??_U@YAPAXIABU_DebugHeapTag_t@std@@PADH@Z:PROC	; operator new[]
EXTRN	?_DebugHeapTag_func@std@@YAABU_DebugHeapTag_t@1@XZ:PROC ; std::_DebugHeapTag_func
EXTRN	__RTC_CheckEsp:PROC
EXTRN	__RTC_Shutdown:PROC
EXTRN	__RTC_InitBase:PROC
EXTRN	__CxxThrowException@8:PROC
EXTRN	??_7type_info@@6B@:QWORD			; type_info::`vftable'
EXTRN	??0exception@std@@QAE@ABV01@@Z:PROC		; std::exception::exception
;	COMDAT ??_R0?AVexception@std@@@8
; File c:\program files (x86)\microsoft visual studio 9.0\vc\include\xdebug
_DATA	SEGMENT
??_R0?AVexception@std@@@8 DD FLAT:??_7type_info@@6B@	; std::exception `RTTI Type Descriptor'
	DD	00H
	DB	'.?AVexception@std@@', 00H
_DATA	ENDS
;	COMDAT __CT??_R0?AVexception@std@@@8??0exception@std@@QAE@ABV01@@Z12
xdata$x	SEGMENT
__CT??_R0?AVexception@std@@@8??0exception@std@@QAE@ABV01@@Z12 DD 00H
	DD	FLAT:??_R0?AVexception@std@@@8
	DD	00H
	DD	0ffffffffH
	ORG $+4
	DD	0cH
	DD	FLAT:??0exception@std@@QAE@ABV01@@Z
xdata$x	ENDS
;	COMDAT ??_R0?AVbad_alloc@std@@@8
_DATA	SEGMENT
??_R0?AVbad_alloc@std@@@8 DD FLAT:??_7type_info@@6B@	; std::bad_alloc `RTTI Type Descriptor'
	DD	00H
	DB	'.?AVbad_alloc@std@@', 00H
_DATA	ENDS
;	COMDAT __CT??_R0?AVbad_alloc@std@@@8??0bad_alloc@std@@QAE@ABV01@@Z12
xdata$x	SEGMENT
__CT??_R0?AVbad_alloc@std@@@8??0bad_alloc@std@@QAE@ABV01@@Z12 DD 00H
	DD	FLAT:??_R0?AVbad_alloc@std@@@8
	DD	00H
	DD	0ffffffffH
	ORG $+4
	DD	0cH
	DD	FLAT:??0bad_alloc@std@@QAE@ABV01@@Z
xdata$x	ENDS
;	COMDAT __CTA2?AVbad_alloc@std@@
xdata$x	SEGMENT
__CTA2?AVbad_alloc@std@@ DD 02H
	DD	FLAT:__CT??_R0?AVbad_alloc@std@@@8??0bad_alloc@std@@QAE@ABV01@@Z12
	DD	FLAT:__CT??_R0?AVexception@std@@@8??0exception@std@@QAE@ABV01@@Z12
xdata$x	ENDS
;	COMDAT ??_C@_0EF@GNOGEIAE@c?3?2program?5files?5?$CIx86?$CJ?2microsoft@
CONST	SEGMENT
??_C@_0EF@GNOGEIAE@c?3?2program?5files?5?$CIx86?$CJ?2microsoft@ DB 'c:\pr'
	DB	'ogram files (x86)\microsoft visual studio 9.0\vc\include\xdeb'
	DB	'ug', 00H					; `string'
CONST	ENDS
;	COMDAT __TI2?AVbad_alloc@std@@
xdata$x	SEGMENT
__TI2?AVbad_alloc@std@@ DD 00H
	DD	FLAT:??1bad_alloc@std@@UAE@XZ
	DD	00H
	DD	FLAT:__CTA2?AVbad_alloc@std@@
xdata$x	ENDS
;	COMDAT rtc$TMZ
rtc$TMZ	SEGMENT
__RTC_Shutdown.rtc$TMZ DD FLAT:__RTC_Shutdown
rtc$TMZ	ENDS
;	COMDAT rtc$IMZ
rtc$IMZ	SEGMENT
__RTC_InitBase.rtc$IMZ DD FLAT:__RTC_InitBase
; Function compile flags: /Odtp /RTCsu /ZI
rtc$IMZ	ENDS
;	COMDAT ?allocate@?$_DebugHeapAllocator@D@std@@QAAPADIPBX@Z
_TEXT	SEGMENT
$T214624 = -220						; size = 12
$T214626 = -200						; size = 4
_this$ = 8						; size = 4
__Count$ = 12						; size = 4
___formal$ = 16						; size = 4
?allocate@?$_DebugHeapAllocator@D@std@@QAAPADIPBX@Z PROC ; std::_DebugHeapAllocator<char>::allocate, COMDAT

; 79   : 		{	// check for integer overflow

	push	ebp
	mov	ebp, esp
	sub	esp, 224				; 000000e0H
	push	ebx
	push	esi
	push	edi
	lea	edi, DWORD PTR [ebp-224]
	mov	ecx, 56					; 00000038H
	mov	eax, -858993460				; ccccccccH
	rep stosd

; 80   : 		if (_Count <= 0)

	cmp	DWORD PTR __Count$[ebp], 0
	ja	SHORT $LN3@allocate

; 81   : 			_Count = 0;

	mov	DWORD PTR __Count$[ebp], 0
	jmp	SHORT $LN2@allocate
$LN3@allocate:

; 82   : 		else if (((size_t)(-1) / _Count) < sizeof(_Ty))

	or	eax, -1
	xor	edx, edx
	div	DWORD PTR __Count$[ebp]
	cmp	eax, 1
	jae	SHORT $LN2@allocate

; 83   : 			_THROW_NCEE(std::bad_alloc, NULL);

	push	0
	lea	ecx, DWORD PTR $T214624[ebp]
	call	??0bad_alloc@std@@QAE@PBD@Z		; std::bad_alloc::bad_alloc
	push	OFFSET __TI2?AVbad_alloc@std@@
	lea	eax, DWORD PTR $T214624[ebp]
	push	eax
	call	__CxxThrowException@8
$LN2@allocate:

; 84   : 
; 85   : 			// allocate array of _Count elements, ignore hint
; 86   : 		return ((_Ty *)_NEW_CRT char[_Count * sizeof(_Ty)]);

	push	86					; 00000056H
	push	OFFSET ??_C@_0EF@GNOGEIAE@c?3?2program?5files?5?$CIx86?$CJ?2microsoft@
	call	?_DebugHeapTag_func@std@@YAABU_DebugHeapTag_t@1@XZ ; std::_DebugHeapTag_func
	push	eax
	mov	eax, DWORD PTR __Count$[ebp]
	push	eax
	call	??_U@YAPAXIABU_DebugHeapTag_t@std@@PADH@Z ; operator new[]
	add	esp, 16					; 00000010H
	mov	DWORD PTR $T214626[ebp], eax
	mov	eax, DWORD PTR $T214626[ebp]
$LN5@allocate:

; 87   : 		}

	pop	edi
	pop	esi
	pop	ebx
	add	esp, 224				; 000000e0H
	cmp	ebp, esp
	call	__RTC_CheckEsp
	mov	esp, ebp
	pop	ebp
	ret	0
?allocate@?$_DebugHeapAllocator@D@std@@QAAPADIPBX@Z ENDP ; std::_DebugHeapAllocator<char>::allocate
_TEXT	ENDS
PUBLIC	??_7bad_alloc@std@@6B@				; std::bad_alloc::`vftable'
PUBLIC	??_R4bad_alloc@std@@6B@				; std::bad_alloc::`RTTI Complete Object Locator'
PUBLIC	??_R3bad_alloc@std@@8				; std::bad_alloc::`RTTI Class Hierarchy Descriptor'
PUBLIC	??_R2bad_alloc@std@@8				; std::bad_alloc::`RTTI Base Class Array'
PUBLIC	??_R1A@?0A@EA@bad_alloc@std@@8			; std::bad_alloc::`RTTI Base Class Descriptor at (0,-1,0,64)'
PUBLIC	??_R1A@?0A@EA@exception@std@@8			; std::exception::`RTTI Base Class Descriptor at (0,-1,0,64)'
PUBLIC	??_R3exception@std@@8				; std::exception::`RTTI Class Hierarchy Descriptor'
PUBLIC	??_R2exception@std@@8				; std::exception::`RTTI Base Class Array'
EXTRN	??0exception@std@@QAE@ABQBD@Z:PROC		; std::exception::exception
EXTRN	??_Ebad_alloc@std@@UAEPAXI@Z:PROC		; std::bad_alloc::`vector deleting destructor'
EXTRN	?what@exception@std@@UBEPBDXZ:PROC		; std::exception::what
;	COMDAT ??_R2exception@std@@8
; File c:\program files (x86)\microsoft visual studio 9.0\vc\include\exception
rdata$r	SEGMENT
??_R2exception@std@@8 DD FLAT:??_R1A@?0A@EA@exception@std@@8 ; std::exception::`RTTI Base Class Array'
rdata$r	ENDS
;	COMDAT ??_R3exception@std@@8
rdata$r	SEGMENT
??_R3exception@std@@8 DD 00H				; std::exception::`RTTI Class Hierarchy Descriptor'
	DD	00H
	DD	01H
	DD	FLAT:??_R2exception@std@@8
rdata$r	ENDS
;	COMDAT ??_R1A@?0A@EA@exception@std@@8
rdata$r	SEGMENT
??_R1A@?0A@EA@exception@std@@8 DD FLAT:??_R0?AVexception@std@@@8 ; std::exception::`RTTI Base Class Descriptor at (0,-1,0,64)'
	DD	00H
	DD	00H
	DD	0ffffffffH
	DD	00H
	DD	040H
	DD	FLAT:??_R3exception@std@@8
rdata$r	ENDS
;	COMDAT ??_R1A@?0A@EA@bad_alloc@std@@8
rdata$r	SEGMENT
??_R1A@?0A@EA@bad_alloc@std@@8 DD FLAT:??_R0?AVbad_alloc@std@@@8 ; std::bad_alloc::`RTTI Base Class Descriptor at (0,-1,0,64)'
	DD	01H
	DD	00H
	DD	0ffffffffH
	DD	00H
	DD	040H
	DD	FLAT:??_R3bad_alloc@std@@8
rdata$r	ENDS
;	COMDAT ??_R2bad_alloc@std@@8
rdata$r	SEGMENT
??_R2bad_alloc@std@@8 DD FLAT:??_R1A@?0A@EA@bad_alloc@std@@8 ; std::bad_alloc::`RTTI Base Class Array'
	DD	FLAT:??_R1A@?0A@EA@exception@std@@8
rdata$r	ENDS
;	COMDAT ??_R3bad_alloc@std@@8
rdata$r	SEGMENT
??_R3bad_alloc@std@@8 DD 00H				; std::bad_alloc::`RTTI Class Hierarchy Descriptor'
	DD	00H
	DD	02H
	DD	FLAT:??_R2bad_alloc@std@@8
rdata$r	ENDS
;	COMDAT ??_R4bad_alloc@std@@6B@
rdata$r	SEGMENT
??_R4bad_alloc@std@@6B@ DD 00H				; std::bad_alloc::`RTTI Complete Object Locator'
	DD	00H
	DD	00H
	DD	FLAT:??_R0?AVbad_alloc@std@@@8
	DD	FLAT:??_R3bad_alloc@std@@8
rdata$r	ENDS
;	COMDAT ??_7bad_alloc@std@@6B@
CONST	SEGMENT
??_7bad_alloc@std@@6B@ DD FLAT:??_R4bad_alloc@std@@6B@	; std::bad_alloc::`vftable'
	DD	FLAT:??_Ebad_alloc@std@@UAEPAXI@Z
	DD	FLAT:?what@exception@std@@UBEPBDXZ
; Function compile flags: /Odtp /RTCsu /ZI
CONST	ENDS
;	COMDAT ??0bad_alloc@std@@QAE@PBD@Z
_TEXT	SEGMENT
_this$ = -8						; size = 4
__Message$ = 8						; size = 4
??0bad_alloc@std@@QAE@PBD@Z PROC			; std::bad_alloc::bad_alloc, COMDAT
; _this$ = ecx

; 371  : 		{	// construct from message string

	push	ebp
	mov	ebp, esp
	sub	esp, 204				; 000000ccH
	push	ebx
	push	esi
	push	edi
	push	ecx
	lea	edi, DWORD PTR [ebp-204]
	mov	ecx, 51					; 00000033H
	mov	eax, -858993460				; ccccccccH
	rep stosd
	pop	ecx
	mov	DWORD PTR _this$[ebp], ecx
	lea	eax, DWORD PTR __Message$[ebp]
	push	eax
	mov	ecx, DWORD PTR _this$[ebp]
	call	??0exception@std@@QAE@ABQBD@Z		; std::exception::exception
	mov	eax, DWORD PTR _this$[ebp]
	mov	DWORD PTR [eax], OFFSET ??_7bad_alloc@std@@6B@

; 372  : 		}

	mov	eax, DWORD PTR _this$[ebp]
	pop	edi
	pop	esi
	pop	ebx
	add	esp, 204				; 000000ccH
	cmp	ebp, esp
	call	__RTC_CheckEsp
	mov	esp, ebp
	pop	ebp
	ret	4
??0bad_alloc@std@@QAE@PBD@Z ENDP			; std::bad_alloc::bad_alloc
_TEXT	ENDS
EXTRN	??1exception@std@@UAE@XZ:PROC			; std::exception::~exception
; Function compile flags: /Odtp /RTCsu /ZI
;	COMDAT ??1bad_alloc@std@@UAE@XZ
_TEXT	SEGMENT
_this$ = -8						; size = 4
??1bad_alloc@std@@UAE@XZ PROC				; std::bad_alloc::~bad_alloc, COMDAT
; _this$ = ecx

; 380  : 		{	// destroy the object

	push	ebp
	mov	ebp, esp
	sub	esp, 204				; 000000ccH
	push	ebx
	push	esi
	push	edi
	push	ecx
	lea	edi, DWORD PTR [ebp-204]
	mov	ecx, 51					; 00000033H
	mov	eax, -858993460				; ccccccccH
	rep stosd
	pop	ecx
	mov	DWORD PTR _this$[ebp], ecx
	mov	eax, DWORD PTR _this$[ebp]
	mov	DWORD PTR [eax], OFFSET ??_7bad_alloc@std@@6B@

; 381  : 		}

	mov	ecx, DWORD PTR _this$[ebp]
	call	??1exception@std@@UAE@XZ		; std::exception::~exception
	pop	edi
	pop	esi
	pop	ebx
	add	esp, 204				; 000000ccH
	cmp	ebp, esp
	call	__RTC_CheckEsp
	mov	esp, ebp
	pop	ebp
	ret	0
??1bad_alloc@std@@UAE@XZ ENDP				; std::bad_alloc::~bad_alloc
_TEXT	ENDS
EXTRN	??3@YAXPAX@Z:PROC				; operator delete
; Function compile flags: /Odtp /RTCsu /ZI
;	COMDAT ??_Gbad_alloc@std@@UAEPAXI@Z
_TEXT	SEGMENT
_this$ = -8						; size = 4
___flags$ = 8						; size = 4
??_Gbad_alloc@std@@UAEPAXI@Z PROC			; std::bad_alloc::`scalar deleting destructor', COMDAT
; _this$ = ecx
	push	ebp
	mov	ebp, esp
	sub	esp, 204				; 000000ccH
	push	ebx
	push	esi
	push	edi
	push	ecx
	lea	edi, DWORD PTR [ebp-204]
	mov	ecx, 51					; 00000033H
	mov	eax, -858993460				; ccccccccH
	rep stosd
	pop	ecx
	mov	DWORD PTR _this$[ebp], ecx
	mov	ecx, DWORD PTR _this$[ebp]
	call	??1bad_alloc@std@@UAE@XZ		; std::bad_alloc::~bad_alloc
	mov	eax, DWORD PTR ___flags$[ebp]
	and	eax, 1
	je	SHORT $LN1@scalar
	mov	eax, DWORD PTR _this$[ebp]
	push	eax
	call	??3@YAXPAX@Z				; operator delete
	add	esp, 4
$LN1@scalar:
	mov	eax, DWORD PTR _this$[ebp]
	pop	edi
	pop	esi
	pop	ebx
	add	esp, 204				; 000000ccH
	cmp	ebp, esp
	call	__RTC_CheckEsp
	mov	esp, ebp
	pop	ebp
	ret	4
??_Gbad_alloc@std@@UAEPAXI@Z ENDP			; std::bad_alloc::`scalar deleting destructor'
_TEXT	ENDS
PUBLIC	?allocate@?$_DebugHeapAllocator@D@std@@QAEPADI@Z ; std::_DebugHeapAllocator<char>::allocate
; Function compile flags: /Odtp /RTCsu /ZI
; File c:\program files (x86)\microsoft visual studio 9.0\vc\include\xdebug
;	COMDAT ?allocate@?$_DebugHeapAllocator@D@std@@QAEPADI@Z
_TEXT	SEGMENT
$T214644 = -232						; size = 12
$T214645 = -212						; size = 4
_this$ = -8						; size = 4
__Count$ = 8						; size = 4
?allocate@?$_DebugHeapAllocator@D@std@@QAEPADI@Z PROC	; std::_DebugHeapAllocator<char>::allocate, COMDAT
; _this$ = ecx

; 90   : 		{	// check for integer overflow

	push	ebp
	mov	ebp, esp
	sub	esp, 236				; 000000ecH
	push	ebx
	push	esi
	push	edi
	push	ecx
	lea	edi, DWORD PTR [ebp-236]
	mov	ecx, 59					; 0000003bH
	mov	eax, -858993460				; ccccccccH
	rep stosd
	pop	ecx
	mov	DWORD PTR _this$[ebp], ecx

; 91   : 		if (_Count <= 0)

	cmp	DWORD PTR __Count$[ebp], 0
	ja	SHORT $LN3@allocate@2

; 92   : 			_Count = 0;

	mov	DWORD PTR __Count$[ebp], 0
	jmp	SHORT $LN2@allocate@2
$LN3@allocate@2:

; 93   : 		else if (((size_t)(-1) / _Count) < sizeof(_Ty))

	or	eax, -1
	xor	edx, edx
	div	DWORD PTR __Count$[ebp]
	cmp	eax, 1
	jae	SHORT $LN2@allocate@2

; 94   : 			_THROW_NCEE(std::bad_alloc, NULL);

	push	0
	lea	ecx, DWORD PTR $T214644[ebp]
	call	??0bad_alloc@std@@QAE@PBD@Z		; std::bad_alloc::bad_alloc
	push	OFFSET __TI2?AVbad_alloc@std@@
	lea	eax, DWORD PTR $T214644[ebp]
	push	eax
	call	__CxxThrowException@8
$LN2@allocate@2:

; 95   : 
; 96   : 			// allocate array of _Count elements
; 97   : 		return ((_Ty *)_NEW_CRT char[_Count * sizeof(_Ty)]);

	push	97					; 00000061H
	push	OFFSET ??_C@_0EF@GNOGEIAE@c?3?2program?5files?5?$CIx86?$CJ?2microsoft@
	call	?_DebugHeapTag_func@std@@YAABU_DebugHeapTag_t@1@XZ ; std::_DebugHeapTag_func
	push	eax
	mov	eax, DWORD PTR __Count$[ebp]
	push	eax
	call	??_U@YAPAXIABU_DebugHeapTag_t@std@@PADH@Z ; operator new[]
	add	esp, 16					; 00000010H
	mov	DWORD PTR $T214645[ebp], eax
	mov	eax, DWORD PTR $T214645[ebp]
$LN5@allocate@2:

; 98   : 		}

	pop	edi
	pop	esi
	pop	ebx
	add	esp, 236				; 000000ecH
	cmp	ebp, esp
	call	__RTC_CheckEsp
	mov	esp, ebp
	pop	ebp
	ret	4
?allocate@?$_DebugHeapAllocator@D@std@@QAEPADI@Z ENDP	; std::_DebugHeapAllocator<char>::allocate
_TEXT	ENDS
PUBLIC	??$_DebugHeapDelete@X@std@@YAXPAX@Z		; std::_DebugHeapDelete<void>
PUBLIC	?deallocate@?$_DebugHeapAllocator@D@std@@QAEXPADI@Z ; std::_DebugHeapAllocator<char>::deallocate
; Function compile flags: /Odtp /RTCsu /ZI
;	COMDAT ?deallocate@?$_DebugHeapAllocator@D@std@@QAEXPADI@Z
_TEXT	SEGMENT
_this$ = -8						; size = 4
__Ptr$ = 8						; size = 4
___formal$ = 12						; size = 4
?deallocate@?$_DebugHeapAllocator@D@std@@QAEXPADI@Z PROC ; std::_DebugHeapAllocator<char>::deallocate, COMDAT
; _this$ = ecx

; 101  : 		{	// deallocate object at _Ptr, ignore size

	push	ebp
	mov	ebp, esp
	sub	esp, 204				; 000000ccH
	push	ebx
	push	esi
	push	edi
	push	ecx
	lea	edi, DWORD PTR [ebp-204]
	mov	ecx, 51					; 00000033H
	mov	eax, -858993460				; ccccccccH
	rep stosd
	pop	ecx
	mov	DWORD PTR _this$[ebp], ecx

; 102  : 		_DELETE_CRT_VEC(_Ptr);

	mov	eax, DWORD PTR __Ptr$[ebp]
	push	eax
	call	??$_DebugHeapDelete@X@std@@YAXPAX@Z	; std::_DebugHeapDelete<void>
	add	esp, 4

; 103  : 		}

	pop	edi
	pop	esi
	pop	ebx
	add	esp, 204				; 000000ccH
	cmp	ebp, esp
	call	__RTC_CheckEsp
	mov	esp, ebp
	pop	ebp
	ret	8
?deallocate@?$_DebugHeapAllocator@D@std@@QAEXPADI@Z ENDP ; std::_DebugHeapAllocator<char>::deallocate
; Function compile flags: /Odtp /RTCsu /ZI
_TEXT	ENDS
;	COMDAT ??0bad_alloc@std@@QAE@ABV01@@Z
_TEXT	SEGMENT
_this$ = -8						; size = 4
___that$ = 8						; size = 4
??0bad_alloc@std@@QAE@ABV01@@Z PROC			; std::bad_alloc::bad_alloc, COMDAT
; _this$ = ecx
	push	ebp
	mov	ebp, esp
	sub	esp, 204				; 000000ccH
	push	ebx
	push	esi
	push	edi
	push	ecx
	lea	edi, DWORD PTR [ebp-204]
	mov	ecx, 51					; 00000033H
	mov	eax, -858993460				; ccccccccH
	rep stosd
	pop	ecx
	mov	DWORD PTR _this$[ebp], ecx
	mov	eax, DWORD PTR ___that$[ebp]
	push	eax
	mov	ecx, DWORD PTR _this$[ebp]
	call	??0exception@std@@QAE@ABV01@@Z		; std::exception::exception
	mov	eax, DWORD PTR _this$[ebp]
	mov	DWORD PTR [eax], OFFSET ??_7bad_alloc@std@@6B@
	mov	eax, DWORD PTR _this$[ebp]
	pop	edi
	pop	esi
	pop	ebx
	add	esp, 204				; 000000ccH
	cmp	ebp, esp
	call	__RTC_CheckEsp
	mov	esp, ebp
	pop	ebp
	ret	4
??0bad_alloc@std@@QAE@ABV01@@Z ENDP			; std::bad_alloc::bad_alloc
_TEXT	ENDS
PUBLIC	??0?$allocator@D@std@@QAE@XZ			; std::allocator<char>::allocator<char>
PUBLIC	??0?$_DebugHeapAllocator@D@std@@QAE@XZ		; std::_DebugHeapAllocator<char>::_DebugHeapAllocator<char>
; Function compile flags: /Odtp /RTCsu /ZI
;	COMDAT ??0?$_DebugHeapAllocator@D@std@@QAE@XZ
_TEXT	SEGMENT
_this$ = -8						; size = 4
??0?$_DebugHeapAllocator@D@std@@QAE@XZ PROC		; std::_DebugHeapAllocator<char>::_DebugHeapAllocator<char>, COMDAT
; _this$ = ecx
	push	ebp
	mov	ebp, esp
	sub	esp, 204				; 000000ccH
	push	ebx
	push	esi
	push	edi
	push	ecx
	lea	edi, DWORD PTR [ebp-204]
	mov	ecx, 51					; 00000033H
	mov	eax, -858993460				; ccccccccH
	rep stosd
	pop	ecx
	mov	DWORD PTR _this$[ebp], ecx
	mov	ecx, DWORD PTR _this$[ebp]
	call	??0?$allocator@D@std@@QAE@XZ		; std::allocator<char>::allocator<char>
	mov	eax, DWORD PTR _this$[ebp]
	pop	edi
	pop	esi
	pop	ebx
	add	esp, 204				; 000000ccH
	cmp	ebp, esp
	call	__RTC_CheckEsp
	mov	esp, ebp
	pop	ebp
	ret	0
??0?$_DebugHeapAllocator@D@std@@QAE@XZ ENDP		; std::_DebugHeapAllocator<char>::_DebugHeapAllocator<char>
; Function compile flags: /Odtp /RTCsu /ZI
; File c:\program files (x86)\microsoft visual studio 9.0\vc\include\xmemory
_TEXT	ENDS
;	COMDAT ??0?$allocator@D@std@@QAE@XZ
_TEXT	SEGMENT
_this$ = -8						; size = 4
??0?$allocator@D@std@@QAE@XZ PROC			; std::allocator<char>::allocator<char>, COMDAT
; _this$ = ecx

; 119  : 	allocator() _THROW0()

	push	ebp
	mov	ebp, esp
	sub	esp, 204				; 000000ccH
	push	ebx
	push	esi
	push	edi
	push	ecx
	lea	edi, DWORD PTR [ebp-204]
	mov	ecx, 51					; 00000033H
	mov	eax, -858993460				; ccccccccH
	rep stosd
	pop	ecx
	mov	DWORD PTR _this$[ebp], ecx

; 120  : 		{	// construct default allocator (do nothing)
; 121  : 		}

	mov	eax, DWORD PTR _this$[ebp]
	pop	edi
	pop	esi
	pop	ebx
	mov	esp, ebp
	pop	ebp
	ret	0
??0?$allocator@D@std@@QAE@XZ ENDP			; std::allocator<char>::allocator<char>
_TEXT	ENDS
PUBLIC	??0?$allocator@D@std@@QAE@ABV01@@Z		; std::allocator<char>::allocator<char>
PUBLIC	??0?$_DebugHeapAllocator@D@std@@QAE@ABV01@@Z	; std::_DebugHeapAllocator<char>::_DebugHeapAllocator<char>
; Function compile flags: /Odtp /RTCsu /ZI
;	COMDAT ??0?$_DebugHeapAllocator@D@std@@QAE@ABV01@@Z
_TEXT	SEGMENT
_this$ = -8						; size = 4
___that$ = 8						; size = 4
??0?$_DebugHeapAllocator@D@std@@QAE@ABV01@@Z PROC	; std::_DebugHeapAllocator<char>::_DebugHeapAllocator<char>, COMDAT
; _this$ = ecx
	push	ebp
	mov	ebp, esp
	sub	esp, 204				; 000000ccH
	push	ebx
	push	esi
	push	edi
	push	ecx
	lea	edi, DWORD PTR [ebp-204]
	mov	ecx, 51					; 00000033H
	mov	eax, -858993460				; ccccccccH
	rep stosd
	pop	ecx
	mov	DWORD PTR _this$[ebp], ecx
	mov	eax, DWORD PTR ___that$[ebp]
	push	eax
	mov	ecx, DWORD PTR _this$[ebp]
	call	??0?$allocator@D@std@@QAE@ABV01@@Z	; std::allocator<char>::allocator<char>
	mov	eax, DWORD PTR _this$[ebp]
	pop	edi
	pop	esi
	pop	ebx
	add	esp, 204				; 000000ccH
	cmp	ebp, esp
	call	__RTC_CheckEsp
	mov	esp, ebp
	pop	ebp
	ret	4
??0?$_DebugHeapAllocator@D@std@@QAE@ABV01@@Z ENDP	; std::_DebugHeapAllocator<char>::_DebugHeapAllocator<char>
; Function compile flags: /Odtp /RTCsu /ZI
_TEXT	ENDS
;	COMDAT ??0?$allocator@D@std@@QAE@ABV01@@Z
_TEXT	SEGMENT
_this$ = -8						; size = 4
___formal$ = 8						; size = 4
??0?$allocator@D@std@@QAE@ABV01@@Z PROC			; std::allocator<char>::allocator<char>, COMDAT
; _this$ = ecx

; 123  : 	allocator(const allocator<_Ty>&) _THROW0()

	push	ebp
	mov	ebp, esp
	sub	esp, 204				; 000000ccH
	push	ebx
	push	esi
	push	edi
	push	ecx
	lea	edi, DWORD PTR [ebp-204]
	mov	ecx, 51					; 00000033H
	mov	eax, -858993460				; ccccccccH
	rep stosd
	pop	ecx
	mov	DWORD PTR _this$[ebp], ecx

; 124  : 		{	// construct by copying (do nothing)
; 125  : 		}

	mov	eax, DWORD PTR _this$[ebp]
	pop	edi
	pop	esi
	pop	ebx
	mov	esp, ebp
	pop	ebp
	ret	4
??0?$allocator@D@std@@QAE@ABV01@@Z ENDP			; std::allocator<char>::allocator<char>
_TEXT	ENDS
EXTRN	_free:PROC
; Function compile flags: /Odtp /RTCsu /ZI
; File c:\program files (x86)\microsoft visual studio 9.0\vc\include\xdebug
;	COMDAT ??$_DebugHeapDelete@X@std@@YAXPAX@Z
_TEXT	SEGMENT
__Ptr$ = 8						; size = 4
??$_DebugHeapDelete@X@std@@YAXPAX@Z PROC		; std::_DebugHeapDelete<void>, COMDAT

; 55   : 	{	// delete from the debug CRT heap even if operator delete exists

	push	ebp
	mov	ebp, esp
	sub	esp, 192				; 000000c0H
	push	ebx
	push	esi
	push	edi
	lea	edi, DWORD PTR [ebp-192]
	mov	ecx, 48					; 00000030H
	mov	eax, -858993460				; ccccccccH
	rep stosd

; 56   : 	if (_Ptr != 0)

	cmp	DWORD PTR __Ptr$[ebp], 0
	je	SHORT $LN2@DebugHeapD

; 57   : 		{	// worth deleting
; 58   : 		_Ptr->~_Ty();
; 59   : 		// delete as _NORMAL_BLOCK, not _CRT_BLOCK, since we might have
; 60   : 		// facets allocated by normal new.
; 61   : 		free(_Ptr);

	mov	eax, DWORD PTR __Ptr$[ebp]
	push	eax
	call	_free
	add	esp, 4
$LN2@DebugHeapD:

; 62   : 		}
; 63   : 	}

	pop	edi
	pop	esi
	pop	ebx
	add	esp, 192				; 000000c0H
	cmp	ebp, esp
	call	__RTC_CheckEsp
	mov	esp, ebp
	pop	ebp
	ret	0
??$_DebugHeapDelete@X@std@@YAXPAX@Z ENDP		; std::_DebugHeapDelete<void>
_TEXT	ENDS
EXTRN	??0SystemAddress@RakNet@@QAE@IG@Z:PROC		; RakNet::SystemAddress::SystemAddress
; Function compile flags: /Odtp /RTCsu /ZI
; File d:\vice-players-master\raknet\raknettypes.h
;	COMDAT ??__EUNASSIGNED_SYSTEM_ADDRESS@RakNet@@YAXXZ
text$yc	SEGMENT
??__EUNASSIGNED_SYSTEM_ADDRESS@RakNet@@YAXXZ PROC	; RakNet::`dynamic initializer for 'UNASSIGNED_SYSTEM_ADDRESS'', COMDAT

; 196  : const SystemAddress UNASSIGNED_SYSTEM_ADDRESS(0xFFFFFFFF, 0xFFFF);

	push	ebp
	mov	ebp, esp
	sub	esp, 192				; 000000c0H
	push	ebx
	push	esi
	push	edi
	lea	edi, DWORD PTR [ebp-192]
	mov	ecx, 48					; 00000030H
	mov	eax, -858993460				; ccccccccH
	rep stosd
	push	65535					; 0000ffffH
	push	-1
	mov	ecx, OFFSET _UNASSIGNED_SYSTEM_ADDRESS
	call	??0SystemAddress@RakNet@@QAE@IG@Z	; RakNet::SystemAddress::SystemAddress
	pop	edi
	pop	esi
	pop	ebx
	add	esp, 192				; 000000c0H
	cmp	ebp, esp
	call	__RTC_CheckEsp
	mov	esp, ebp
	pop	ebp
	ret	0
??__EUNASSIGNED_SYSTEM_ADDRESS@RakNet@@YAXXZ ENDP	; RakNet::`dynamic initializer for 'UNASSIGNED_SYSTEM_ADDRESS''
text$yc	ENDS
PUBLIC	??0RakNetGUID@RakNet@@QAE@_K@Z			; RakNet::RakNetGUID::RakNetGUID
; Function compile flags: /Odtp /RTCsu /ZI
;	COMDAT ??__EUNASSIGNED_RAKNET_GUID@RakNet@@YAXXZ
text$yc	SEGMENT
??__EUNASSIGNED_RAKNET_GUID@RakNet@@YAXXZ PROC		; RakNet::`dynamic initializer for 'UNASSIGNED_RAKNET_GUID'', COMDAT

; 197  : const RakNetGUID UNASSIGNED_RAKNET_GUID((uint64_t)-1);

	push	ebp
	mov	ebp, esp
	sub	esp, 192				; 000000c0H
	push	ebx
	push	esi
	push	edi
	lea	edi, DWORD PTR [ebp-192]
	mov	ecx, 48					; 00000030H
	mov	eax, -858993460				; ccccccccH
	rep stosd
	push	-1
	push	-1
	mov	ecx, OFFSET _UNASSIGNED_RAKNET_GUID
	call	??0RakNetGUID@RakNet@@QAE@_K@Z		; RakNet::RakNetGUID::RakNetGUID
	pop	edi
	pop	esi
	pop	ebx
	add	esp, 192				; 000000c0H
	cmp	ebp, esp
	call	__RTC_CheckEsp
	mov	esp, ebp
	pop	ebp
	ret	0
??__EUNASSIGNED_RAKNET_GUID@RakNet@@YAXXZ ENDP		; RakNet::`dynamic initializer for 'UNASSIGNED_RAKNET_GUID''
; Function compile flags: /Odtp /RTCsu /ZI
text$yc	ENDS
;	COMDAT ??0RakNetGUID@RakNet@@QAE@_K@Z
_TEXT	SEGMENT
_this$ = -8						; size = 4
__g$ = 8						; size = 8
??0RakNetGUID@RakNet@@QAE@_K@Z PROC			; RakNet::RakNetGUID::RakNetGUID, COMDAT
; _this$ = ecx

; 157  : 	explicit RakNetGUID(uint64_t _g) {g=_g; systemIndex=(SystemIndex)-1;}

	push	ebp
	mov	ebp, esp
	sub	esp, 204				; 000000ccH
	push	ebx
	push	esi
	push	edi
	push	ecx
	lea	edi, DWORD PTR [ebp-204]
	mov	ecx, 51					; 00000033H
	mov	eax, -858993460				; ccccccccH
	rep stosd
	pop	ecx
	mov	DWORD PTR _this$[ebp], ecx
	mov	eax, DWORD PTR _this$[ebp]
	mov	ecx, DWORD PTR __g$[ebp]
	mov	DWORD PTR [eax], ecx
	mov	edx, DWORD PTR __g$[ebp+4]
	mov	DWORD PTR [eax+4], edx
	mov	eax, 65535				; 0000ffffH
	mov	ecx, DWORD PTR _this$[ebp]
	mov	WORD PTR [ecx+8], ax
	mov	eax, DWORD PTR _this$[ebp]
	pop	edi
	pop	esi
	pop	ebx
	mov	esp, ebp
	pop	ebp
	ret	8
??0RakNetGUID@RakNet@@QAE@_K@Z ENDP			; RakNet::RakNetGUID::RakNetGUID
_TEXT	ENDS
PUBLIC	??0id@locale@std@@QAE@I@Z			; std::locale::id::id
; Function compile flags: /Odtp /RTCsu /ZI
; File c:\program files (x86)\microsoft visual studio 9.0\vc\include\xtree
;	COMDAT ??__E?id@?$codecvt@DDH@std@@2V0locale@2@A@@YAXXZ
text$yc	SEGMENT
??__E?id@?$codecvt@DDH@std@@2V0locale@2@A@@YAXXZ PROC	; `dynamic initializer for 'std::codecvt<char,char,int>::id'', COMDAT

; 377  : 			{	// move to node with next larger value

	push	ebp
	mov	ebp, esp
	sub	esp, 192				; 000000c0H
	push	ebx
	push	esi
	push	edi
	lea	edi, DWORD PTR [ebp-192]
	mov	ecx, 48					; 00000030H
	mov	eax, -858993460				; ccccccccH
	rep stosd
	push	0
	mov	ecx, OFFSET ?id@?$codecvt@DDH@std@@2V0locale@2@A ; std::codecvt<char,char,int>::id
	call	??0id@locale@std@@QAE@I@Z		; std::locale::id::id
	pop	edi
	pop	esi
	pop	ebx
	add	esp, 192				; 000000c0H
	cmp	ebp, esp
	call	__RTC_CheckEsp
	mov	esp, ebp
	pop	ebp
	ret	0
??__E?id@?$codecvt@DDH@std@@2V0locale@2@A@@YAXXZ ENDP	; `dynamic initializer for 'std::codecvt<char,char,int>::id''
; Function compile flags: /Odtp /RTCsu /ZI
; File c:\program files (x86)\microsoft visual studio 9.0\vc\include\xlocale
text$yc	ENDS
;	COMDAT ??0id@locale@std@@QAE@I@Z
_TEXT	SEGMENT
_this$ = -8						; size = 4
__Val$ = 8						; size = 4
??0id@locale@std@@QAE@I@Z PROC				; std::locale::id::id, COMDAT
; _this$ = ecx

; 73   : 			{	// construct with specified stamp value

	push	ebp
	mov	ebp, esp
	sub	esp, 204				; 000000ccH
	push	ebx
	push	esi
	push	edi
	push	ecx
	lea	edi, DWORD PTR [ebp-204]
	mov	ecx, 51					; 00000033H
	mov	eax, -858993460				; ccccccccH
	rep stosd
	pop	ecx
	mov	DWORD PTR _this$[ebp], ecx
	mov	eax, DWORD PTR _this$[ebp]
	mov	ecx, DWORD PTR __Val$[ebp]
	mov	DWORD PTR [eax], ecx

; 74   : 			}

	mov	eax, DWORD PTR _this$[ebp]
	pop	edi
	pop	esi
	pop	ebx
	mov	esp, ebp
	pop	ebp
	ret	4
??0id@locale@std@@QAE@I@Z ENDP				; std::locale::id::id
_TEXT	ENDS
PUBLIC	?id@?$codecvt@DDH@std@@2V0locale@2@A		; std::codecvt<char,char,int>::id
_BSS	SEGMENT
_UNASSIGNED_SYSTEM_ADDRESS DQ 01H DUP (?)
_UNASSIGNED_RAKNET_GUID DB 010H DUP (?)
_BSS	ENDS
;	COMDAT ?id@?$codecvt@DDH@std@@2V0locale@2@A
_BSS	SEGMENT
?id@?$codecvt@DDH@std@@2V0locale@2@A DD 01H DUP (?)	; std::codecvt<char,char,int>::id
_BSS	ENDS
CRT$XCU	SEGMENT
_UNASSIGNED_SYSTEM_ADDRESS$initializer$ DD FLAT:??__EUNASSIGNED_SYSTEM_ADDRESS@RakNet@@YAXXZ
_UNASSIGNED_RAKNET_GUID$initializer$ DD FLAT:??__EUNASSIGNED_RAKNET_GUID@RakNet@@YAXXZ
CRT$XCU	ENDS
;	COMDAT CRT$XCU
CRT$XCU	SEGMENT
?id$initializer$@?$codecvt@DDH@std@@2P6AXXZA DD FLAT:??__E?id@?$codecvt@DDH@std@@2V0locale@2@A@@YAXXZ ; std::codecvt<char,char,int>::id$initializer$
CRT$XCU	ENDS
END
