; Listing generated by Microsoft (R) Optimizing Compiler Version 15.00.30729.01 

	TITLE	d:\vice-players-master\Shared\TinyXML\tinyxmlerror.cpp
	.686P
	.XMM
	include listing.inc
	.model	flat

INCLUDELIB LIBCMTD
INCLUDELIB OLDNAMES

PUBLIC	??_C@_0FL@BMBPKIGK@Error?5when?5TiXmlDocument?5added?5t@ ; `string'
PUBLIC	??_C@_0BF@HJPECPBG@Error?5parsing?5CDATA?4?$AA@	; `string'
PUBLIC	??_C@_0DI@GMJJAOBO@Error?5null?5?$CI0?$CJ?5or?5unexpected?5EOF@ ; `string'
PUBLIC	??_C@_0BG@FFJMEOCN@Error?5document?5empty?4?$AA@ ; `string'
PUBLIC	??_C@_0BL@BMCKJPKK@Error?5parsing?5Declaration?4?$AA@ ; `string'
PUBLIC	??_C@_0BH@MPJHJCKO@Error?5parsing?5Comment?4?$AA@ ; `string'
PUBLIC	??_C@_0BH@EPLDMIEN@Error?5parsing?5Unknown?4?$AA@ ; `string'
PUBLIC	??_C@_0BH@JJGGDJOP@Error?5reading?5end?5tag?4?$AA@ ; `string'
PUBLIC	??_C@_0BC@HMFFDDLH@Error?3?5empty?5tag?4?$AA@	; `string'
PUBLIC	??_C@_0BK@JPCMNIIK@Error?5reading?5Attributes?4?$AA@ ; `string'
PUBLIC	??_C@_0BN@KKMBBCED@Error?5reading?5Element?5value?4?$AA@ ; `string'
PUBLIC	??_C@_0BM@NCHBIJBE@Failed?5to?5read?5Element?5name?$AA@ ; `string'
PUBLIC	??_C@_0BH@BONKCKA@Error?5parsing?5Element?4?$AA@ ; `string'
PUBLIC	??_C@_0BK@JCLLEHFP@Memory?5allocation?5failed?4?$AA@ ; `string'
PUBLIC	??_C@_0BE@HJPJFJPJ@Failed?5to?5open?5file?$AA@	; `string'
PUBLIC	??_C@_05NAOIJFC@Error?$AA@			; `string'
PUBLIC	??_C@_08INEPGKHH@No?5error?$AA@			; `string'
PUBLIC	?errorString@TiXmlBase@@1PAPBDA			; TiXmlBase::errorString
_DATA	SEGMENT
?errorString@TiXmlBase@@1PAPBDA DD FLAT:??_C@_08INEPGKHH@No?5error?$AA@ ; TiXmlBase::errorString
	DD	FLAT:??_C@_05NAOIJFC@Error?$AA@
	DD	FLAT:??_C@_0BE@HJPJFJPJ@Failed?5to?5open?5file?$AA@
	DD	FLAT:??_C@_0BK@JCLLEHFP@Memory?5allocation?5failed?4?$AA@
	DD	FLAT:??_C@_0BH@BONKCKA@Error?5parsing?5Element?4?$AA@
	DD	FLAT:??_C@_0BM@NCHBIJBE@Failed?5to?5read?5Element?5name?$AA@
	DD	FLAT:??_C@_0BN@KKMBBCED@Error?5reading?5Element?5value?4?$AA@
	DD	FLAT:??_C@_0BK@JPCMNIIK@Error?5reading?5Attributes?4?$AA@
	DD	FLAT:??_C@_0BC@HMFFDDLH@Error?3?5empty?5tag?4?$AA@
	DD	FLAT:??_C@_0BH@JJGGDJOP@Error?5reading?5end?5tag?4?$AA@
	DD	FLAT:??_C@_0BH@EPLDMIEN@Error?5parsing?5Unknown?4?$AA@
	DD	FLAT:??_C@_0BH@MPJHJCKO@Error?5parsing?5Comment?4?$AA@
	DD	FLAT:??_C@_0BL@BMCKJPKK@Error?5parsing?5Declaration?4?$AA@
	DD	FLAT:??_C@_0BG@FFJMEOCN@Error?5document?5empty?4?$AA@
	DD	FLAT:??_C@_0DI@GMJJAOBO@Error?5null?5?$CI0?$CJ?5or?5unexpected?5EOF@
	DD	FLAT:??_C@_0BF@HJPECPBG@Error?5parsing?5CDATA?4?$AA@
	DD	FLAT:??_C@_0FL@BMBPKIGK@Error?5when?5TiXmlDocument?5added?5t@
_DATA	ENDS
;	COMDAT ??_C@_0FL@BMBPKIGK@Error?5when?5TiXmlDocument?5added?5t@
CONST	SEGMENT
??_C@_0FL@BMBPKIGK@Error?5when?5TiXmlDocument?5added?5t@ DB 'Error when T'
	DB	'iXmlDocument added to document, because TiXmlDocument can onl'
	DB	'y be at the root.', 00H			; `string'
CONST	ENDS
;	COMDAT ??_C@_0BF@HJPECPBG@Error?5parsing?5CDATA?4?$AA@
CONST	SEGMENT
??_C@_0BF@HJPECPBG@Error?5parsing?5CDATA?4?$AA@ DB 'Error parsing CDATA.', 00H ; `string'
CONST	ENDS
;	COMDAT ??_C@_0DI@GMJJAOBO@Error?5null?5?$CI0?$CJ?5or?5unexpected?5EOF@
CONST	SEGMENT
??_C@_0DI@GMJJAOBO@Error?5null?5?$CI0?$CJ?5or?5unexpected?5EOF@ DB 'Error'
	DB	' null (0) or unexpected EOF found in input stream.', 00H ; `string'
CONST	ENDS
;	COMDAT ??_C@_0BG@FFJMEOCN@Error?5document?5empty?4?$AA@
CONST	SEGMENT
??_C@_0BG@FFJMEOCN@Error?5document?5empty?4?$AA@ DB 'Error document empty'
	DB	'.', 00H					; `string'
CONST	ENDS
;	COMDAT ??_C@_0BL@BMCKJPKK@Error?5parsing?5Declaration?4?$AA@
CONST	SEGMENT
??_C@_0BL@BMCKJPKK@Error?5parsing?5Declaration?4?$AA@ DB 'Error parsing D'
	DB	'eclaration.', 00H				; `string'
CONST	ENDS
;	COMDAT ??_C@_0BH@MPJHJCKO@Error?5parsing?5Comment?4?$AA@
CONST	SEGMENT
??_C@_0BH@MPJHJCKO@Error?5parsing?5Comment?4?$AA@ DB 'Error parsing Comme'
	DB	'nt.', 00H					; `string'
CONST	ENDS
;	COMDAT ??_C@_0BH@EPLDMIEN@Error?5parsing?5Unknown?4?$AA@
CONST	SEGMENT
??_C@_0BH@EPLDMIEN@Error?5parsing?5Unknown?4?$AA@ DB 'Error parsing Unkno'
	DB	'wn.', 00H					; `string'
CONST	ENDS
;	COMDAT ??_C@_0BH@JJGGDJOP@Error?5reading?5end?5tag?4?$AA@
CONST	SEGMENT
??_C@_0BH@JJGGDJOP@Error?5reading?5end?5tag?4?$AA@ DB 'Error reading end '
	DB	'tag.', 00H					; `string'
CONST	ENDS
;	COMDAT ??_C@_0BC@HMFFDDLH@Error?3?5empty?5tag?4?$AA@
CONST	SEGMENT
??_C@_0BC@HMFFDDLH@Error?3?5empty?5tag?4?$AA@ DB 'Error: empty tag.', 00H ; `string'
CONST	ENDS
;	COMDAT ??_C@_0BK@JPCMNIIK@Error?5reading?5Attributes?4?$AA@
CONST	SEGMENT
??_C@_0BK@JPCMNIIK@Error?5reading?5Attributes?4?$AA@ DB 'Error reading At'
	DB	'tributes.', 00H				; `string'
CONST	ENDS
;	COMDAT ??_C@_0BN@KKMBBCED@Error?5reading?5Element?5value?4?$AA@
CONST	SEGMENT
??_C@_0BN@KKMBBCED@Error?5reading?5Element?5value?4?$AA@ DB 'Error readin'
	DB	'g Element value.', 00H			; `string'
CONST	ENDS
;	COMDAT ??_C@_0BM@NCHBIJBE@Failed?5to?5read?5Element?5name?$AA@
CONST	SEGMENT
??_C@_0BM@NCHBIJBE@Failed?5to?5read?5Element?5name?$AA@ DB 'Failed to rea'
	DB	'd Element name', 00H			; `string'
CONST	ENDS
;	COMDAT ??_C@_0BH@BONKCKA@Error?5parsing?5Element?4?$AA@
CONST	SEGMENT
??_C@_0BH@BONKCKA@Error?5parsing?5Element?4?$AA@ DB 'Error parsing Elemen'
	DB	't.', 00H					; `string'
CONST	ENDS
;	COMDAT ??_C@_0BK@JCLLEHFP@Memory?5allocation?5failed?4?$AA@
CONST	SEGMENT
??_C@_0BK@JCLLEHFP@Memory?5allocation?5failed?4?$AA@ DB 'Memory allocatio'
	DB	'n failed.', 00H				; `string'
CONST	ENDS
;	COMDAT ??_C@_0BE@HJPJFJPJ@Failed?5to?5open?5file?$AA@
CONST	SEGMENT
??_C@_0BE@HJPJFJPJ@Failed?5to?5open?5file?$AA@ DB 'Failed to open file', 00H ; `string'
CONST	ENDS
;	COMDAT ??_C@_05NAOIJFC@Error?$AA@
CONST	SEGMENT
??_C@_05NAOIJFC@Error?$AA@ DB 'Error', 00H		; `string'
CONST	ENDS
;	COMDAT ??_C@_08INEPGKHH@No?5error?$AA@
CONST	SEGMENT
??_C@_08INEPGKHH@No?5error?$AA@ DB 'No error', 00H	; `string'
CONST	ENDS
END
